Archive member included because of file (symbol)

/home/vadim/projects/ipaugenblick/dpdk-1.6.0r2/x86_64-default-linuxapp-gcc/lib/librte_kni.a(rte_kni.o)
                              (--whole-archive)
/home/vadim/projects/ipaugenblick/dpdk-1.6.0r2/x86_64-default-linuxapp-gcc/lib/librte_pmd_e1000.a(e1000_80003es2lan.o)
                              (--whole-archive)
/home/vadim/projects/ipaugenblick/dpdk-1.6.0r2/x86_64-default-linuxapp-gcc/lib/librte_pmd_e1000.a(e1000_82540.o)
                              (--whole-archive)
/home/vadim/projects/ipaugenblick/dpdk-1.6.0r2/x86_64-default-linuxapp-gcc/lib/librte_pmd_e1000.a(e1000_82541.o)
                              (--whole-archive)
/home/vadim/projects/ipaugenblick/dpdk-1.6.0r2/x86_64-default-linuxapp-gcc/lib/librte_pmd_e1000.a(e1000_82542.o)
                              (--whole-archive)
/home/vadim/projects/ipaugenblick/dpdk-1.6.0r2/x86_64-default-linuxapp-gcc/lib/librte_pmd_e1000.a(e1000_82543.o)
                              (--whole-archive)
/home/vadim/projects/ipaugenblick/dpdk-1.6.0r2/x86_64-default-linuxapp-gcc/lib/librte_pmd_e1000.a(e1000_82571.o)
                              (--whole-archive)
/home/vadim/projects/ipaugenblick/dpdk-1.6.0r2/x86_64-default-linuxapp-gcc/lib/librte_pmd_e1000.a(e1000_82575.o)
                              (--whole-archive)
/home/vadim/projects/ipaugenblick/dpdk-1.6.0r2/x86_64-default-linuxapp-gcc/lib/librte_pmd_e1000.a(e1000_i210.o)
                              (--whole-archive)
/home/vadim/projects/ipaugenblick/dpdk-1.6.0r2/x86_64-default-linuxapp-gcc/lib/librte_pmd_e1000.a(e1000_api.o)
                              (--whole-archive)
/home/vadim/projects/ipaugenblick/dpdk-1.6.0r2/x86_64-default-linuxapp-gcc/lib/librte_pmd_e1000.a(e1000_ich8lan.o)
                              (--whole-archive)
/home/vadim/projects/ipaugenblick/dpdk-1.6.0r2/x86_64-default-linuxapp-gcc/lib/librte_pmd_e1000.a(e1000_mac.o)
                              (--whole-archive)
/home/vadim/projects/ipaugenblick/dpdk-1.6.0r2/x86_64-default-linuxapp-gcc/lib/librte_pmd_e1000.a(e1000_manage.o)
                              (--whole-archive)
/home/vadim/projects/ipaugenblick/dpdk-1.6.0r2/x86_64-default-linuxapp-gcc/lib/librte_pmd_e1000.a(e1000_mbx.o)
                              (--whole-archive)
/home/vadim/projects/ipaugenblick/dpdk-1.6.0r2/x86_64-default-linuxapp-gcc/lib/librte_pmd_e1000.a(e1000_nvm.o)
                              (--whole-archive)
/home/vadim/projects/ipaugenblick/dpdk-1.6.0r2/x86_64-default-linuxapp-gcc/lib/librte_pmd_e1000.a(e1000_osdep.o)
                              (--whole-archive)
/home/vadim/projects/ipaugenblick/dpdk-1.6.0r2/x86_64-default-linuxapp-gcc/lib/librte_pmd_e1000.a(e1000_phy.o)
                              (--whole-archive)
/home/vadim/projects/ipaugenblick/dpdk-1.6.0r2/x86_64-default-linuxapp-gcc/lib/librte_pmd_e1000.a(e1000_vf.o)
                              (--whole-archive)
/home/vadim/projects/ipaugenblick/dpdk-1.6.0r2/x86_64-default-linuxapp-gcc/lib/librte_pmd_e1000.a(igb_ethdev.o)
                              (--whole-archive)
/home/vadim/projects/ipaugenblick/dpdk-1.6.0r2/x86_64-default-linuxapp-gcc/lib/librte_pmd_e1000.a(igb_rxtx.o)
                              (--whole-archive)
/home/vadim/projects/ipaugenblick/dpdk-1.6.0r2/x86_64-default-linuxapp-gcc/lib/librte_pmd_e1000.a(igb_pf.o)
                              (--whole-archive)
/home/vadim/projects/ipaugenblick/dpdk-1.6.0r2/x86_64-default-linuxapp-gcc/lib/librte_pmd_e1000.a(em_ethdev.o)
                              (--whole-archive)
/home/vadim/projects/ipaugenblick/dpdk-1.6.0r2/x86_64-default-linuxapp-gcc/lib/librte_pmd_e1000.a(em_rxtx.o)
                              (--whole-archive)
/home/vadim/projects/ipaugenblick/dpdk-1.6.0r2/x86_64-default-linuxapp-gcc/lib/librte_pmd_ixgbe.a(ixgbe_common.o)
                              (--whole-archive)
/home/vadim/projects/ipaugenblick/dpdk-1.6.0r2/x86_64-default-linuxapp-gcc/lib/librte_pmd_ixgbe.a(ixgbe_82598.o)
                              (--whole-archive)
/home/vadim/projects/ipaugenblick/dpdk-1.6.0r2/x86_64-default-linuxapp-gcc/lib/librte_pmd_ixgbe.a(ixgbe_82599.o)
                              (--whole-archive)
/home/vadim/projects/ipaugenblick/dpdk-1.6.0r2/x86_64-default-linuxapp-gcc/lib/librte_pmd_ixgbe.a(ixgbe_x540.o)
                              (--whole-archive)
/home/vadim/projects/ipaugenblick/dpdk-1.6.0r2/x86_64-default-linuxapp-gcc/lib/librte_pmd_ixgbe.a(ixgbe_phy.o)
                              (--whole-archive)
/home/vadim/projects/ipaugenblick/dpdk-1.6.0r2/x86_64-default-linuxapp-gcc/lib/librte_pmd_ixgbe.a(ixgbe_api.o)
                              (--whole-archive)
/home/vadim/projects/ipaugenblick/dpdk-1.6.0r2/x86_64-default-linuxapp-gcc/lib/librte_pmd_ixgbe.a(ixgbe_vf.o)
                              (--whole-archive)
/home/vadim/projects/ipaugenblick/dpdk-1.6.0r2/x86_64-default-linuxapp-gcc/lib/librte_pmd_ixgbe.a(ixgbe_dcb.o)
                              (--whole-archive)
/home/vadim/projects/ipaugenblick/dpdk-1.6.0r2/x86_64-default-linuxapp-gcc/lib/librte_pmd_ixgbe.a(ixgbe_dcb_82599.o)
                              (--whole-archive)
/home/vadim/projects/ipaugenblick/dpdk-1.6.0r2/x86_64-default-linuxapp-gcc/lib/librte_pmd_ixgbe.a(ixgbe_dcb_82598.o)
                              (--whole-archive)
/home/vadim/projects/ipaugenblick/dpdk-1.6.0r2/x86_64-default-linuxapp-gcc/lib/librte_pmd_ixgbe.a(ixgbe_mbx.o)
                              (--whole-archive)
/home/vadim/projects/ipaugenblick/dpdk-1.6.0r2/x86_64-default-linuxapp-gcc/lib/librte_pmd_ixgbe.a(ixgbe_rxtx.o)
                              (--whole-archive)
/home/vadim/projects/ipaugenblick/dpdk-1.6.0r2/x86_64-default-linuxapp-gcc/lib/librte_pmd_ixgbe.a(ixgbe_ethdev.o)
                              (--whole-archive)
/home/vadim/projects/ipaugenblick/dpdk-1.6.0r2/x86_64-default-linuxapp-gcc/lib/librte_pmd_ixgbe.a(ixgbe_fdir.o)
                              (--whole-archive)
/home/vadim/projects/ipaugenblick/dpdk-1.6.0r2/x86_64-default-linuxapp-gcc/lib/librte_pmd_ixgbe.a(ixgbe_pf.o)
                              (--whole-archive)
/home/vadim/projects/ipaugenblick/dpdk-1.6.0r2/x86_64-default-linuxapp-gcc/lib/librte_pmd_virtio_uio.a(virtqueue.o)
                              (--whole-archive)
/home/vadim/projects/ipaugenblick/dpdk-1.6.0r2/x86_64-default-linuxapp-gcc/lib/librte_pmd_virtio_uio.a(virtio_pci.o)
                              (--whole-archive)
/home/vadim/projects/ipaugenblick/dpdk-1.6.0r2/x86_64-default-linuxapp-gcc/lib/librte_pmd_virtio_uio.a(virtio_rxtx.o)
                              (--whole-archive)
/home/vadim/projects/ipaugenblick/dpdk-1.6.0r2/x86_64-default-linuxapp-gcc/lib/librte_pmd_virtio_uio.a(virtio_ethdev.o)
                              (--whole-archive)
/home/vadim/projects/ipaugenblick/dpdk-1.6.0r2/x86_64-default-linuxapp-gcc/lib/librte_pmd_vmxnet3_uio.a(vmxnet3_rxtx.o)
                              (--whole-archive)
/home/vadim/projects/ipaugenblick/dpdk-1.6.0r2/x86_64-default-linuxapp-gcc/lib/librte_pmd_vmxnet3_uio.a(vmxnet3_ethdev.o)
                              (--whole-archive)
/home/vadim/projects/ipaugenblick/dpdk-1.6.0r2/x86_64-default-linuxapp-gcc/lib/librte_timer.a(rte_timer.o)
                              (--whole-archive)
/home/vadim/projects/ipaugenblick/dpdk-1.6.0r2/x86_64-default-linuxapp-gcc/lib/librte_hash.a(rte_hash.o)
                              (--whole-archive)
/home/vadim/projects/ipaugenblick/dpdk-1.6.0r2/x86_64-default-linuxapp-gcc/lib/librte_hash.a(rte_fbk_hash.o)
                              (--whole-archive)
/home/vadim/projects/ipaugenblick/dpdk-1.6.0r2/x86_64-default-linuxapp-gcc/lib/librte_lpm.a(rte_lpm.o)
                              (--whole-archive)
/home/vadim/projects/ipaugenblick/dpdk-1.6.0r2/x86_64-default-linuxapp-gcc/lib/librte_lpm.a(rte_lpm6.o)
                              (--whole-archive)
/home/vadim/projects/ipaugenblick/dpdk-1.6.0r2/x86_64-default-linuxapp-gcc/lib/librte_power.a(rte_power.o)
                              (--whole-archive)
/home/vadim/projects/ipaugenblick/dpdk-1.6.0r2/x86_64-default-linuxapp-gcc/lib/librte_meter.a(rte_meter.o)
                              (--whole-archive)
/home/vadim/projects/ipaugenblick/dpdk-1.6.0r2/x86_64-default-linuxapp-gcc/lib/librte_sched.a(rte_sched.o)
                              (--whole-archive)
/home/vadim/projects/ipaugenblick/dpdk-1.6.0r2/x86_64-default-linuxapp-gcc/lib/librte_sched.a(rte_red.o)
                              (--whole-archive)
/home/vadim/projects/ipaugenblick/dpdk-1.6.0r2/x86_64-default-linuxapp-gcc/lib/librte_sched.a(rte_approx.o)
                              (--whole-archive)
/home/vadim/projects/ipaugenblick/dpdk-1.6.0r2/x86_64-default-linuxapp-gcc/lib/librte_kvargs.a(rte_kvargs.o)
                              (--whole-archive)
/home/vadim/projects/ipaugenblick/dpdk-1.6.0r2/x86_64-default-linuxapp-gcc/lib/librte_mbuf.a(rte_mbuf.o)
                              (--whole-archive)
/home/vadim/projects/ipaugenblick/dpdk-1.6.0r2/x86_64-default-linuxapp-gcc/lib/libethdev.a(rte_ethdev.o)
                              (--whole-archive)
/home/vadim/projects/ipaugenblick/dpdk-1.6.0r2/x86_64-default-linuxapp-gcc/lib/librte_pmd_ring.a(rte_eth_ring.o)
                              (--whole-archive)
/home/vadim/projects/ipaugenblick/dpdk-1.6.0r2/x86_64-default-linuxapp-gcc/lib/librte_malloc.a(rte_malloc.o)
                              (--whole-archive)
/home/vadim/projects/ipaugenblick/dpdk-1.6.0r2/x86_64-default-linuxapp-gcc/lib/librte_malloc.a(malloc_elem.o)
                              (--whole-archive)
/home/vadim/projects/ipaugenblick/dpdk-1.6.0r2/x86_64-default-linuxapp-gcc/lib/librte_malloc.a(malloc_heap.o)
                              (--whole-archive)
/home/vadim/projects/ipaugenblick/dpdk-1.6.0r2/x86_64-default-linuxapp-gcc/lib/librte_mempool.a(rte_mempool.o)
                              (--whole-archive)
/home/vadim/projects/ipaugenblick/dpdk-1.6.0r2/x86_64-default-linuxapp-gcc/lib/librte_ring.a(rte_ring.o)
                              (--whole-archive)
/home/vadim/projects/ipaugenblick/dpdk-1.6.0r2/x86_64-default-linuxapp-gcc/lib/librte_eal.a(eal.o)
                              (--whole-archive)
/home/vadim/projects/ipaugenblick/dpdk-1.6.0r2/x86_64-default-linuxapp-gcc/lib/librte_eal.a(eal_hugepage_info.o)
                              (--whole-archive)
/home/vadim/projects/ipaugenblick/dpdk-1.6.0r2/x86_64-default-linuxapp-gcc/lib/librte_eal.a(eal_memory.o)
                              (--whole-archive)
/home/vadim/projects/ipaugenblick/dpdk-1.6.0r2/x86_64-default-linuxapp-gcc/lib/librte_eal.a(eal_thread.o)
                              (--whole-archive)
/home/vadim/projects/ipaugenblick/dpdk-1.6.0r2/x86_64-default-linuxapp-gcc/lib/librte_eal.a(eal_log.o)
                              (--whole-archive)
/home/vadim/projects/ipaugenblick/dpdk-1.6.0r2/x86_64-default-linuxapp-gcc/lib/librte_eal.a(eal_pci.o)
                              (--whole-archive)
/home/vadim/projects/ipaugenblick/dpdk-1.6.0r2/x86_64-default-linuxapp-gcc/lib/librte_eal.a(eal_debug.o)
                              (--whole-archive)
/home/vadim/projects/ipaugenblick/dpdk-1.6.0r2/x86_64-default-linuxapp-gcc/lib/librte_eal.a(eal_lcore.o)
                              (--whole-archive)
/home/vadim/projects/ipaugenblick/dpdk-1.6.0r2/x86_64-default-linuxapp-gcc/lib/librte_eal.a(eal_timer.o)
                              (--whole-archive)
/home/vadim/projects/ipaugenblick/dpdk-1.6.0r2/x86_64-default-linuxapp-gcc/lib/librte_eal.a(eal_interrupts.o)
                              (--whole-archive)
/home/vadim/projects/ipaugenblick/dpdk-1.6.0r2/x86_64-default-linuxapp-gcc/lib/librte_eal.a(eal_alarm.o)
                              (--whole-archive)
/home/vadim/projects/ipaugenblick/dpdk-1.6.0r2/x86_64-default-linuxapp-gcc/lib/librte_eal.a(eal_common_memzone.o)
                              (--whole-archive)
/home/vadim/projects/ipaugenblick/dpdk-1.6.0r2/x86_64-default-linuxapp-gcc/lib/librte_eal.a(eal_common_log.o)
                              (--whole-archive)
/home/vadim/projects/ipaugenblick/dpdk-1.6.0r2/x86_64-default-linuxapp-gcc/lib/librte_eal.a(eal_common_launch.o)
                              (--whole-archive)
/home/vadim/projects/ipaugenblick/dpdk-1.6.0r2/x86_64-default-linuxapp-gcc/lib/librte_eal.a(eal_common_pci.o)
                              (--whole-archive)
/home/vadim/projects/ipaugenblick/dpdk-1.6.0r2/x86_64-default-linuxapp-gcc/lib/librte_eal.a(eal_common_memory.o)
                              (--whole-archive)
/home/vadim/projects/ipaugenblick/dpdk-1.6.0r2/x86_64-default-linuxapp-gcc/lib/librte_eal.a(eal_common_tailqs.o)
                              (--whole-archive)
/home/vadim/projects/ipaugenblick/dpdk-1.6.0r2/x86_64-default-linuxapp-gcc/lib/librte_eal.a(eal_common_errno.o)
                              (--whole-archive)
/home/vadim/projects/ipaugenblick/dpdk-1.6.0r2/x86_64-default-linuxapp-gcc/lib/librte_eal.a(eal_common_cpuflags.o)
                              (--whole-archive)
/home/vadim/projects/ipaugenblick/dpdk-1.6.0r2/x86_64-default-linuxapp-gcc/lib/librte_eal.a(eal_common_hexdump.o)
                              (--whole-archive)
/home/vadim/projects/ipaugenblick/dpdk-1.6.0r2/x86_64-default-linuxapp-gcc/lib/librte_eal.a(eal_common_devargs.o)
                              (--whole-archive)
/home/vadim/projects/ipaugenblick/dpdk-1.6.0r2/x86_64-default-linuxapp-gcc/lib/librte_eal.a(eal_common_vdev.o)
                              (--whole-archive)
/home/vadim/projects/ipaugenblick/dpdk-1.6.0r2/x86_64-default-linuxapp-gcc/lib/librte_cmdline.a(cmdline.o)
                              (--whole-archive)
/home/vadim/projects/ipaugenblick/dpdk-1.6.0r2/x86_64-default-linuxapp-gcc/lib/librte_cmdline.a(cmdline_cirbuf.o)
                              (--whole-archive)
/home/vadim/projects/ipaugenblick/dpdk-1.6.0r2/x86_64-default-linuxapp-gcc/lib/librte_cmdline.a(cmdline_parse.o)
                              (--whole-archive)
/home/vadim/projects/ipaugenblick/dpdk-1.6.0r2/x86_64-default-linuxapp-gcc/lib/librte_cmdline.a(cmdline_parse_etheraddr.o)
                              (--whole-archive)
/home/vadim/projects/ipaugenblick/dpdk-1.6.0r2/x86_64-default-linuxapp-gcc/lib/librte_cmdline.a(cmdline_parse_ipaddr.o)
                              (--whole-archive)
/home/vadim/projects/ipaugenblick/dpdk-1.6.0r2/x86_64-default-linuxapp-gcc/lib/librte_cmdline.a(cmdline_parse_num.o)
                              (--whole-archive)
/home/vadim/projects/ipaugenblick/dpdk-1.6.0r2/x86_64-default-linuxapp-gcc/lib/librte_cmdline.a(cmdline_parse_string.o)
                              (--whole-archive)
/home/vadim/projects/ipaugenblick/dpdk-1.6.0r2/x86_64-default-linuxapp-gcc/lib/librte_cmdline.a(cmdline_rdline.o)
                              (--whole-archive)
/home/vadim/projects/ipaugenblick/dpdk-1.6.0r2/x86_64-default-linuxapp-gcc/lib/librte_cmdline.a(cmdline_vt100.o)
                              (--whole-archive)
/home/vadim/projects/ipaugenblick/dpdk-1.6.0r2/x86_64-default-linuxapp-gcc/lib/librte_cmdline.a(cmdline_socket.o)
                              (--whole-archive)
/home/vadim/projects/ipaugenblick/dpdk-1.6.0r2/x86_64-default-linuxapp-gcc/lib/librte_cmdline.a(cmdline_parse_portlist.o)
                              (--whole-archive)
/usr/lib/x86_64-linux-gnu/libc_nonshared.a(elf-init.oS)
                              /usr/lib/gcc/x86_64-linux-gnu/4.6/../../../x86_64-linux-gnu/crt1.o (__libc_csu_init)

Allocating common symbols
Common symbol       size              file

tx_queue_stats_mappings_array
                    0x10000           testpmd.o
nb_ports            0x1               testpmd.o
fwd_ports_ids       0x20              testpmd.o
nb_cfg_ports        0x1               testpmd.o
rte_cycles_vmware_tsc_map
                    0x4               /home/vadim/projects/ipaugenblick/dpdk-1.6.0r2/x86_64-default-linuxapp-gcc/lib/librte_eal.a(eal.o)
pci_device_list     0x10              /home/vadim/projects/ipaugenblick/dpdk-1.6.0r2/x86_64-default-linuxapp-gcc/lib/librte_eal.a(eal_common_pci.o)
fwd_lcores_cpuids   0x100             testpmd.o
rxring_numa         0x20              testpmd.o
nb_fwd_lcores       0x1               testpmd.o
pci_driver_list     0x10              /home/vadim/projects/ipaugenblick/dpdk-1.6.0r2/x86_64-default-linuxapp-gcc/lib/librte_eal.a(eal_common_pci.o)
txring_numa         0x20              testpmd.o
internal_config     0x148             /home/vadim/projects/ipaugenblick/dpdk-1.6.0r2/x86_64-default-linuxapp-gcc/lib/librte_eal.a(eal.o)
port_numa           0x20              testpmd.o
ports               0x8               testpmd.o
lcore_config        0x1000            /home/vadim/projects/ipaugenblick/dpdk-1.6.0r2/x86_64-default-linuxapp-gcc/lib/librte_eal.a(eal.o)
rte_eth_devices     0x800             /home/vadim/projects/ipaugenblick/dpdk-1.6.0r2/x86_64-default-linuxapp-gcc/lib/libethdev.a(rte_ethdev.o)
rx_queue_stats_mappings_array
                    0x40000           testpmd.o
nb_fwd_ports        0x1               testpmd.o
__rte_cache_aligned
                    0x138             /home/vadim/projects/ipaugenblick/dpdk-1.6.0r2/x86_64-default-linuxapp-gcc/lib/librte_power.a(rte_power.o)
fwd_streams         0x8               testpmd.o
nb_fwd_streams      0x2               testpmd.o
rte_red_pow2_frac_inv
                    0x20              /home/vadim/projects/ipaugenblick/dpdk-1.6.0r2/x86_64-default-linuxapp-gcc/lib/librte_sched.a(rte_red.o)
cur_fwd_config      0x10              testpmd.o
peer_eth_addrs      0xc0              testpmd.o
nb_lcores           0x1               testpmd.o
fwd_lcores          0x8               testpmd.o
nb_cfg_lcores       0x1               testpmd.o
rte_red_log2_1_minus_Wq
                    0x18              /home/vadim/projects/ipaugenblick/dpdk-1.6.0r2/x86_64-default-linuxapp-gcc/lib/librte_sched.a(rte_red.o)

Discarded input sections

 .note.GNU-stack
                0x0000000000000000        0x0 /usr/lib/gcc/x86_64-linux-gnu/4.6/../../../x86_64-linux-gnu/crt1.o
 .gnu_debuglink
                0x0000000000000000        0xc /usr/lib/gcc/x86_64-linux-gnu/4.6/../../../x86_64-linux-gnu/crt1.o
 .note.GNU-stack
                0x0000000000000000        0x0 /usr/lib/gcc/x86_64-linux-gnu/4.6/../../../x86_64-linux-gnu/crti.o
 .gnu_debuglink
                0x0000000000000000        0xc /usr/lib/gcc/x86_64-linux-gnu/4.6/../../../x86_64-linux-gnu/crti.o
 .note.GNU-stack
                0x0000000000000000        0x0 /usr/lib/gcc/x86_64-linux-gnu/4.6/crtbegin.o
 .note.GNU-stack
                0x0000000000000000        0x0 testpmd.o
 .note.GNU-stack
                0x0000000000000000        0x0 parameters.o
 .note.GNU-stack
                0x0000000000000000        0x0 cmdline.o
 .note.GNU-stack
                0x0000000000000000        0x0 config.o
 .note.GNU-stack
                0x0000000000000000        0x0 iofwd.o
 .note.GNU-stack
                0x0000000000000000        0x0 macfwd.o
 .note.GNU-stack
                0x0000000000000000        0x0 macfwd-retry.o
 .note.GNU-stack
                0x0000000000000000        0x0 rxonly.o
 .note.GNU-stack
                0x0000000000000000        0x0 txonly.o
 .note.GNU-stack
                0x0000000000000000        0x0 csumonly.o
 .note.GNU-stack
                0x0000000000000000        0x0 mempool_anon.o
 .note.GNU-stack
                0x0000000000000000        0x0 /home/vadim/projects/ipaugenblick/dpdk-1.6.0r2/x86_64-default-linuxapp-gcc/lib/librte_kni.a(rte_kni.o)
 .note.GNU-stack
                0x0000000000000000        0x0 /home/vadim/projects/ipaugenblick/dpdk-1.6.0r2/x86_64-default-linuxapp-gcc/lib/librte_pmd_e1000.a(e1000_80003es2lan.o)
 .note.GNU-stack
                0x0000000000000000        0x0 /home/vadim/projects/ipaugenblick/dpdk-1.6.0r2/x86_64-default-linuxapp-gcc/lib/librte_pmd_e1000.a(e1000_82540.o)
 .note.GNU-stack
                0x0000000000000000        0x0 /home/vadim/projects/ipaugenblick/dpdk-1.6.0r2/x86_64-default-linuxapp-gcc/lib/librte_pmd_e1000.a(e1000_82541.o)
 .note.GNU-stack
                0x0000000000000000        0x0 /home/vadim/projects/ipaugenblick/dpdk-1.6.0r2/x86_64-default-linuxapp-gcc/lib/librte_pmd_e1000.a(e1000_82542.o)
 .note.GNU-stack
                0x0000000000000000        0x0 /home/vadim/projects/ipaugenblick/dpdk-1.6.0r2/x86_64-default-linuxapp-gcc/lib/librte_pmd_e1000.a(e1000_82543.o)
 .note.GNU-stack
                0x0000000000000000        0x0 /home/vadim/projects/ipaugenblick/dpdk-1.6.0r2/x86_64-default-linuxapp-gcc/lib/librte_pmd_e1000.a(e1000_82571.o)
 .note.GNU-stack
                0x0000000000000000        0x0 /home/vadim/projects/ipaugenblick/dpdk-1.6.0r2/x86_64-default-linuxapp-gcc/lib/librte_pmd_e1000.a(e1000_82575.o)
 .note.GNU-stack
                0x0000000000000000        0x0 /home/vadim/projects/ipaugenblick/dpdk-1.6.0r2/x86_64-default-linuxapp-gcc/lib/librte_pmd_e1000.a(e1000_i210.o)
 .note.GNU-stack
                0x0000000000000000        0x0 /home/vadim/projects/ipaugenblick/dpdk-1.6.0r2/x86_64-default-linuxapp-gcc/lib/librte_pmd_e1000.a(e1000_api.o)
 .note.GNU-stack
                0x0000000000000000        0x0 /home/vadim/projects/ipaugenblick/dpdk-1.6.0r2/x86_64-default-linuxapp-gcc/lib/librte_pmd_e1000.a(e1000_ich8lan.o)
 .note.GNU-stack
                0x0000000000000000        0x0 /home/vadim/projects/ipaugenblick/dpdk-1.6.0r2/x86_64-default-linuxapp-gcc/lib/librte_pmd_e1000.a(e1000_mac.o)
 .note.GNU-stack
                0x0000000000000000        0x0 /home/vadim/projects/ipaugenblick/dpdk-1.6.0r2/x86_64-default-linuxapp-gcc/lib/librte_pmd_e1000.a(e1000_manage.o)
 .note.GNU-stack
                0x0000000000000000        0x0 /home/vadim/projects/ipaugenblick/dpdk-1.6.0r2/x86_64-default-linuxapp-gcc/lib/librte_pmd_e1000.a(e1000_mbx.o)
 .note.GNU-stack
                0x0000000000000000        0x0 /home/vadim/projects/ipaugenblick/dpdk-1.6.0r2/x86_64-default-linuxapp-gcc/lib/librte_pmd_e1000.a(e1000_nvm.o)
 .note.GNU-stack
                0x0000000000000000        0x0 /home/vadim/projects/ipaugenblick/dpdk-1.6.0r2/x86_64-default-linuxapp-gcc/lib/librte_pmd_e1000.a(e1000_osdep.o)
 .note.GNU-stack
                0x0000000000000000        0x0 /home/vadim/projects/ipaugenblick/dpdk-1.6.0r2/x86_64-default-linuxapp-gcc/lib/librte_pmd_e1000.a(e1000_phy.o)
 .note.GNU-stack
                0x0000000000000000        0x0 /home/vadim/projects/ipaugenblick/dpdk-1.6.0r2/x86_64-default-linuxapp-gcc/lib/librte_pmd_e1000.a(e1000_vf.o)
 .note.GNU-stack
                0x0000000000000000        0x0 /home/vadim/projects/ipaugenblick/dpdk-1.6.0r2/x86_64-default-linuxapp-gcc/lib/librte_pmd_e1000.a(igb_ethdev.o)
 .note.GNU-stack
                0x0000000000000000        0x0 /home/vadim/projects/ipaugenblick/dpdk-1.6.0r2/x86_64-default-linuxapp-gcc/lib/librte_pmd_e1000.a(igb_rxtx.o)
 .note.GNU-stack
                0x0000000000000000        0x0 /home/vadim/projects/ipaugenblick/dpdk-1.6.0r2/x86_64-default-linuxapp-gcc/lib/librte_pmd_e1000.a(igb_pf.o)
 .note.GNU-stack
                0x0000000000000000        0x0 /home/vadim/projects/ipaugenblick/dpdk-1.6.0r2/x86_64-default-linuxapp-gcc/lib/librte_pmd_e1000.a(em_ethdev.o)
 .note.GNU-stack
                0x0000000000000000        0x0 /home/vadim/projects/ipaugenblick/dpdk-1.6.0r2/x86_64-default-linuxapp-gcc/lib/librte_pmd_e1000.a(em_rxtx.o)
 .note.GNU-stack
                0x0000000000000000        0x0 /home/vadim/projects/ipaugenblick/dpdk-1.6.0r2/x86_64-default-linuxapp-gcc/lib/librte_pmd_ixgbe.a(ixgbe_common.o)
 .note.GNU-stack
                0x0000000000000000        0x0 /home/vadim/projects/ipaugenblick/dpdk-1.6.0r2/x86_64-default-linuxapp-gcc/lib/librte_pmd_ixgbe.a(ixgbe_82598.o)
 .note.GNU-stack
                0x0000000000000000        0x0 /home/vadim/projects/ipaugenblick/dpdk-1.6.0r2/x86_64-default-linuxapp-gcc/lib/librte_pmd_ixgbe.a(ixgbe_82599.o)
 .note.GNU-stack
                0x0000000000000000        0x0 /home/vadim/projects/ipaugenblick/dpdk-1.6.0r2/x86_64-default-linuxapp-gcc/lib/librte_pmd_ixgbe.a(ixgbe_x540.o)
 .note.GNU-stack
                0x0000000000000000        0x0 /home/vadim/projects/ipaugenblick/dpdk-1.6.0r2/x86_64-default-linuxapp-gcc/lib/librte_pmd_ixgbe.a(ixgbe_phy.o)
 .note.GNU-stack
                0x0000000000000000        0x0 /home/vadim/projects/ipaugenblick/dpdk-1.6.0r2/x86_64-default-linuxapp-gcc/lib/librte_pmd_ixgbe.a(ixgbe_api.o)
 .note.GNU-stack
                0x0000000000000000        0x0 /home/vadim/projects/ipaugenblick/dpdk-1.6.0r2/x86_64-default-linuxapp-gcc/lib/librte_pmd_ixgbe.a(ixgbe_vf.o)
 .note.GNU-stack
                0x0000000000000000        0x0 /home/vadim/projects/ipaugenblick/dpdk-1.6.0r2/x86_64-default-linuxapp-gcc/lib/librte_pmd_ixgbe.a(ixgbe_dcb.o)
 .note.GNU-stack
                0x0000000000000000        0x0 /home/vadim/projects/ipaugenblick/dpdk-1.6.0r2/x86_64-default-linuxapp-gcc/lib/librte_pmd_ixgbe.a(ixgbe_dcb_82599.o)
 .note.GNU-stack
                0x0000000000000000        0x0 /home/vadim/projects/ipaugenblick/dpdk-1.6.0r2/x86_64-default-linuxapp-gcc/lib/librte_pmd_ixgbe.a(ixgbe_dcb_82598.o)
 .note.GNU-stack
                0x0000000000000000        0x0 /home/vadim/projects/ipaugenblick/dpdk-1.6.0r2/x86_64-default-linuxapp-gcc/lib/librte_pmd_ixgbe.a(ixgbe_mbx.o)
 .note.GNU-stack
                0x0000000000000000        0x0 /home/vadim/projects/ipaugenblick/dpdk-1.6.0r2/x86_64-default-linuxapp-gcc/lib/librte_pmd_ixgbe.a(ixgbe_rxtx.o)
 .note.GNU-stack
                0x0000000000000000        0x0 /home/vadim/projects/ipaugenblick/dpdk-1.6.0r2/x86_64-default-linuxapp-gcc/lib/librte_pmd_ixgbe.a(ixgbe_ethdev.o)
 .note.GNU-stack
                0x0000000000000000        0x0 /home/vadim/projects/ipaugenblick/dpdk-1.6.0r2/x86_64-default-linuxapp-gcc/lib/librte_pmd_ixgbe.a(ixgbe_fdir.o)
 .note.GNU-stack
                0x0000000000000000        0x0 /home/vadim/projects/ipaugenblick/dpdk-1.6.0r2/x86_64-default-linuxapp-gcc/lib/librte_pmd_ixgbe.a(ixgbe_pf.o)
 .note.GNU-stack
                0x0000000000000000        0x0 /home/vadim/projects/ipaugenblick/dpdk-1.6.0r2/x86_64-default-linuxapp-gcc/lib/librte_pmd_virtio_uio.a(virtqueue.o)
 .note.GNU-stack
                0x0000000000000000        0x0 /home/vadim/projects/ipaugenblick/dpdk-1.6.0r2/x86_64-default-linuxapp-gcc/lib/librte_pmd_virtio_uio.a(virtio_pci.o)
 .note.GNU-stack
                0x0000000000000000        0x0 /home/vadim/projects/ipaugenblick/dpdk-1.6.0r2/x86_64-default-linuxapp-gcc/lib/librte_pmd_virtio_uio.a(virtio_rxtx.o)
 .note.GNU-stack
                0x0000000000000000        0x0 /home/vadim/projects/ipaugenblick/dpdk-1.6.0r2/x86_64-default-linuxapp-gcc/lib/librte_pmd_virtio_uio.a(virtio_ethdev.o)
 .note.GNU-stack
                0x0000000000000000        0x0 /home/vadim/projects/ipaugenblick/dpdk-1.6.0r2/x86_64-default-linuxapp-gcc/lib/librte_pmd_vmxnet3_uio.a(vmxnet3_rxtx.o)
 .note.GNU-stack
                0x0000000000000000        0x0 /home/vadim/projects/ipaugenblick/dpdk-1.6.0r2/x86_64-default-linuxapp-gcc/lib/librte_pmd_vmxnet3_uio.a(vmxnet3_ethdev.o)
 .note.GNU-stack
                0x0000000000000000        0x0 /home/vadim/projects/ipaugenblick/dpdk-1.6.0r2/x86_64-default-linuxapp-gcc/lib/librte_timer.a(rte_timer.o)
 .note.GNU-stack
                0x0000000000000000        0x0 /home/vadim/projects/ipaugenblick/dpdk-1.6.0r2/x86_64-default-linuxapp-gcc/lib/librte_hash.a(rte_hash.o)
 .note.GNU-stack
                0x0000000000000000        0x0 /home/vadim/projects/ipaugenblick/dpdk-1.6.0r2/x86_64-default-linuxapp-gcc/lib/librte_hash.a(rte_fbk_hash.o)
 .note.GNU-stack
                0x0000000000000000        0x0 /home/vadim/projects/ipaugenblick/dpdk-1.6.0r2/x86_64-default-linuxapp-gcc/lib/librte_lpm.a(rte_lpm.o)
 .note.GNU-stack
                0x0000000000000000        0x0 /home/vadim/projects/ipaugenblick/dpdk-1.6.0r2/x86_64-default-linuxapp-gcc/lib/librte_lpm.a(rte_lpm6.o)
 .note.GNU-stack
                0x0000000000000000        0x0 /home/vadim/projects/ipaugenblick/dpdk-1.6.0r2/x86_64-default-linuxapp-gcc/lib/librte_power.a(rte_power.o)
 .note.GNU-stack
                0x0000000000000000        0x0 /home/vadim/projects/ipaugenblick/dpdk-1.6.0r2/x86_64-default-linuxapp-gcc/lib/librte_meter.a(rte_meter.o)
 .note.GNU-stack
                0x0000000000000000        0x0 /home/vadim/projects/ipaugenblick/dpdk-1.6.0r2/x86_64-default-linuxapp-gcc/lib/librte_sched.a(rte_sched.o)
 .note.GNU-stack
                0x0000000000000000        0x0 /home/vadim/projects/ipaugenblick/dpdk-1.6.0r2/x86_64-default-linuxapp-gcc/lib/librte_sched.a(rte_red.o)
 .note.GNU-stack
                0x0000000000000000        0x0 /home/vadim/projects/ipaugenblick/dpdk-1.6.0r2/x86_64-default-linuxapp-gcc/lib/librte_sched.a(rte_approx.o)
 .note.GNU-stack
                0x0000000000000000        0x0 /home/vadim/projects/ipaugenblick/dpdk-1.6.0r2/x86_64-default-linuxapp-gcc/lib/librte_kvargs.a(rte_kvargs.o)
 .note.GNU-stack
                0x0000000000000000        0x0 /home/vadim/projects/ipaugenblick/dpdk-1.6.0r2/x86_64-default-linuxapp-gcc/lib/librte_mbuf.a(rte_mbuf.o)
 .note.GNU-stack
                0x0000000000000000        0x0 /home/vadim/projects/ipaugenblick/dpdk-1.6.0r2/x86_64-default-linuxapp-gcc/lib/libethdev.a(rte_ethdev.o)
 .note.GNU-stack
                0x0000000000000000        0x0 /home/vadim/projects/ipaugenblick/dpdk-1.6.0r2/x86_64-default-linuxapp-gcc/lib/librte_pmd_ring.a(rte_eth_ring.o)
 .note.GNU-stack
                0x0000000000000000        0x0 /home/vadim/projects/ipaugenblick/dpdk-1.6.0r2/x86_64-default-linuxapp-gcc/lib/librte_malloc.a(rte_malloc.o)
 .note.GNU-stack
                0x0000000000000000        0x0 /home/vadim/projects/ipaugenblick/dpdk-1.6.0r2/x86_64-default-linuxapp-gcc/lib/librte_malloc.a(malloc_elem.o)
 .note.GNU-stack
                0x0000000000000000        0x0 /home/vadim/projects/ipaugenblick/dpdk-1.6.0r2/x86_64-default-linuxapp-gcc/lib/librte_malloc.a(malloc_heap.o)
 .note.GNU-stack
                0x0000000000000000        0x0 /home/vadim/projects/ipaugenblick/dpdk-1.6.0r2/x86_64-default-linuxapp-gcc/lib/librte_mempool.a(rte_mempool.o)
 .note.GNU-stack
                0x0000000000000000        0x0 /home/vadim/projects/ipaugenblick/dpdk-1.6.0r2/x86_64-default-linuxapp-gcc/lib/librte_ring.a(rte_ring.o)
 .note.GNU-stack
                0x0000000000000000        0x0 /home/vadim/projects/ipaugenblick/dpdk-1.6.0r2/x86_64-default-linuxapp-gcc/lib/librte_eal.a(eal.o)
 .note.GNU-stack
                0x0000000000000000        0x0 /home/vadim/projects/ipaugenblick/dpdk-1.6.0r2/x86_64-default-linuxapp-gcc/lib/librte_eal.a(eal_hugepage_info.o)
 .note.GNU-stack
                0x0000000000000000        0x0 /home/vadim/projects/ipaugenblick/dpdk-1.6.0r2/x86_64-default-linuxapp-gcc/lib/librte_eal.a(eal_memory.o)
 .note.GNU-stack
                0x0000000000000000        0x0 /home/vadim/projects/ipaugenblick/dpdk-1.6.0r2/x86_64-default-linuxapp-gcc/lib/librte_eal.a(eal_thread.o)
 .note.GNU-stack
                0x0000000000000000        0x0 /home/vadim/projects/ipaugenblick/dpdk-1.6.0r2/x86_64-default-linuxapp-gcc/lib/librte_eal.a(eal_log.o)
 .note.GNU-stack
                0x0000000000000000        0x0 /home/vadim/projects/ipaugenblick/dpdk-1.6.0r2/x86_64-default-linuxapp-gcc/lib/librte_eal.a(eal_pci.o)
 .note.GNU-stack
                0x0000000000000000        0x0 /home/vadim/projects/ipaugenblick/dpdk-1.6.0r2/x86_64-default-linuxapp-gcc/lib/librte_eal.a(eal_debug.o)
 .note.GNU-stack
                0x0000000000000000        0x0 /home/vadim/projects/ipaugenblick/dpdk-1.6.0r2/x86_64-default-linuxapp-gcc/lib/librte_eal.a(eal_lcore.o)
 .note.GNU-stack
                0x0000000000000000        0x0 /home/vadim/projects/ipaugenblick/dpdk-1.6.0r2/x86_64-default-linuxapp-gcc/lib/librte_eal.a(eal_timer.o)
 .note.GNU-stack
                0x0000000000000000        0x0 /home/vadim/projects/ipaugenblick/dpdk-1.6.0r2/x86_64-default-linuxapp-gcc/lib/librte_eal.a(eal_interrupts.o)
 .note.GNU-stack
                0x0000000000000000        0x0 /home/vadim/projects/ipaugenblick/dpdk-1.6.0r2/x86_64-default-linuxapp-gcc/lib/librte_eal.a(eal_alarm.o)
 .note.GNU-stack
                0x0000000000000000        0x0 /home/vadim/projects/ipaugenblick/dpdk-1.6.0r2/x86_64-default-linuxapp-gcc/lib/librte_eal.a(eal_common_memzone.o)
 .note.GNU-stack
                0x0000000000000000        0x0 /home/vadim/projects/ipaugenblick/dpdk-1.6.0r2/x86_64-default-linuxapp-gcc/lib/librte_eal.a(eal_common_log.o)
 .note.GNU-stack
                0x0000000000000000        0x0 /home/vadim/projects/ipaugenblick/dpdk-1.6.0r2/x86_64-default-linuxapp-gcc/lib/librte_eal.a(eal_common_launch.o)
 .note.GNU-stack
                0x0000000000000000        0x0 /home/vadim/projects/ipaugenblick/dpdk-1.6.0r2/x86_64-default-linuxapp-gcc/lib/librte_eal.a(eal_common_pci.o)
 .note.GNU-stack
                0x0000000000000000        0x0 /home/vadim/projects/ipaugenblick/dpdk-1.6.0r2/x86_64-default-linuxapp-gcc/lib/librte_eal.a(eal_common_memory.o)
 .note.GNU-stack
                0x0000000000000000        0x0 /home/vadim/projects/ipaugenblick/dpdk-1.6.0r2/x86_64-default-linuxapp-gcc/lib/librte_eal.a(eal_common_tailqs.o)
 .note.GNU-stack
                0x0000000000000000        0x0 /home/vadim/projects/ipaugenblick/dpdk-1.6.0r2/x86_64-default-linuxapp-gcc/lib/librte_eal.a(eal_common_errno.o)
 .note.GNU-stack
                0x0000000000000000        0x0 /home/vadim/projects/ipaugenblick/dpdk-1.6.0r2/x86_64-default-linuxapp-gcc/lib/librte_eal.a(eal_common_cpuflags.o)
 .note.GNU-stack
                0x0000000000000000        0x0 /home/vadim/projects/ipaugenblick/dpdk-1.6.0r2/x86_64-default-linuxapp-gcc/lib/librte_eal.a(eal_common_hexdump.o)
 .note.GNU-stack
                0x0000000000000000        0x0 /home/vadim/projects/ipaugenblick/dpdk-1.6.0r2/x86_64-default-linuxapp-gcc/lib/librte_eal.a(eal_common_devargs.o)
 .note.GNU-stack
                0x0000000000000000        0x0 /home/vadim/projects/ipaugenblick/dpdk-1.6.0r2/x86_64-default-linuxapp-gcc/lib/librte_eal.a(eal_common_vdev.o)
 .note.GNU-stack
                0x0000000000000000        0x0 /home/vadim/projects/ipaugenblick/dpdk-1.6.0r2/x86_64-default-linuxapp-gcc/lib/librte_cmdline.a(cmdline.o)
 .note.GNU-stack
                0x0000000000000000        0x0 /home/vadim/projects/ipaugenblick/dpdk-1.6.0r2/x86_64-default-linuxapp-gcc/lib/librte_cmdline.a(cmdline_cirbuf.o)
 .note.GNU-stack
                0x0000000000000000        0x0 /home/vadim/projects/ipaugenblick/dpdk-1.6.0r2/x86_64-default-linuxapp-gcc/lib/librte_cmdline.a(cmdline_parse.o)
 .note.GNU-stack
                0x0000000000000000        0x0 /home/vadim/projects/ipaugenblick/dpdk-1.6.0r2/x86_64-default-linuxapp-gcc/lib/librte_cmdline.a(cmdline_parse_etheraddr.o)
 .note.GNU-stack
                0x0000000000000000        0x0 /home/vadim/projects/ipaugenblick/dpdk-1.6.0r2/x86_64-default-linuxapp-gcc/lib/librte_cmdline.a(cmdline_parse_ipaddr.o)
 .note.GNU-stack
                0x0000000000000000        0x0 /home/vadim/projects/ipaugenblick/dpdk-1.6.0r2/x86_64-default-linuxapp-gcc/lib/librte_cmdline.a(cmdline_parse_num.o)
 .note.GNU-stack
                0x0000000000000000        0x0 /home/vadim/projects/ipaugenblick/dpdk-1.6.0r2/x86_64-default-linuxapp-gcc/lib/librte_cmdline.a(cmdline_parse_string.o)
 .note.GNU-stack
                0x0000000000000000        0x0 /home/vadim/projects/ipaugenblick/dpdk-1.6.0r2/x86_64-default-linuxapp-gcc/lib/librte_cmdline.a(cmdline_rdline.o)
 .note.GNU-stack
                0x0000000000000000        0x0 /home/vadim/projects/ipaugenblick/dpdk-1.6.0r2/x86_64-default-linuxapp-gcc/lib/librte_cmdline.a(cmdline_vt100.o)
 .note.GNU-stack
                0x0000000000000000        0x0 /home/vadim/projects/ipaugenblick/dpdk-1.6.0r2/x86_64-default-linuxapp-gcc/lib/librte_cmdline.a(cmdline_socket.o)
 .note.GNU-stack
                0x0000000000000000        0x0 /home/vadim/projects/ipaugenblick/dpdk-1.6.0r2/x86_64-default-linuxapp-gcc/lib/librte_cmdline.a(cmdline_parse_portlist.o)
 .note.GNU-stack
                0x0000000000000000        0x0 /usr/lib/x86_64-linux-gnu/libc_nonshared.a(elf-init.oS)
 .note.GNU-stack
                0x0000000000000000        0x0 /usr/lib/gcc/x86_64-linux-gnu/4.6/crtend.o
 .note.GNU-stack
                0x0000000000000000        0x0 /usr/lib/gcc/x86_64-linux-gnu/4.6/../../../x86_64-linux-gnu/crtn.o
 .gnu_debuglink
                0x0000000000000000        0xc /usr/lib/gcc/x86_64-linux-gnu/4.6/../../../x86_64-linux-gnu/crtn.o

Memory Configuration

Name             Origin             Length             Attributes
*default*        0x0000000000000000 0xffffffffffffffff

Linker script and memory map

LOAD /usr/lib/gcc/x86_64-linux-gnu/4.6/../../../x86_64-linux-gnu/crt1.o
LOAD /usr/lib/gcc/x86_64-linux-gnu/4.6/../../../x86_64-linux-gnu/crti.o
LOAD /usr/lib/gcc/x86_64-linux-gnu/4.6/crtbegin.o
LOAD testpmd.o
LOAD parameters.o
LOAD cmdline.o
LOAD config.o
LOAD iofwd.o
LOAD macfwd.o
LOAD macfwd-retry.o
LOAD rxonly.o
LOAD txonly.o
LOAD csumonly.o
LOAD mempool_anon.o
LOAD /home/vadim/projects/ipaugenblick/dpdk-1.6.0r2/x86_64-default-linuxapp-gcc/lib/librte_kni.a
LOAD /home/vadim/projects/ipaugenblick/dpdk-1.6.0r2/x86_64-default-linuxapp-gcc/lib/librte_pmd_e1000.a
LOAD /home/vadim/projects/ipaugenblick/dpdk-1.6.0r2/x86_64-default-linuxapp-gcc/lib/librte_pmd_ixgbe.a
LOAD /home/vadim/projects/ipaugenblick/dpdk-1.6.0r2/x86_64-default-linuxapp-gcc/lib/librte_pmd_virtio_uio.a
LOAD /home/vadim/projects/ipaugenblick/dpdk-1.6.0r2/x86_64-default-linuxapp-gcc/lib/librte_pmd_vmxnet3_uio.a
LOAD /home/vadim/projects/ipaugenblick/dpdk-1.6.0r2/x86_64-default-linuxapp-gcc/lib/librte_timer.a
LOAD /home/vadim/projects/ipaugenblick/dpdk-1.6.0r2/x86_64-default-linuxapp-gcc/lib/librte_hash.a
LOAD /home/vadim/projects/ipaugenblick/dpdk-1.6.0r2/x86_64-default-linuxapp-gcc/lib/librte_lpm.a
LOAD /home/vadim/projects/ipaugenblick/dpdk-1.6.0r2/x86_64-default-linuxapp-gcc/lib/librte_power.a
LOAD /home/vadim/projects/ipaugenblick/dpdk-1.6.0r2/x86_64-default-linuxapp-gcc/lib/librte_meter.a
LOAD /home/vadim/projects/ipaugenblick/dpdk-1.6.0r2/x86_64-default-linuxapp-gcc/lib/librte_sched.a
LOAD /usr/lib/gcc/x86_64-linux-gnu/4.6/../../../x86_64-linux-gnu/libm.so
LOAD /usr/lib/gcc/x86_64-linux-gnu/4.6/../../../x86_64-linux-gnu/librt.so
START GROUP
LOAD /home/vadim/projects/ipaugenblick/dpdk-1.6.0r2/x86_64-default-linuxapp-gcc/lib/librte_kvargs.a
LOAD /home/vadim/projects/ipaugenblick/dpdk-1.6.0r2/x86_64-default-linuxapp-gcc/lib/librte_mbuf.a
LOAD /home/vadim/projects/ipaugenblick/dpdk-1.6.0r2/x86_64-default-linuxapp-gcc/lib/libethdev.a
LOAD /home/vadim/projects/ipaugenblick/dpdk-1.6.0r2/x86_64-default-linuxapp-gcc/lib/librte_pmd_ring.a
LOAD /home/vadim/projects/ipaugenblick/dpdk-1.6.0r2/x86_64-default-linuxapp-gcc/lib/librte_malloc.a
LOAD /home/vadim/projects/ipaugenblick/dpdk-1.6.0r2/x86_64-default-linuxapp-gcc/lib/librte_mempool.a
LOAD /home/vadim/projects/ipaugenblick/dpdk-1.6.0r2/x86_64-default-linuxapp-gcc/lib/librte_ring.a
LOAD /home/vadim/projects/ipaugenblick/dpdk-1.6.0r2/x86_64-default-linuxapp-gcc/lib/librte_eal.a
LOAD /home/vadim/projects/ipaugenblick/dpdk-1.6.0r2/x86_64-default-linuxapp-gcc/lib/librte_cmdline.a
LOAD /usr/lib/gcc/x86_64-linux-gnu/4.6/../../../x86_64-linux-gnu/librt.so
LOAD /usr/lib/gcc/x86_64-linux-gnu/4.6/../../../x86_64-linux-gnu/libm.so
LOAD /usr/lib/gcc/x86_64-linux-gnu/4.6/../../../x86_64-linux-gnu/libdl.so
END GROUP
LOAD /usr/lib/gcc/x86_64-linux-gnu/4.6/libgcc.a
LOAD /usr/lib/gcc/x86_64-linux-gnu/4.6/libgcc_s.so
LOAD /usr/lib/gcc/x86_64-linux-gnu/4.6/../../../x86_64-linux-gnu/libpthread.so
START GROUP
LOAD /lib/x86_64-linux-gnu/libpthread.so.0
LOAD /usr/lib/x86_64-linux-gnu/libpthread_nonshared.a
END GROUP
LOAD /usr/lib/gcc/x86_64-linux-gnu/4.6/../../../x86_64-linux-gnu/libc.so
START GROUP
LOAD /lib/x86_64-linux-gnu/libc.so.6
LOAD /usr/lib/x86_64-linux-gnu/libc_nonshared.a
LOAD /lib/x86_64-linux-gnu/ld-linux-x86-64.so.2
END GROUP
LOAD /usr/lib/gcc/x86_64-linux-gnu/4.6/libgcc.a
LOAD /usr/lib/gcc/x86_64-linux-gnu/4.6/libgcc_s.so
LOAD /usr/lib/gcc/x86_64-linux-gnu/4.6/crtend.o
LOAD /usr/lib/gcc/x86_64-linux-gnu/4.6/../../../x86_64-linux-gnu/crtn.o
                0x0000000000400000                PROVIDE (__executable_start, 0x400000)
                0x0000000000400270                . = (0x400000 + SIZEOF_HEADERS)

.interp         0x0000000000400270       0x1c
 *(.interp)
 .interp        0x0000000000400270       0x1c /usr/lib/gcc/x86_64-linux-gnu/4.6/../../../x86_64-linux-gnu/crt1.o

.note.ABI-tag   0x000000000040028c       0x20
 .note.ABI-tag  0x000000000040028c       0x20 /usr/lib/gcc/x86_64-linux-gnu/4.6/../../../x86_64-linux-gnu/crt1.o

.note.gnu.build-id
                0x00000000004002ac       0x24
 *(.note.gnu.build-id)
 .note.gnu.build-id
                0x00000000004002ac       0x24 /usr/lib/gcc/x86_64-linux-gnu/4.6/../../../x86_64-linux-gnu/crt1.o

.hash
 *(.hash)

.gnu.hash       0x00000000004002d0     0x3138
 *(.gnu.hash)
 .gnu.hash      0x00000000004002d0     0x3138 /usr/lib/gcc/x86_64-linux-gnu/4.6/../../../x86_64-linux-gnu/crt1.o

.dynsym         0x0000000000403408     0xa0e0
 *(.dynsym)
 .dynsym        0x0000000000403408     0xa0e0 /usr/lib/gcc/x86_64-linux-gnu/4.6/../../../x86_64-linux-gnu/crt1.o

.dynstr         0x000000000040d4e8     0x9316
 *(.dynstr)
 .dynstr        0x000000000040d4e8     0x9316 /usr/lib/gcc/x86_64-linux-gnu/4.6/../../../x86_64-linux-gnu/crt1.o

.gnu.version    0x00000000004167fe      0xd68
 *(.gnu.version)
 .gnu.version   0x00000000004167fe      0xd68 /usr/lib/gcc/x86_64-linux-gnu/4.6/../../../x86_64-linux-gnu/crt1.o

.gnu.version_d  0x0000000000417568        0x0
 *(.gnu.version_d)
 .gnu.version_d
                0x0000000000000000        0x0 /usr/lib/gcc/x86_64-linux-gnu/4.6/../../../x86_64-linux-gnu/crt1.o

.gnu.version_r  0x0000000000417568      0x100
 *(.gnu.version_r)
 .gnu.version_r
                0x0000000000417568      0x100 /usr/lib/gcc/x86_64-linux-gnu/4.6/../../../x86_64-linux-gnu/crt1.o

.rela.dyn       0x0000000000417668       0xc0
 *(.rela.init)
 *(.rela.text .rela.text.* .rela.gnu.linkonce.t.*)
 .rela.text     0x0000000000000000        0x0 /usr/lib/gcc/x86_64-linux-gnu/4.6/../../../x86_64-linux-gnu/crt1.o
 .rela.text.startup
                0x0000000000000000        0x0 /usr/lib/gcc/x86_64-linux-gnu/4.6/../../../x86_64-linux-gnu/crt1.o
 .rela.text.unlikely
                0x0000000000000000        0x0 /usr/lib/gcc/x86_64-linux-gnu/4.6/../../../x86_64-linux-gnu/crt1.o
 *(.rela.fini)
 *(.rela.rodata .rela.rodata.* .rela.gnu.linkonce.r.*)
 *(.rela.data .rela.data.* .rela.gnu.linkonce.d.*)
 .rela.data     0x0000000000000000        0x0 /usr/lib/gcc/x86_64-linux-gnu/4.6/../../../x86_64-linux-gnu/crt1.o
 *(.rela.tdata .rela.tdata.* .rela.gnu.linkonce.td.*)
 *(.rela.tbss .rela.tbss.* .rela.gnu.linkonce.tb.*)
 *(.rela.ctors)
 *(.rela.dtors)
 *(.rela.got)
 .rela.got      0x0000000000417668       0x48 /usr/lib/gcc/x86_64-linux-gnu/4.6/../../../x86_64-linux-gnu/crt1.o
 *(.rela.bss .rela.bss.* .rela.gnu.linkonce.b.*)
 .rela.bss      0x00000000004176b0       0x78 /usr/lib/gcc/x86_64-linux-gnu/4.6/../../../x86_64-linux-gnu/crt1.o
 *(.rela.ldata .rela.ldata.* .rela.gnu.linkonce.l.*)
 *(.rela.lbss .rela.lbss.* .rela.gnu.linkonce.lb.*)
 *(.rela.lrodata .rela.lrodata.* .rela.gnu.linkonce.lr.*)
 *(.rela.ifunc)

.rela.plt       0x0000000000417728      0xa50
 *(.rela.plt)
 .rela.plt      0x0000000000417728      0xa50 /usr/lib/gcc/x86_64-linux-gnu/4.6/../../../x86_64-linux-gnu/crt1.o
                0x0000000000418178                PROVIDE (__rela_iplt_start, .)
 *(.rela.iplt)
 .rela.iplt     0x0000000000000000        0x0 /usr/lib/gcc/x86_64-linux-gnu/4.6/../../../x86_64-linux-gnu/crt1.o
                0x0000000000418178                PROVIDE (__rela_iplt_end, .)

.init           0x0000000000418178       0x18
 *(.init)
 .init          0x0000000000418178        0x9 /usr/lib/gcc/x86_64-linux-gnu/4.6/../../../x86_64-linux-gnu/crti.o
                0x0000000000418178                _init
 .init          0x0000000000418181        0x5 /usr/lib/gcc/x86_64-linux-gnu/4.6/crtbegin.o
 .init          0x0000000000418186        0x5 /usr/lib/gcc/x86_64-linux-gnu/4.6/crtend.o
 .init          0x000000000041818b        0x5 /usr/lib/gcc/x86_64-linux-gnu/4.6/../../../x86_64-linux-gnu/crtn.o

.plt            0x0000000000418190      0x6f0
 *(.plt)
 .plt           0x0000000000418190      0x6f0 /usr/lib/gcc/x86_64-linux-gnu/4.6/../../../x86_64-linux-gnu/crt1.o
                0x00000000004181a0                getenv@@GLIBC_2.2.5
                0x00000000004181b0                free@@GLIBC_2.2.5
                0x00000000004181c0                putchar@@GLIBC_2.2.5
                0x00000000004181d0                pthread_create@@GLIBC_2.2.5
                0x00000000004181e0                __vfprintf_chk@@GLIBC_2.3.4
                0x00000000004181f0                abort@@GLIBC_2.2.5
                0x0000000000418200                __errno_location@@GLIBC_2.2.5
                0x0000000000418210                mlock@@GLIBC_2.2.5
                0x0000000000418220                unlink@@GLIBC_2.2.5
                0x0000000000418230                strncpy@@GLIBC_2.2.5
                0x0000000000418240                strncmp@@GLIBC_2.2.5
                0x0000000000418250                fopencookie@@GLIBC_2.2.5
                0x0000000000418260                __read_chk@@GLIBC_2.4
                0x0000000000418270                unlinkat@@GLIBC_2.4
                0x0000000000418280                puts@@GLIBC_2.2.5
                0x0000000000418290                backtrace_symbols@@GLIBC_2.2.5
                0x00000000004182a0                __xpg_strerror_r@@GLIBC_2.3.4
                0x00000000004182b0                fcntl@@GLIBC_2.2.5
                0x00000000004182c0                write@@GLIBC_2.2.5
                0x00000000004182d0                fclose@@GLIBC_2.2.5
                0x00000000004182e0                opendir@@GLIBC_2.2.5
                0x00000000004182f0                strlen@@GLIBC_2.2.5
                0x0000000000418300                backtrace@@GLIBC_2.2.5
                0x0000000000418310                openat@@GLIBC_2.4
                0x0000000000418320                __stack_chk_fail@@GLIBC_2.4
                0x0000000000418330                getuid@@GLIBC_2.2.5
                0x0000000000418340                mmap@@GLIBC_2.2.5
                0x0000000000418350                getopt_long@@GLIBC_2.2.5
                0x0000000000418360                setbuf@@GLIBC_2.2.5
                0x0000000000418370                pthread_setaffinity_np@@GLIBC_2.3.4
                0x0000000000418380                strchr@@GLIBC_2.2.5
                0x0000000000418390                snprintf@@GLIBC_2.2.5
                0x00000000004183a0                nanosleep@@GLIBC_2.2.5
                0x00000000004183b0                strrchr@@GLIBC_2.2.5
                0x00000000004183c0                ftruncate@@GLIBC_2.2.5
                0x00000000004183d0                gettimeofday@@GLIBC_2.2.5
                0x00000000004183e0                iopl@@GLIBC_2.2.5
                0x00000000004183f0                fputs@@GLIBC_2.2.5
                0x0000000000418400                fnmatch@@GLIBC_2.2.5
                0x0000000000418410                memset@@GLIBC_2.2.5
                0x0000000000418420                fscanf@@GLIBC_2.2.5
                0x0000000000418430                ioctl@@GLIBC_2.2.5
                0x0000000000418440                index@@GLIBC_2.2.5
                0x0000000000418450                strnlen@@GLIBC_2.2.5
                0x0000000000418460                close@@GLIBC_2.2.5
                0x0000000000418470                pipe@@GLIBC_2.2.5
                0x0000000000418480                closedir@@GLIBC_2.2.5
                0x0000000000418490                epoll_ctl@@GLIBC_2.3.2
                0x00000000004184a0                __strdup@@GLIBC_2.2.5
                0x00000000004184b0                read@@GLIBC_2.2.5
                0x00000000004184c0                __libc_start_main@@GLIBC_2.2.5
                0x00000000004184d0                memcmp@@GLIBC_2.2.5
                0x00000000004184e0                fgets@@GLIBC_2.2.5
                0x00000000004184f0                strtoull@@GLIBC_2.2.5
                0x0000000000418500                calloc@@GLIBC_2.2.5
                0x0000000000418510                __vdprintf_chk@@GLIBC_2.8
                0x0000000000418520                __fxstat64@@GLIBC_2.2.5
                0x0000000000418530                strcmp@@GLIBC_2.2.5
                0x0000000000418540                dirfd@@GLIBC_2.2.5
                0x0000000000418550                __strndup@@GLIBC_2.2.5
                0x0000000000418560                __memcpy_chk@@GLIBC_2.3.4
                0x0000000000418570                fopen64@@GLIBC_2.2.5
                0x0000000000418580                timerfd_create@@GLIBC_2.8
                0x0000000000418590                strtol@@GLIBC_2.2.5
                0x00000000004185a0                memcpy@@GLIBC_2.14
                0x00000000004185b0                __xmknod@@GLIBC_2.2.5
                0x00000000004185c0                fileno@@GLIBC_2.2.5
                0x00000000004185d0                readdir@@GLIBC_2.2.5
                0x00000000004185e0                dlopen@@GLIBC_2.2.5
                0x00000000004185f0                mmap64@@GLIBC_2.2.5
                0x0000000000418600                malloc@@GLIBC_2.2.5
                0x0000000000418610                strncasecmp@@GLIBC_2.2.5
                0x0000000000418620                fflush@@GLIBC_2.2.5
                0x0000000000418630                __sched_cpufree@@GLIBC_2.7
                0x0000000000418640                clock_gettime@@GLIBC_2.2.5
                0x0000000000418650                lrand48@@GLIBC_2.2.5
                0x0000000000418660                fseek@@GLIBC_2.2.5
                0x0000000000418670                __sched_cpualloc@@GLIBC_2.7
                0x0000000000418680                __vsnprintf_chk@@GLIBC_2.3.4
                0x0000000000418690                srand48@@GLIBC_2.2.5
                0x00000000004186a0                munmap@@GLIBC_2.2.5
                0x00000000004186b0                ftruncate64@@GLIBC_2.2.5
                0x00000000004186c0                __printf_chk@@GLIBC_2.3.4
                0x00000000004186d0                epoll_wait@@GLIBC_2.3.2
                0x00000000004186e0                open64@@GLIBC_2.2.5
                0x00000000004186f0                __syslog_chk@@GLIBC_2.4
                0x0000000000418700                pthread_self@@GLIBC_2.2.5
                0x0000000000418710                tcgetattr@@GLIBC_2.2.5
                0x0000000000418720                tcsetattr@@GLIBC_2.2.5
                0x0000000000418730                open@@GLIBC_2.2.5
                0x0000000000418740                access@@GLIBC_2.2.5
                0x0000000000418750                fopen@@GLIBC_2.2.5
                0x0000000000418760                perror@@GLIBC_2.2.5
                0x0000000000418770                sysconf@@GLIBC_2.2.5
                0x0000000000418780                strtoul@@GLIBC_2.2.5
                0x0000000000418790                timerfd_settime@@GLIBC_2.8
                0x00000000004187a0                flock@@GLIBC_2.2.5
                0x00000000004187b0                pread@@GLIBC_2.2.5
                0x00000000004187c0                openlog@@GLIBC_2.2.5
                0x00000000004187d0                getpagesize@@GLIBC_2.2.5
                0x00000000004187e0                epoll_create@@GLIBC_2.3.2
                0x00000000004187f0                exit@@GLIBC_2.2.5
                0x0000000000418800                fwrite@@GLIBC_2.2.5
                0x0000000000418810                lseek64@@GLIBC_2.2.5
                0x0000000000418820                __fprintf_chk@@GLIBC_2.3.4
                0x0000000000418830                strerror@@GLIBC_2.2.5
                0x0000000000418840                sleep@@GLIBC_2.2.5
                0x0000000000418850                strstr@@GLIBC_2.2.5
                0x0000000000418860                dlerror@@GLIBC_2.2.5
                0x0000000000418870                __ctype_b_loc@@GLIBC_2.3
 *(.iplt)
 .iplt          0x0000000000000000        0x0 /usr/lib/gcc/x86_64-linux-gnu/4.6/../../../x86_64-linux-gnu/crt1.o

.text           0x0000000000418880    0x92008
 *(.text.unlikely .text.*_unlikely)
 .text.unlikely
                0x0000000000418880       0x17 /home/vadim/projects/ipaugenblick/dpdk-1.6.0r2/x86_64-default-linuxapp-gcc/lib/librte_kni.a(rte_kni.o)
 .text.unlikely
                0x0000000000418897      0x61f /home/vadim/projects/ipaugenblick/dpdk-1.6.0r2/x86_64-default-linuxapp-gcc/lib/librte_sched.a(rte_sched.o)
 .text.unlikely
                0x0000000000418eb6       0xc6 /home/vadim/projects/ipaugenblick/dpdk-1.6.0r2/x86_64-default-linuxapp-gcc/lib/librte_eal.a(eal_debug.o)
                0x0000000000418eb6                __rte_panic
 .text.unlikely
                0x0000000000418f7c       0x8a /home/vadim/projects/ipaugenblick/dpdk-1.6.0r2/x86_64-default-linuxapp-gcc/lib/librte_eal.a(eal_common_log.o)
                0x0000000000418f7c                rte_log
 *(.text.exit .text.exit.*)
 *(.text.startup .text.startup.*)
 *fill*         0x0000000000419006        0xa 90909090
 .text.startup  0x0000000000419010      0x6c8 testpmd.o
                0x0000000000419010                main
 *fill*         0x00000000004196d8        0x8 90909090
 .text.startup  0x00000000004196e0        0xa /home/vadim/projects/ipaugenblick/dpdk-1.6.0r2/x86_64-default-linuxapp-gcc/lib/librte_pmd_ring.a(rte_eth_ring.o)
 *fill*         0x00000000004196ea        0x6 90909090
 .text.startup  0x00000000004196f0      0x1dc /home/vadim/projects/ipaugenblick/dpdk-1.6.0r2/x86_64-default-linuxapp-gcc/lib/librte_eal.a(eal_common_cpuflags.o)
                0x00000000004196f0                rte_cpu_check_supported
 *(.text.hot .text.hot.*)
 *(.text .stub .text.* .gnu.linkonce.t.*)
 .text          0x00000000004198cc       0x2c /usr/lib/gcc/x86_64-linux-gnu/4.6/../../../x86_64-linux-gnu/crt1.o
                0x00000000004198cc                _start
 .text          0x00000000004198f8       0x17 /usr/lib/gcc/x86_64-linux-gnu/4.6/../../../x86_64-linux-gnu/crti.o
 *fill*         0x000000000041990f        0x1 90909090
 .text          0x0000000000419910       0x92 /usr/lib/gcc/x86_64-linux-gnu/4.6/crtbegin.o
 *fill*         0x00000000004199a2        0xe 90909090
 .text          0x00000000004199b0     0x315d testpmd.o
                0x000000000041a9a0                set_def_fwd_config
                0x000000000041aab0                init_fwd_streams
                0x000000000041ad80                start_packet_forwarding
                0x000000000041b040                stop_packet_forwarding
                0x000000000041bd40                start_port
                0x000000000041c250                stop_port
                0x000000000041c3a0                close_port
                0x000000000041c4b0                all_ports_stopped
                0x000000000041c510                pmd_test_exit
                0x000000000041c580                init_port_config
                0x000000000041c6e0                init_port_dcb_config
 *fill*         0x000000000041cb0d        0x3 90909090
 .text          0x000000000041cb10     0x2155 parameters.o
                0x000000000041d1b0                launch_args_parse
 *fill*         0x000000000041ec65        0xb 90909090
 .text          0x000000000041ec70     0x3312 cmdline.o
                0x0000000000421f50                prompt
 *fill*         0x0000000000421f82        0xe 90909090
 .text          0x0000000000421f90     0x386e config.o
                0x0000000000422890                nic_stats_display
                0x0000000000422fb0                nic_stats_clear
                0x0000000000423000                nic_stats_mapping_display
                0x00000000004231a0                port_infos_display
                0x0000000000423480                port_reg_bit_display
                0x00000000004235b0                port_reg_bit_field_display
                0x0000000000423790                port_reg_display
                0x0000000000423850                port_reg_bit_set
                0x00000000004239a0                port_reg_bit_field_set
                0x0000000000423b30                port_reg_set
                0x0000000000423bf0                rx_ring_desc_display
                0x0000000000423d80                tx_ring_desc_display
                0x0000000000423f10                fwd_lcores_config_display
                0x0000000000423f70                rxtx_config_display
                0x00000000004240d0                port_rss_reta_info
                0x00000000004241f0                fwd_config_setup
                0x0000000000424230                fwd_config_display
                0x00000000004244e0                set_fwd_lcores_list
                0x0000000000424630                set_fwd_lcores_mask
                0x0000000000424690                set_fwd_lcores_number
                0x00000000004246e0                set_fwd_ports_list
                0x00000000004247b0                set_fwd_ports_mask
                0x00000000004248c0                set_fwd_ports_number
                0x0000000000424910                set_nb_pkt_per_burst
                0x0000000000424960                set_tx_pkt_segments
                0x0000000000424ac0                set_pkt_forwarding_mode
                0x0000000000424b40                set_verbose_level
                0x0000000000424b70                vlan_extend_set
                0x0000000000424c10                rx_vlan_strip_set
                0x0000000000424cb0                rx_vlan_strip_set_on_queue
                0x0000000000424d60                rx_vlan_filter_set
                0x0000000000424e00                rx_vft_set
                0x0000000000424ee0                rx_vlan_all_filter_set
                0x0000000000424fa0                vlan_tpid_set
                0x0000000000425030                tx_vlan_set
                0x00000000004250b0                tx_vlan_reset
                0x0000000000425100                set_qmap
                0x00000000004252e0                tx_cksum_set
                0x0000000000425340                fdir_add_signature_filter
                0x00000000004253b0                fdir_update_signature_filter
                0x0000000000425420                fdir_remove_signature_filter
                0x0000000000425480                fdir_get_infos
                0x0000000000425550                fdir_add_perfect_filter
                0x00000000004255c0                fdir_update_perfect_filter
                0x0000000000425630                fdir_remove_perfect_filter
                0x00000000004256a0                fdir_set_masks
                0x0000000000425700                set_vf_traffic
                0x0000000000425780                set_vf_rx_vlan
 *fill*         0x00000000004257fe        0x2 90909090
 .text          0x0000000000425800      0x83f iofwd.o
 *fill*         0x000000000042603f        0x1 90909090
 .text          0x0000000000426040      0x805 macfwd.o
 *fill*         0x0000000000426845        0xb 90909090
 .text          0x0000000000426850      0x82d macfwd-retry.o
 *fill*         0x000000000042707d        0x3 90909090
 .text          0x0000000000427080      0xa67 rxonly.o
 *fill*         0x0000000000427ae7        0x9 90909090
 .text          0x0000000000427af0     0x1935 txonly.o
 *fill*         0x0000000000429425        0xb 90909090
 .text          0x0000000000429430     0x13de csumonly.o
 *fill*         0x000000000042a80e        0x2 90909090
 .text          0x000000000042a810      0x4b9 mempool_anon.o
                0x000000000042a810                mempool_anon_create
 *fill*         0x000000000042acc9        0x7 90909090
 .text          0x000000000042acd0     0x1d38 /home/vadim/projects/ipaugenblick/dpdk-1.6.0r2/x86_64-default-linuxapp-gcc/lib/librte_kni.a(rte_kni.o)
                0x000000000042b920                rte_kni_alloc
                0x000000000042c120                rte_kni_create
                0x000000000042c250                rte_kni_release
                0x000000000042c480                rte_kni_handle_request
                0x000000000042c5f0                rte_kni_tx_burst
                0x000000000042c710                rte_kni_rx_burst
                0x000000000042c770                rte_kni_get_port_id
                0x000000000042c780                rte_kni_get
                0x000000000042c800                rte_kni_info_get
                0x000000000042c8a0                rte_kni_register_handlers
                0x000000000042c990                rte_kni_unregister_handlers
                0x000000000042c9e0                rte_kni_close
 *fill*         0x000000000042ca08        0x8 90909090
 .text          0x000000000042ca10     0x1ddf /home/vadim/projects/ipaugenblick/dpdk-1.6.0r2/x86_64-default-linuxapp-gcc/lib/librte_pmd_e1000.a(e1000_80003es2lan.o)
                0x000000000042e7d0                e1000_init_function_pointers_80003es2lan
 *fill*         0x000000000042e7ef        0x1 90909090
 .text          0x000000000042e7f0      0x9af /home/vadim/projects/ipaugenblick/dpdk-1.6.0r2/x86_64-default-linuxapp-gcc/lib/librte_pmd_e1000.a(e1000_82540.o)
                0x000000000042f180                e1000_init_function_pointers_82540
 *fill*         0x000000000042f19f        0x1 90909090
 .text          0x000000000042f1a0     0x1457 /home/vadim/projects/ipaugenblick/dpdk-1.6.0r2/x86_64-default-linuxapp-gcc/lib/librte_pmd_e1000.a(e1000_82541.o)
                0x00000000004305c0                e1000_init_function_pointers_82541
                0x00000000004305e0                e1000_init_script_state_82541
 *fill*         0x00000000004305f7        0x9 90909090
 .text          0x0000000000430600      0x8d6 /home/vadim/projects/ipaugenblick/dpdk-1.6.0r2/x86_64-default-linuxapp-gcc/lib/librte_pmd_e1000.a(e1000_82542.o)
                0x0000000000430c50                e1000_init_function_pointers_82542
                0x0000000000430c70                e1000_translate_register_82542
 *fill*         0x0000000000430ed6        0xa 90909090
 .text          0x0000000000430ee0     0x1bf1 /home/vadim/projects/ipaugenblick/dpdk-1.6.0r2/x86_64-default-linuxapp-gcc/lib/librte_pmd_e1000.a(e1000_82543.o)
                0x0000000000432930                e1000_init_function_pointers_82543
                0x0000000000432950                e1000_set_tbi_compatibility_82543
                0x0000000000432980                e1000_tbi_sbp_enabled_82543
                0x00000000004329a0                e1000_tbi_adjust_stats_82543
 *fill*         0x0000000000432ad1        0xf 90909090
 .text          0x0000000000432ae0     0x1e24 /home/vadim/projects/ipaugenblick/dpdk-1.6.0r2/x86_64-default-linuxapp-gcc/lib/librte_pmd_e1000.a(e1000_82571.o)
                0x0000000000434810                e1000_init_function_pointers_82571
                0x0000000000434830                e1000_check_phy_82574
                0x00000000004348b0                e1000_get_laa_state_82571
                0x00000000004348d0                e1000_set_laa_state_82571
 *fill*         0x0000000000434904        0xc 90909090
 .text          0x0000000000434910     0x3fb6 /home/vadim/projects/ipaugenblick/dpdk-1.6.0r2/x86_64-default-linuxapp-gcc/lib/librte_pmd_e1000.a(e1000_82575.o)
                0x0000000000434910                e1000_init_nvm_params_82575
                0x0000000000437780                e1000_init_function_pointers_82575
                0x00000000004377b0                e1000_rx_fifo_flush_82575
                0x0000000000437b30                e1000_vmdq_set_anti_spoofing_pf
                0x0000000000437b90                e1000_vmdq_set_loopback_pf
                0x0000000000437c00                e1000_vmdq_set_replication_pf
                0x0000000000437c30                e1000_rxpbs_adjust_82580
                0x0000000000437c50                e1000_read_emi_reg
                0x0000000000437cb0                e1000_set_eee_i350
                0x0000000000437d30                e1000_set_eee_i354
                0x0000000000437e90                e1000_get_eee_status_i354
                0x0000000000437ef0                e1000_set_i2c_bb
                0x0000000000437f20                e1000_i2c_bus_clear
                0x0000000000438270                e1000_write_i2c_byte_generic
                0x0000000000438370                e1000_read_i2c_byte_generic
 *fill*         0x00000000004388c6        0xa 90909090
 .text          0x00000000004388d0      0xf90 /home/vadim/projects/ipaugenblick/dpdk-1.6.0r2/x86_64-default-linuxapp-gcc/lib/librte_pmd_e1000.a(e1000_i210.o)
                0x00000000004388d0                e1000_read_nvm_srrd_i210
                0x0000000000438b00                e1000_validate_nvm_checksum_i210
                0x0000000000438cd0                e1000_write_nvm_srwr_i210
                0x0000000000439280                e1000_update_nvm_checksum_i210
                0x00000000004393e0                e1000_acquire_swfw_sync_i210
                0x0000000000439470                e1000_release_swfw_sync_i210
                0x00000000004394c0                e1000_read_invm_version
                0x0000000000439620                e1000_get_flash_presence_i210
                0x0000000000439640                e1000_update_flash_i210
                0x00000000004396c0                e1000_init_function_pointers_i210
                0x00000000004396e0                e1000_read_xmdio_reg
                0x00000000004397a0                e1000_write_xmdio_reg
 .text          0x0000000000439860      0xec2 /home/vadim/projects/ipaugenblick/dpdk-1.6.0r2/x86_64-default-linuxapp-gcc/lib/librte_pmd_e1000.a(e1000_api.o)
                0x0000000000439860                e1000_init_mac_params
                0x0000000000439880                e1000_init_nvm_params
                0x00000000004398a0                e1000_init_phy_params
                0x00000000004398c0                e1000_init_mbx_params
                0x00000000004398e0                e1000_set_mac_type
                0x0000000000439f70                e1000_setup_init_funcs
                0x000000000043a100                e1000_get_bus_info
                0x000000000043a120                e1000_clear_vfta
                0x000000000043a140                e1000_write_vfta
                0x000000000043a160                e1000_update_mc_addr_list
                0x000000000043a180                e1000_force_mac_fc
                0x000000000043a190                e1000_check_for_link
                0x000000000043a1b0                e1000_check_mng_mode
                0x000000000043a1d0                e1000_mng_write_dhcp_info
                0x000000000043a1e0                e1000_reset_hw
                0x000000000043a200                e1000_init_hw
                0x000000000043a220                e1000_setup_link
                0x000000000043a240                e1000_get_speed_and_duplex
                0x000000000043a260                e1000_setup_led
                0x000000000043a280                e1000_cleanup_led
                0x000000000043a2a0                e1000_blink_led
                0x000000000043a2c0                e1000_id_led_init
                0x000000000043a2e0                e1000_led_on
                0x000000000043a300                e1000_led_off
                0x000000000043a320                e1000_reset_adaptive
                0x000000000043a330                e1000_update_adaptive
                0x000000000043a340                e1000_disable_pcie_master
                0x000000000043a350                e1000_config_collision_dist
                0x000000000043a370                e1000_rar_set
                0x000000000043a390                e1000_validate_mdi_setting
                0x000000000043a3b0                e1000_hash_mc_addr
                0x000000000043a3c0                e1000_enable_tx_pkt_filtering
                0x000000000043a3d0                e1000_mng_host_if_write
                0x000000000043a3e0                e1000_mng_write_cmd_header
                0x000000000043a3f0                e1000_mng_enable_host_if
                0x000000000043a400                e1000_check_reset_block
                0x000000000043a420                e1000_read_phy_reg
                0x000000000043a440                e1000_write_phy_reg
                0x000000000043a460                e1000_release_phy
                0x000000000043a480                e1000_acquire_phy
                0x000000000043a4a0                e1000_cfg_on_link_up
                0x000000000043a4c0                e1000_read_kmrn_reg
                0x000000000043a4d0                e1000_write_kmrn_reg
                0x000000000043a4e0                e1000_get_cable_length
                0x000000000043a500                e1000_get_phy_info
                0x000000000043a520                e1000_phy_hw_reset
                0x000000000043a540                e1000_phy_commit
                0x000000000043a560                e1000_set_d0_lplu_state
                0x000000000043a580                e1000_set_d3_lplu_state
                0x000000000043a5a0                e1000_read_mac_addr
                0x000000000043a5c0                e1000_read_pba_string
                0x000000000043a5d0                e1000_read_pba_length
                0x000000000043a5e0                e1000_read_pba_num
                0x000000000043a5f0                e1000_validate_nvm_checksum
                0x000000000043a610                e1000_update_nvm_checksum
                0x000000000043a630                e1000_reload_nvm
                0x000000000043a650                e1000_read_nvm
                0x000000000043a670                e1000_write_nvm
                0x000000000043a690                e1000_write_8bit_ctrl_reg
                0x000000000043a6a0                e1000_power_up_phy
                0x000000000043a6d0                e1000_power_down_phy
                0x000000000043a6f0                e1000_power_up_fiber_serdes_link
                0x000000000043a710                e1000_shutdown_fiber_serdes_link
 *fill*         0x000000000043a722        0xe 90909090
 .text          0x000000000043a730     0x51fa /home/vadim/projects/ipaugenblick/dpdk-1.6.0r2/x86_64-default-linuxapp-gcc/lib/librte_pmd_e1000.a(e1000_ich8lan.o)
                0x000000000043c9a0                e1000_toggle_lanphypc_pch_lpt
                0x000000000043ce60                e1000_read_emi_reg_locked
                0x000000000043cec0                e1000_write_emi_reg_locked
                0x000000000043cf20                e1000_set_eee_pchlan
                0x000000000043d100                e1000_enable_ulp_lpt_lp
                0x000000000043d2e0                e1000_disable_ulp_lpt_lp
                0x000000000043d660                e1000_init_function_pointers_ich8lan
                0x000000000043d6b0                e1000_configure_k1_ich8lan
                0x000000000043e920                e1000_copy_rx_addrs_to_phy_ich8lan
                0x000000000043eab0                e1000_lv_jumbo_workaround_ich8lan
                0x000000000043f360                e1000_set_kmrn_lock_loss_workaround_ich8lan
                0x000000000043f380                e1000_igp3_phy_powerdown_workaround_ich8lan
                0x000000000043f4b0                e1000_gig_downshift_workaround_ich8lan
                0x000000000043f530                e1000_suspend_workarounds_ich8lan
                0x000000000043f820                e1000_resume_workarounds_pchlan
 *fill*         0x000000000043f92a        0x6 90909090
 .text          0x000000000043f930     0x1e0a /home/vadim/projects/ipaugenblick/dpdk-1.6.0r2/x86_64-default-linuxapp-gcc/lib/librte_pmd_e1000.a(e1000_mac.o)
                0x000000000043f930                e1000_null_ops_generic
                0x000000000043f940                e1000_null_mac_generic
                0x000000000043f950                e1000_null_link_info
                0x000000000043f960                e1000_null_mng_mode
                0x000000000043f970                e1000_null_update_mc
                0x000000000043f980                e1000_null_write_vfta
                0x000000000043fa60                e1000_setup_led_generic
                0x000000000043fb00                e1000_init_mac_ops_generic
                0x000000000043fbe0                e1000_null_rar_set
                0x000000000043fbf0                e1000_get_bus_info_pci_generic
                0x000000000043fcb0                e1000_get_bus_info_pcie_generic
                0x000000000043fd50                e1000_set_lan_id_multi_port_pci
                0x000000000043fd90                e1000_set_lan_id_single_port
                0x000000000043fda0                e1000_clear_vfta_generic
                0x000000000043fdd0                e1000_write_vfta_generic
                0x000000000043fdf0                e1000_init_rx_addrs_generic
                0x000000000043fe80                e1000_check_alt_mac_addr_generic
                0x0000000000440030                e1000_hash_mc_addr_generic
                0x00000000004400c0                e1000_update_mc_addr_list_generic
                0x0000000000440290                e1000_pcix_mmrbc_workaround_generic
                0x0000000000440320                e1000_clear_hw_cntrs_base_generic
                0x0000000000440410                e1000_set_default_fc_generic
                0x00000000004404a0                e1000_setup_link_generic
                0x0000000000440560                e1000_commit_fc_settings_generic
                0x00000000004405b0                e1000_poll_fiber_serdes_link_generic
                0x0000000000440610                e1000_setup_fiber_serdes_link_generic
                0x0000000000440710                e1000_set_fc_watermarks_generic
                0x0000000000440760                e1000_force_mac_fc_generic
                0x00000000004407d0                e1000_config_fc_after_link_up_generic
                0x0000000000440bc0                e1000_check_for_serdes_link_generic
                0x0000000000440d20                e1000_check_for_fiber_link_generic
                0x0000000000440db0                e1000_check_for_copper_link_generic
                0x0000000000440e30                e1000_get_speed_and_duplex_copper_generic
                0x0000000000440e70                e1000_get_speed_and_duplex_fiber_serdes_generic
                0x0000000000440e80                e1000_get_hw_semaphore_generic
                0x0000000000440f20                e1000_put_hw_semaphore_generic
                0x0000000000440f40                e1000_get_auto_rd_done_generic
                0x0000000000441050                e1000_valid_led_default_generic
                0x0000000000441090                e1000_id_led_init_generic
                0x0000000000441360                e1000_cleanup_led_generic
                0x0000000000441380                e1000_blink_led_generic
                0x0000000000441490                e1000_led_on_generic
                0x00000000004414d0                e1000_led_off_generic
                0x0000000000441510                e1000_set_pcie_no_snoop_generic
                0x0000000000441540                e1000_disable_pcie_master_generic
                0x00000000004415b0                e1000_reset_adaptive_generic
                0x0000000000441610                e1000_update_adaptive_generic
                0x00000000004416d0                e1000_validate_mdi_setting_crossover_generic
                0x00000000004416e0                e1000_write_8bit_ctrl_reg_generic
 *fill*         0x000000000044173a        0x6 90909090
 .text          0x0000000000441740      0xd67 /home/vadim/projects/ipaugenblick/dpdk-1.6.0r2/x86_64-default-linuxapp-gcc/lib/librte_pmd_e1000.a(e1000_manage.o)
                0x0000000000441740                e1000_calculate_checksum
                0x0000000000441830                e1000_mng_enable_host_if_generic
                0x0000000000441970                e1000_check_mng_mode_generic
                0x0000000000441990                e1000_enable_tx_pkt_filtering_generic
                0x0000000000441c00                e1000_mng_write_cmd_header_generic
                0x0000000000441c50                e1000_mng_host_if_write_generic
                0x0000000000441e20                e1000_mng_write_dhcp_info_generic
                0x0000000000442100                e1000_enable_mng_pass_thru
                0x00000000004421d0                e1000_host_interface_command
                0x0000000000442300                e1000_load_firmware
 *fill*         0x00000000004424a7        0x9 90909090
 .text          0x00000000004424b0      0x8d6 /home/vadim/projects/ipaugenblick/dpdk-1.6.0r2/x86_64-default-linuxapp-gcc/lib/librte_pmd_e1000.a(e1000_mbx.o)
                0x0000000000442840                e1000_write_posted_mbx
                0x0000000000442920                e1000_read_posted_mbx
                0x0000000000442b00                e1000_read_mbx
                0x0000000000442b30                e1000_write_mbx
                0x0000000000442b60                e1000_check_for_msg
                0x0000000000442b80                e1000_check_for_ack
                0x0000000000442ba0                e1000_check_for_rst
                0x0000000000442bc0                e1000_init_mbx_ops_generic
                0x0000000000442c20                e1000_init_mbx_params_vf
                0x0000000000442cc0                e1000_init_mbx_params_pf
 *fill*         0x0000000000442d86        0xa 90909090
 .text          0x0000000000442d90     0x23f0 /home/vadim/projects/ipaugenblick/dpdk-1.6.0r2/x86_64-default-linuxapp-gcc/lib/librte_pmd_e1000.a(e1000_nvm.o)
                0x0000000000442d90                e1000_null_read_nvm
                0x0000000000442da0                e1000_null_nvm_generic
                0x0000000000442db0                e1000_null_led_default
                0x0000000000442dc0                e1000_null_write_nvm
                0x00000000004432d0                e1000_init_nvm_ops_generic
                0x0000000000443340                e1000_poll_eerd_eewr_done
                0x00000000004433b0                e1000_acquire_nvm_generic
                0x0000000000443410                e1000_stop_nvm
                0x00000000004434c0                e1000_release_nvm_generic
                0x0000000000443550                e1000_read_nvm_spi
                0x0000000000443b00                e1000_read_nvm_microwire
                0x0000000000444140                e1000_read_nvm_eerd
                0x00000000004441e0                e1000_write_nvm_spi
                0x0000000000444370                e1000_write_nvm_microwire
                0x0000000000444510                e1000_read_pba_string_generic
                0x00000000004448f0                e1000_read_pba_length_generic
                0x00000000004449d0                e1000_read_pba_num_generic
                0x0000000000444a40                e1000_write_pba_raw
                0x0000000000444b50                e1000_get_pba_block_size
                0x0000000000444c40                e1000_read_pba_raw
                0x0000000000444d90                e1000_read_mac_addr_generic
                0x0000000000444e10                e1000_validate_nvm_checksum_generic
                0x0000000000444e70                e1000_update_nvm_checksum_generic
                0x0000000000444ef0                e1000_get_fw_version
 .text          0x0000000000445180       0x56 /home/vadim/projects/ipaugenblick/dpdk-1.6.0r2/x86_64-default-linuxapp-gcc/lib/librte_pmd_e1000.a(e1000_osdep.o)
                0x0000000000445180                e1000_write_pci_cfg
                0x0000000000445190                e1000_read_pci_cfg
                0x00000000004451a0                e1000_pci_set_mwi
                0x00000000004451b0                e1000_pci_clear_mwi
                0x00000000004451c0                e1000_read_pcie_cap_reg
                0x00000000004451d0                e1000_write_pcie_cap_reg
 *fill*         0x00000000004451d6        0xa 90909090
 .text          0x00000000004451e0     0x569f /home/vadim/projects/ipaugenblick/dpdk-1.6.0r2/x86_64-default-linuxapp-gcc/lib/librte_pmd_e1000.a(e1000_phy.o)
                0x00000000004451e0                e1000_null_set_page
                0x00000000004451f0                e1000_null_read_reg
                0x0000000000445200                e1000_null_phy_generic
                0x0000000000445210                e1000_null_lplu_state
                0x0000000000445220                e1000_null_write_reg
                0x0000000000445230                e1000_read_i2c_byte_null
                0x0000000000445240                e1000_write_i2c_byte_null
                0x0000000000445300                e1000_init_phy_ops_generic
                0x0000000000445420                e1000_check_reset_block_generic
                0x0000000000445440                e1000_get_phy_id
                0x0000000000445530                e1000_phy_reset_dsp_generic
                0x0000000000445580                e1000_read_phy_reg_mdic
                0x0000000000445650                e1000_write_phy_reg_mdic
                0x00000000004464a0                e1000_read_phy_reg_i2c
                0x0000000000446520                e1000_write_phy_reg_i2c
                0x00000000004465a0                e1000_read_sfp_data_byte
                0x0000000000446610                e1000_write_sfp_data_byte
                0x00000000004466b0                e1000_read_phy_reg_m88
                0x00000000004467b0                e1000_write_phy_reg_m88
                0x0000000000446890                e1000_set_page_igp
                0x0000000000446940                e1000_read_phy_reg_igp
                0x0000000000446ae0                e1000_read_phy_reg_igp_locked
                0x0000000000446c40                e1000_write_phy_reg_igp
                0x0000000000446de0                e1000_write_phy_reg_igp_locked
                0x0000000000446f40                e1000_read_kmrn_reg_generic
                0x0000000000446fd0                e1000_read_kmrn_reg_locked
                0x0000000000447030                e1000_write_kmrn_reg_generic
                0x00000000004470b0                e1000_write_kmrn_reg_locked
                0x00000000004470e0                e1000_copper_link_setup_82577
                0x00000000004471c0                e1000_copper_link_setup_m88
                0x0000000000447420                e1000_copper_link_setup_m88_gen2
                0x0000000000447530                e1000_copper_link_setup_igp
                0x00000000004476b0                e1000_phy_setup_autoneg
                0x0000000000447800                e1000_copper_link_autoneg
                0x0000000000447910                e1000_phy_force_speed_duplex_setup
                0x00000000004479b0                e1000_set_d3_lplu_state_generic
                0x0000000000447b20                e1000_check_downshift_generic
                0x0000000000447be0                e1000_check_polarity_m88
                0x0000000000447c10                e1000_check_polarity_igp
                0x0000000000447c80                e1000_check_polarity_ife
                0x0000000000447cd0                e1000_phy_has_link_generic
                0x0000000000447e10                e1000_phy_force_speed_duplex_ife
                0x0000000000447ef0                e1000_phy_force_speed_duplex_m88
                0x0000000000448140                e1000_phy_force_speed_duplex_igp
                0x0000000000448220                e1000_setup_copper_link_generic
                0x0000000000448290                e1000_get_cable_length_m88
                0x0000000000448310                e1000_get_cable_length_m88_gen2
                0x0000000000448560                e1000_get_cable_length_igp_2
                0x0000000000448770                e1000_get_phy_info_m88
                0x00000000004488b0                e1000_get_phy_info_igp
                0x0000000000448a00                e1000_get_phy_info_ife
                0x0000000000448af0                e1000_phy_sw_reset_generic
                0x0000000000448b60                e1000_phy_hw_reset_generic
                0x0000000000448c10                e1000_get_cfg_done_generic
                0x0000000000448c30                e1000_phy_init_script_igp3
                0x0000000000448e90                e1000_get_phy_type_from_id
                0x0000000000449010                e1000_determine_phy_address
                0x00000000004491c0                e1000_write_phy_reg_bm
                0x00000000004493e0                e1000_read_phy_reg_bm
                0x0000000000449610                e1000_read_phy_reg_bm2
                0x00000000004497b0                e1000_write_phy_reg_bm2
                0x0000000000449950                e1000_enable_phy_wakeup_reg_access_bm
                0x0000000000449bb0                e1000_disable_phy_wakeup_reg_access_bm
                0x0000000000449cf0                e1000_power_up_phy_copper
                0x0000000000449d80                e1000_power_down_phy_copper
                0x0000000000449e20                e1000_read_phy_reg_hv
                0x0000000000449e30                e1000_read_phy_reg_hv_locked
                0x0000000000449e40                e1000_read_phy_reg_page_hv
                0x0000000000449e50                e1000_write_phy_reg_hv
                0x0000000000449e60                e1000_write_phy_reg_hv_locked
                0x0000000000449e70                e1000_write_phy_reg_page_hv
                0x0000000000449e90                e1000_link_stall_workaround_hv
                0x0000000000449f40                e1000_check_polarity_82577
                0x0000000000449f70                e1000_phy_force_speed_duplex_82577
                0x000000000044a010                e1000_get_phy_info_82577
                0x000000000044a130                e1000_get_cable_length_82577
                0x000000000044a180                e1000_write_phy_reg_gs40g
                0x000000000044a2e0                e1000_read_phy_reg_gs40g
                0x000000000044a440                e1000_read_phy_reg_mphy
                0x000000000044a620                e1000_write_phy_reg_mphy
                0x000000000044a820                e1000_is_mphy_ready
 *fill*         0x000000000044a87f        0x1 90909090
 .text          0x000000000044a880      0x6e7 /home/vadim/projects/ipaugenblick/dpdk-1.6.0r2/x86_64-default-linuxapp-gcc/lib/librte_pmd_e1000.a(e1000_vf.o)
                0x000000000044ade0                e1000_init_function_pointers_vf
                0x000000000044ae10                e1000_vfta_set_vf
                0x000000000044ae70                e1000_rlpml_set_vf
                0x000000000044aec0                e1000_promisc_set_vf
 *fill*         0x000000000044af67        0x9 90909090
 .text          0x000000000044af70     0x2295 /home/vadim/projects/ipaugenblick/dpdk-1.6.0r2/x86_64-default-linuxapp-gcc/lib/librte_pmd_e1000.a(igb_ethdev.o)
                0x000000000044d1d0                rte_igb_pmd_init
                0x000000000044d1f0                rte_igbvf_pmd_init
 *fill*         0x000000000044d205        0xb 90909090
 .text          0x000000000044d210     0x54b1 /home/vadim/projects/ipaugenblick/dpdk-1.6.0r2/x86_64-default-linuxapp-gcc/lib/librte_pmd_e1000.a(igb_rxtx.o)
                0x000000000044d210                eth_igb_recv_pkts
                0x000000000044da20                eth_igb_recv_scattered_pkts
                0x000000000044e670                eth_igb_xmit_pkts
                0x00000000004506d0                eth_igb_tx_queue_release
                0x0000000000450710                eth_igb_tx_queue_setup
                0x0000000000450a90                eth_igb_rx_queue_release
                0x0000000000450ad0                eth_igb_rx_queue_setup
                0x0000000000450e10                eth_igb_rx_queue_count
                0x0000000000450e80                eth_igb_rx_descriptor_done
                0x0000000000450ec0                igb_dev_clear_queues
                0x0000000000450fd0                eth_igb_rx_init
                0x0000000000451d40                eth_igb_tx_init
                0x0000000000451f20                eth_igbvf_rx_init
                0x0000000000452580                eth_igbvf_tx_init
 *fill*         0x00000000004526c1        0xf 90909090
 .text          0x00000000004526d0      0x8fc /home/vadim/projects/ipaugenblick/dpdk-1.6.0r2/x86_64-default-linuxapp-gcc/lib/librte_pmd_e1000.a(igb_pf.o)
                0x0000000000452770                igb_pf_host_init
                0x00000000004528e0                igb_pf_host_configure
                0x0000000000452a10                igb_pf_mbx_process
 *fill*         0x0000000000452fcc        0x4 90909090
 .text          0x0000000000452fd0     0x14e5 /home/vadim/projects/ipaugenblick/dpdk-1.6.0r2/x86_64-default-linuxapp-gcc/lib/librte_pmd_e1000.a(em_ethdev.o)
                0x00000000004544a0                rte_em_pmd_init
 *fill*         0x00000000004544b5        0xb 90909090
 .text          0x00000000004544c0     0x478d /home/vadim/projects/ipaugenblick/dpdk-1.6.0r2/x86_64-default-linuxapp-gcc/lib/librte_pmd_e1000.a(em_rxtx.o)
                0x00000000004544c0                eth_em_recv_pkts
                0x0000000000454c60                eth_em_recv_scattered_pkts
                0x00000000004566a0                eth_em_xmit_pkts
                0x0000000000457920                eth_em_tx_queue_release
                0x0000000000457960                eth_em_tx_queue_setup
                0x0000000000457db0                eth_em_rx_queue_release
                0x0000000000457df0                eth_em_rx_queue_setup
                0x0000000000458150                eth_em_rx_queue_count
                0x00000000004581c0                eth_em_rx_descriptor_done
                0x0000000000458200                em_dev_clear_queues
                0x00000000004582d0                eth_em_rx_init
                0x0000000000458b10                eth_em_tx_init
 *fill*         0x0000000000458c4d        0x3 90909090
 .text          0x0000000000458c50     0x6609 /home/vadim/projects/ipaugenblick/dpdk-1.6.0r2/x86_64-default-linuxapp-gcc/lib/librte_pmd_ixgbe.a(ixgbe_common.o)
                0x0000000000458c50                ixgbe_get_mac_addr_generic
                0x0000000000458c90                ixgbe_get_bus_info_generic
                0x0000000000458cd0                ixgbe_set_lan_id_multi_port_pcie
                0x0000000000458d10                ixgbe_led_on_generic
                0x0000000000458d40                ixgbe_led_off_generic
                0x0000000000458d70                ixgbe_calc_eeprom_checksum_generic
                0x0000000000458e90                ixgbe_validate_eeprom_checksum_generic
                0x0000000000458f20                ixgbe_update_eeprom_checksum_generic
                0x0000000000458f60                ixgbe_set_rar_generic
                0x0000000000459060                ixgbe_clear_rar_generic
                0x00000000004590e0                ixgbe_disable_mc_generic
                0x0000000000459100                ixgbe_enable_rx_dma_generic
                0x00000000004591d0                ixgbe_release_swfw_sync
                0x0000000000459220                ixgbe_acquire_swfw_sync
                0x00000000004593f0                ixgbe_blink_led_start_generic
                0x0000000000459510                ixgbe_blink_led_stop_generic
                0x0000000000459630                ixgbe_start_hw_generic
                0x0000000000459910                ixgbe_clear_hw_cntrs_generic
                0x000000000045a180                ixgbe_init_hw_generic
                0x000000000045a1a0                ixgbe_init_eeprom_params_generic
                0x000000000045a220                ixgbe_enable_mc_generic
                0x000000000045a2d0                ixgbe_update_uc_addr_list_generic
                0x000000000045a440                ixgbe_init_rx_addrs_generic
                0x000000000045a5b0                ixgbe_read_eerd_buffer_generic
                0x000000000045a670                ixgbe_read_eerd_generic
                0x000000000045a680                ixgbe_stop_adapter_generic
                0x000000000045c460                ixgbe_read_eeprom_buffer_bit_bang_generic
                0x000000000045c580                ixgbe_write_eeprom_buffer_bit_bang_generic
                0x000000000045c890                ixgbe_read_eeprom_bit_bang_generic
                0x000000000045c970                ixgbe_write_eeprom_generic
                0x000000000045ca50                ixgbe_init_ops_generic
                0x000000000045cc40                ixgbe_device_supports_autoneg_fc
                0x000000000045cc70                ixgbe_start_hw_gen2
                0x000000000045cd50                ixgbe_read_pba_string_generic
                0x000000000045d100                ixgbe_read_pba_num_generic
                0x000000000045d180                ixgbe_write_pba_raw
                0x000000000045d290                ixgbe_get_pba_block_size
                0x000000000045d380                ixgbe_read_pba_raw
                0x000000000045d4e0                ixgbe_write_eewr_buffer_generic
                0x000000000045d5e0                ixgbe_write_eewr_generic
                0x000000000045d690                ixgbe_poll_eerd_eewr_done
                0x000000000045d700                ixgbe_validate_mac_addr
                0x000000000045d750                ixgbe_add_uc_addr
                0x000000000045d790                ixgbe_set_mta
                0x000000000045d860                ixgbe_update_mc_addr_list_generic
                0x000000000045d9d0                ixgbe_fc_autoneg
                0x000000000045dbb0                ixgbe_fc_enable_generic
                0x000000000045e150                ixgbe_disable_pcie_master
                0x000000000045e1c0                ixgbe_disable_sec_rx_path_generic
                0x000000000045e210                ixgbe_enable_sec_rx_path_generic
                0x000000000045e230                ixgbe_get_san_mac_addr_generic
                0x000000000045e320                ixgbe_set_san_mac_addr_generic
                0x000000000045e3f0                ixgbe_get_pcie_msix_count_generic
                0x000000000045e400                ixgbe_insert_mac_addr_generic
                0x000000000045e550                ixgbe_clear_vmdq_generic
                0x000000000045e600                ixgbe_set_vmdq_generic
                0x000000000045e650                ixgbe_set_vmdq_san_mac_generic
                0x000000000045e6c0                ixgbe_init_uta_tables_generic
                0x000000000045e6f0                ixgbe_find_vlvf_slot
                0x000000000045e750                ixgbe_set_vlvf_generic
                0x000000000045e930                ixgbe_set_vfta_generic
                0x000000000045e9e0                ixgbe_clear_vfta_generic
                0x000000000045ea60                ixgbe_check_mac_link_generic
                0x000000000045eb50                ixgbe_get_wwn_prefix_generic
                0x000000000045ec00                ixgbe_get_fcoe_boot_status_generic
                0x000000000045eca0                ixgbe_set_mac_anti_spoofing
                0x000000000045ed70                ixgbe_set_vlan_anti_spoofing
                0x000000000045edc0                ixgbe_get_device_caps_generic
                0x000000000045ede0                ixgbe_enable_relaxed_ordering_gen2
                0x000000000045eea0                ixgbe_set_fw_drv_ver_generic
                0x000000000045f040                ixgbe_set_rxpba_generic
                0x000000000045f1e0                ixgbe_clear_tx_pending
 *fill*         0x000000000045f259        0x7 90909090
 .text          0x000000000045f260     0x16ff /home/vadim/projects/ipaugenblick/dpdk-1.6.0r2/x86_64-default-linuxapp-gcc/lib/librte_pmd_ixgbe.a(ixgbe_82598.o)
                0x000000000045f320                ixgbe_set_vmdq_82598
                0x000000000045f3d0                ixgbe_set_vfta_82598
                0x000000000045f4e0                ixgbe_get_supported_physical_layer_82598
                0x000000000045f6a0                ixgbe_enable_relaxed_ordering_82598
                0x000000000045f720                ixgbe_set_lan_id_multi_port_pcie_82598
                0x000000000045f7a0                ixgbe_read_i2c_eeprom_82598
                0x000000000045f880                ixgbe_write_analog_reg8_82598
                0x000000000045f8b0                ixgbe_read_analog_reg8_82598
                0x000000000045fe00                ixgbe_fc_enable_82598
                0x0000000000460300                ixgbe_start_hw_82598
                0x0000000000460680                ixgbe_init_phy_ops_82598
                0x00000000004607e0                ixgbe_set_pcie_completion_timeout
                0x0000000000460810                ixgbe_init_ops_82598
 *fill*         0x000000000046095f        0x1 90909090
 .text          0x0000000000460960     0x347a /home/vadim/projects/ipaugenblick/dpdk-1.6.0r2/x86_64-default-linuxapp-gcc/lib/librte_pmd_ixgbe.a(ixgbe_82599.o)
                0x0000000000460960                ixgbe_get_supported_physical_layer_82599
                0x0000000000460bb0                ixgbe_enable_rx_dma_82599
                0x0000000000460bf0                ixgbe_write_analog_reg8_82599
                0x0000000000460c20                ixgbe_read_analog_reg8_82599
                0x0000000000460c70                ixgbe_enable_tx_laser_multispeed_fiber
                0x0000000000460c90                ixgbe_disable_tx_laser_multispeed_fiber
                0x0000000000460cb0                ixgbe_identify_phy_82599
                0x0000000000460d80                ixgbe_get_link_capabilities_82599
                0x0000000000460f30                ixgbe_get_media_type_82599
                0x0000000000460ff0                ixgbe_start_hw_82599
                0x00000000004610c0                ixgbe_flap_tx_laser_multispeed_fiber
                0x0000000000461120                ixgbe_reinit_fdir_tables_82599
                0x00000000004613d0                ixgbe_init_fdir_signature_82599
                0x0000000000461500                ixgbe_init_fdir_perfect_82599
                0x0000000000461630                ixgbe_atr_compute_sig_hash_82599
                0x0000000000461700                ixgbe_fdir_add_signature_filter_82599
                0x0000000000461770                ixgbe_atr_compute_perfect_hash_82599
                0x00000000004618a0                ixgbe_fdir_set_input_mask_82599
                0x0000000000461ad0                ixgbe_fdir_write_perfect_filter_82599
                0x0000000000461ca0                ixgbe_fdir_erase_perfect_filter_82599
                0x0000000000461e10                ixgbe_fdir_add_perfect_filter_82599
                0x0000000000461f00                ixgbe_verify_lesm_fw_enabled_82599
                0x0000000000461fa0                ixgbe_init_mac_link_ops_82599
                0x0000000000462060                ixgbe_reset_hw_82599
                0x0000000000462580                ixgbe_setup_mac_link_82599
                0x0000000000462990                ixgbe_setup_mac_link_smartspeed
                0x0000000000462e90                ixgbe_setup_mac_link_multispeed_fiber
                0x0000000000463210                ixgbe_start_mac_link_82599
                0x00000000004634b0                ixgbe_init_ops_82599
                0x0000000000463770                ixgbe_setup_sfp_modules_82599
                0x0000000000463af0                ixgbe_init_phy_ops_82599
                0x0000000000463c50                ixgbe_reset_pipeline_82599
 *fill*         0x0000000000463dda        0x6 90909090
 .text          0x0000000000463de0      0xe70 /home/vadim/projects/ipaugenblick/dpdk-1.6.0r2/x86_64-default-linuxapp-gcc/lib/librte_pmd_ixgbe.a(ixgbe_x540.o)
                0x0000000000463de0                ixgbe_get_media_type_X540
                0x0000000000463df0                ixgbe_setup_mac_link_X540
                0x0000000000463e00                ixgbe_get_supported_physical_layer_X540
                0x0000000000463e50                ixgbe_blink_led_start_X540
                0x0000000000463ec0                ixgbe_blink_led_stop_X540
                0x0000000000463f10                ixgbe_write_eewr_X540
                0x0000000000463f90                ixgbe_validate_eeprom_checksum_X540
                0x0000000000464050                ixgbe_calc_eeprom_checksum_X540
                0x0000000000464190                ixgbe_read_eerd_X540
                0x0000000000464210                ixgbe_write_eewr_buffer_X540
                0x00000000004642a0                ixgbe_read_eerd_buffer_X540
                0x0000000000464330                ixgbe_start_hw_X540
                0x0000000000464350                ixgbe_reset_hw_X540
                0x0000000000464540                ixgbe_init_eeprom_params_X540
                0x0000000000464590                ixgbe_acquire_swfw_sync_X540
                0x0000000000464790                ixgbe_release_swfw_sync_X540
                0x0000000000464870                ixgbe_update_eeprom_checksum_X540
                0x00000000004649e0                ixgbe_init_ops_X540
                0x0000000000464c40                ixgbe_get_link_capabilities_X540
 .text          0x0000000000464c50     0x22ee /home/vadim/projects/ipaugenblick/dpdk-1.6.0r2/x86_64-default-linuxapp-gcc/lib/librte_pmd_ixgbe.a(ixgbe_phy.o)
                0x0000000000464c50                ixgbe_setup_phy_link_speed_generic
                0x0000000000464cb0                ixgbe_get_phy_firmware_version_generic
                0x0000000000464cd0                ixgbe_read_i2c_eeprom_generic
                0x0000000000464cf0                ixgbe_write_i2c_eeprom_generic
                0x0000000000464d10                ixgbe_tn_check_overtemp
                0x0000000000464d60                ixgbe_write_phy_reg_generic
                0x0000000000464e70                ixgbe_read_phy_reg_generic
                0x0000000000465080                ixgbe_setup_phy_link_generic
                0x0000000000465590                ixgbe_i2c_bus_clear
                0x00000000004657e0                ixgbe_write_i2c_byte_generic
                0x0000000000465900                ixgbe_read_i2c_byte_generic
                0x0000000000465bb0                ixgbe_identify_phy_generic
                0x0000000000465d70                ixgbe_reset_phy_generic
                0x0000000000465e50                ixgbe_init_phy_ops_generic
                0x0000000000465f10                ixgbe_validate_phy_addr
                0x0000000000465f50                ixgbe_get_phy_id
                0x0000000000465fd0                ixgbe_get_phy_type_from_id
                0x0000000000466010                ixgbe_get_copper_link_capabilities_generic
                0x0000000000466070                ixgbe_check_phy_link_tnx
                0x00000000004662c0                ixgbe_setup_phy_link_tnx
                0x0000000000466690                ixgbe_get_phy_firmware_version_tnx
                0x00000000004666b0                ixgbe_identify_sfp_module_generic
                0x0000000000466b80                ixgbe_identify_module_generic
                0x0000000000466bb0                ixgbe_get_sfp_init_sequence_offsets
                0x0000000000466d60                ixgbe_reset_phy_nl
 *fill*         0x0000000000466f3e        0x2 90909090
 .text          0x0000000000466f40      0xc4a /home/vadim/projects/ipaugenblick/dpdk-1.6.0r2/x86_64-default-linuxapp-gcc/lib/librte_pmd_ixgbe.a(ixgbe_api.o)
                0x0000000000466f40                ixgbe_set_mac_type
                0x0000000000467100                ixgbe_init_shared_code
                0x0000000000467170                ixgbe_init_hw
                0x0000000000467190                ixgbe_reset_hw
                0x00000000004671b0                ixgbe_start_hw
                0x00000000004671d0                ixgbe_enable_relaxed_ordering
                0x00000000004671f0                ixgbe_clear_hw_cntrs
                0x0000000000467210                ixgbe_get_media_type
                0x0000000000467230                ixgbe_get_mac_addr
                0x0000000000467250                ixgbe_get_san_mac_addr
                0x0000000000467270                ixgbe_set_san_mac_addr
                0x0000000000467290                ixgbe_get_device_caps
                0x00000000004672b0                ixgbe_get_wwn_prefix
                0x00000000004672d0                ixgbe_get_fcoe_boot_status
                0x00000000004672f0                ixgbe_get_bus_info
                0x0000000000467310                ixgbe_get_num_of_tx_queues
                0x0000000000467320                ixgbe_get_num_of_rx_queues
                0x0000000000467330                ixgbe_stop_adapter
                0x0000000000467350                ixgbe_read_pba_string
                0x0000000000467360                ixgbe_read_pba_num
                0x0000000000467370                ixgbe_identify_phy
                0x00000000004673b0                ixgbe_reset_phy
                0x0000000000467410                ixgbe_get_phy_firmware_version
                0x0000000000467430                ixgbe_read_phy_reg
                0x00000000004674b0                ixgbe_write_phy_reg
                0x0000000000467540                ixgbe_setup_phy_link
                0x0000000000467560                ixgbe_check_phy_link
                0x0000000000467580                ixgbe_setup_phy_link_speed
                0x00000000004675a0                ixgbe_check_link
                0x00000000004675c0                ixgbe_disable_tx_laser
                0x00000000004675e0                ixgbe_enable_tx_laser
                0x0000000000467600                ixgbe_flap_tx_laser
                0x0000000000467620                ixgbe_setup_link
                0x0000000000467640                ixgbe_get_link_capabilities
                0x0000000000467660                ixgbe_led_on
                0x0000000000467680                ixgbe_led_off
                0x00000000004676a0                ixgbe_blink_led_start
                0x00000000004676c0                ixgbe_blink_led_stop
                0x00000000004676e0                ixgbe_init_eeprom_params
                0x0000000000467700                ixgbe_write_eeprom
                0x0000000000467720                ixgbe_write_eeprom_buffer
                0x0000000000467740                ixgbe_read_eeprom
                0x0000000000467760                ixgbe_read_eeprom_buffer
                0x0000000000467780                ixgbe_validate_eeprom_checksum
                0x00000000004677a0                ixgbe_update_eeprom_checksum
                0x00000000004677c0                ixgbe_insert_mac_addr
                0x00000000004677e0                ixgbe_set_rar
                0x0000000000467800                ixgbe_clear_rar
                0x0000000000467820                ixgbe_set_vmdq
                0x0000000000467840                ixgbe_set_vmdq_san_mac
                0x0000000000467860                ixgbe_clear_vmdq
                0x0000000000467880                ixgbe_init_rx_addrs
                0x00000000004678a0                ixgbe_get_num_rx_addrs
                0x00000000004678b0                ixgbe_update_uc_addr_list
                0x00000000004678d0                ixgbe_update_mc_addr_list
                0x00000000004678f0                ixgbe_enable_mc
                0x0000000000467910                ixgbe_disable_mc
                0x0000000000467930                ixgbe_clear_vfta
                0x0000000000467950                ixgbe_set_vfta
                0x0000000000467970                ixgbe_set_vlvf
                0x0000000000467990                ixgbe_fc_enable
                0x00000000004679b0                ixgbe_set_fw_drv_ver
                0x00000000004679e0                ixgbe_read_analog_reg8
                0x0000000000467a00                ixgbe_write_analog_reg8
                0x0000000000467a20                ixgbe_init_uta_tables
                0x0000000000467a40                ixgbe_read_i2c_byte
                0x0000000000467a60                ixgbe_write_i2c_byte
                0x0000000000467a90                ixgbe_write_i2c_eeprom
                0x0000000000467ab0                ixgbe_read_i2c_eeprom
                0x0000000000467ad0                ixgbe_get_supported_physical_layer
                0x0000000000467af0                ixgbe_enable_rx_dma
                0x0000000000467b10                ixgbe_disable_sec_rx_path
                0x0000000000467b30                ixgbe_enable_sec_rx_path
                0x0000000000467b50                ixgbe_acquire_swfw_semaphore
                0x0000000000467b70                ixgbe_release_swfw_semaphore
 *fill*         0x0000000000467b8a        0x6 90909090
 .text          0x0000000000467b90      0x8c2 /home/vadim/projects/ipaugenblick/dpdk-1.6.0r2/x86_64-default-linuxapp-gcc/lib/librte_pmd_ixgbe.a(ixgbe_vf.o)
                0x0000000000467b90                ixgbe_start_hw_vf
                0x0000000000467ba0                ixgbe_init_hw_vf
                0x0000000000467be0                ixgbe_set_vfta_vf
                0x0000000000467c50                ixgbe_get_mac_addr_vf
                0x0000000000467c90                ixgbe_setup_mac_link_vf
                0x0000000000467ca0                ixgbe_check_mac_link_vf
                0x0000000000467d60                ixgbe_update_mc_addr_list_vf
                0x0000000000467e80                ixgbe_stop_adapter_vf
                0x0000000000467f20                ixgbe_reset_hw_vf
                0x0000000000468010                ixgbevf_set_uc_addr_vf
                0x00000000004680a0                ixgbe_set_rar_vf
                0x0000000000468160                ixgbe_init_ops_vf
                0x0000000000468240                ixgbe_get_num_of_tx_queues_vf
                0x0000000000468250                ixgbe_get_num_of_rx_queues_vf
                0x0000000000468260                ixgbevf_rlpml_set_vf
                0x00000000004682b0                ixgbevf_negotiate_api_version
                0x0000000000468330                ixgbevf_get_queues
 *fill*         0x0000000000468452        0xe 90909090
 .text          0x0000000000468460     0x2aef /home/vadim/projects/ipaugenblick/dpdk-1.6.0r2/x86_64-default-linuxapp-gcc/lib/librte_pmd_ixgbe.a(ixgbe_dcb.o)
                0x0000000000468460                ixgbe_dcb_calculate_tc_credits
                0x00000000004686f0                ixgbe_dcb_calculate_tc_credits_cee
                0x0000000000469440                ixgbe_dcb_unpack_pfc_cee
                0x00000000004694f0                ixgbe_dcb_unpack_refill_cee
                0x0000000000469550                ixgbe_dcb_unpack_max_cee
                0x00000000004695a0                ixgbe_dcb_unpack_bwgid_cee
                0x00000000004695f0                ixgbe_dcb_unpack_tsa_cee
                0x0000000000469640                ixgbe_dcb_get_tc_from_up
                0x00000000004696a0                ixgbe_dcb_unpack_map_cee
                0x0000000000469710                ixgbe_dcb_check_config_cee
                0x000000000046a210                ixgbe_dcb_get_tc_stats
                0x000000000046a250                ixgbe_dcb_get_pfc_stats
                0x000000000046a290                ixgbe_dcb_config_rx_arbiter_cee
                0x000000000046a4c0                ixgbe_dcb_config_tx_desc_arbiter_cee
                0x000000000046a680                ixgbe_dcb_config_tx_data_arbiter_cee
                0x000000000046a8b0                ixgbe_dcb_config_pfc_cee
                0x000000000046aa50                ixgbe_dcb_config_tc_stats
                0x000000000046aa80                ixgbe_dcb_hw_config_cee
                0x000000000046ae20                ixgbe_dcb_config_pfc
                0x000000000046ae60                ixgbe_dcb_hw_config
 *fill*         0x000000000046af4f        0x1 90909090
 .text          0x000000000046af50      0xf29 /home/vadim/projects/ipaugenblick/dpdk-1.6.0r2/x86_64-default-linuxapp-gcc/lib/librte_pmd_ixgbe.a(ixgbe_dcb_82599.o)
                0x000000000046af50                ixgbe_dcb_get_tc_stats_82599
                0x000000000046b010                ixgbe_dcb_get_pfc_stats_82599
                0x000000000046b070                ixgbe_dcb_config_rx_arbiter_82599
                0x000000000046b290                ixgbe_dcb_config_tx_desc_arbiter_82599
                0x000000000046b510                ixgbe_dcb_config_tx_data_arbiter_82599
                0x000000000046b800                ixgbe_dcb_config_pfc_82599
                0x000000000046bb20                ixgbe_dcb_config_tc_stats_82599
                0x000000000046bcd0                ixgbe_dcb_config_82599
                0x000000000046bde0                ixgbe_dcb_hw_config_82599
 *fill*         0x000000000046be79        0x7 90909090
 .text          0x000000000046be80      0xc19 /home/vadim/projects/ipaugenblick/dpdk-1.6.0r2/x86_64-default-linuxapp-gcc/lib/librte_pmd_ixgbe.a(ixgbe_dcb_82598.o)
                0x000000000046be80                ixgbe_dcb_get_tc_stats_82598
                0x000000000046bf00                ixgbe_dcb_get_pfc_stats_82598
                0x000000000046bf60                ixgbe_dcb_config_rx_arbiter_82598
                0x000000000046c0e0                ixgbe_dcb_config_tx_desc_arbiter_82598
                0x000000000046c380                ixgbe_dcb_config_tx_data_arbiter_82598
                0x000000000046c620                ixgbe_dcb_config_pfc_82598
                0x000000000046c930                ixgbe_dcb_config_tc_stats_82598
                0x000000000046ca10                ixgbe_dcb_hw_config_82598
 *fill*         0x000000000046ca99        0x7 90909090
 .text          0x000000000046caa0      0x8bb /home/vadim/projects/ipaugenblick/dpdk-1.6.0r2/x86_64-default-linuxapp-gcc/lib/librte_pmd_ixgbe.a(ixgbe_mbx.o)
                0x000000000046cdb0                ixgbe_write_posted_mbx
                0x000000000046ce70                ixgbe_read_posted_mbx
                0x000000000046d120                ixgbe_read_mbx
                0x000000000046d150                ixgbe_write_mbx
                0x000000000046d180                ixgbe_check_for_msg
                0x000000000046d1a0                ixgbe_check_for_ack
                0x000000000046d1c0                ixgbe_check_for_rst
                0x000000000046d1e0                ixgbe_init_mbx_ops_generic
                0x000000000046d200                ixgbe_init_mbx_params_vf
                0x000000000046d2a0                ixgbe_init_mbx_params_pf
 *fill*         0x000000000046d35b        0x5 90909090
 .text          0x000000000046d360     0x8fec /home/vadim/projects/ipaugenblick/dpdk-1.6.0r2/x86_64-default-linuxapp-gcc/lib/librte_pmd_ixgbe.a(ixgbe_rxtx.o)
                0x000000000046d5a0                ixgbe_recv_pkts
                0x000000000046e9c0                ixgbe_recv_pkts_bulk_alloc
                0x000000000046eb50                ixgbe_xmit_pkts
                0x000000000046ff20                ixgbe_recv_scattered_pkts
                0x0000000000471a60                ixgbe_xmit_pkts_simple
                0x0000000000473030                ixgbe_dev_tx_queue_release
                0x0000000000473070                ixgbe_dev_tx_queue_setup
                0x00000000004735a0                ixgbe_dev_rx_queue_release
                0x00000000004735d0                ixgbe_dev_rx_queue_setup
                0x0000000000473920                ixgbe_dev_rx_queue_count
                0x0000000000473990                ixgbe_dev_rx_descriptor_done
                0x00000000004739d0                ixgbe_dev_clear_queues
                0x0000000000473a80                ixgbe_configure_dcb
                0x00000000004745c0                ixgbe_dev_rx_init
                0x0000000000475130                ixgbe_dev_tx_init
                0x00000000004753e0                ixgbe_dev_rxtx_start
                0x0000000000475ab0                ixgbevf_dev_rx_init
                0x0000000000475f90                ixgbevf_dev_tx_init
                0x0000000000476000                ixgbevf_dev_rxtx_start
 *fill*         0x000000000047634c        0x4 90909090
 .text          0x0000000000476350     0x45ad /home/vadim/projects/ipaugenblick/dpdk-1.6.0r2/x86_64-default-linuxapp-gcc/lib/librte_pmd_ixgbe.a(ixgbe_ethdev.o)
                0x000000000047a2b0                rte_ixgbe_pmd_init
                0x000000000047a2d0                rte_ixgbevf_pmd_init
                0x000000000047a2f0                ixgbe_vlan_hw_filter_disable
                0x000000000047a310                ixgbe_vlan_hw_filter_enable
                0x000000000047a360                ixgbe_vlan_hw_strip_disable_all
                0x000000000047a420                ixgbe_vlan_hw_strip_enable_all
 *fill*         0x000000000047a8fd        0x3 90909090
 .text          0x000000000047a900     0x136b /home/vadim/projects/ipaugenblick/dpdk-1.6.0r2/x86_64-default-linuxapp-gcc/lib/librte_pmd_ixgbe.a(ixgbe_fdir.o)
                0x000000000047af20                ixgbe_fdir_configure
                0x000000000047b1a0                ixgbe_fdir_add_signature_filter
                0x000000000047b2d0                ixgbe_fdir_update_signature_filter
                0x000000000047b400                ixgbe_fdir_remove_signature_filter
                0x000000000047b640                ixgbe_fdir_set_masks
                0x000000000047b910                ixgbe_fdir_add_perfect_filter
                0x000000000047b930                ixgbe_fdir_update_perfect_filter
                0x000000000047b950                ixgbe_fdir_remove_perfect_filter
                0x000000000047bb80                ixgbe_fdir_info_get
 *fill*         0x000000000047bc6b        0x5 90909090
 .text          0x000000000047bc70      0xcec /home/vadim/projects/ipaugenblick/dpdk-1.6.0r2/x86_64-default-linuxapp-gcc/lib/librte_pmd_ixgbe.a(ixgbe_pf.o)
                0x000000000047bd10                ixgbe_pf_host_init
                0x000000000047c070                ixgbe_pf_host_configure
                0x000000000047c300                ixgbe_pf_mbx_process
 *fill*         0x000000000047c95c        0x4 90909090
 .text          0x000000000047c960       0x78 /home/vadim/projects/ipaugenblick/dpdk-1.6.0r2/x86_64-default-linuxapp-gcc/lib/librte_pmd_virtio_uio.a(virtqueue.o)
                0x000000000047c960                virtqueue_disable_intr
                0x000000000047c970                virtqueue_detatch_unused
 *fill*         0x000000000047c9d8        0x8 90909090
 .text          0x000000000047c9e0      0x143 /home/vadim/projects/ipaugenblick/dpdk-1.6.0r2/x86_64-default-linuxapp-gcc/lib/librte_pmd_virtio_uio.a(virtio_pci.o)
                0x000000000047c9e0                vtpci_read_dev_config
                0x000000000047ca50                vtpci_write_dev_config
                0x000000000047cad0                vtpci_negotiate_features
                0x000000000047cae0                vtpci_reset
                0x000000000047caf0                vtpci_reinit_complete
                0x000000000047cb00                vtpci_get_status
                0x000000000047cb10                vtpci_set_status
 *fill*         0x000000000047cb23        0xd 90909090
 .text          0x000000000047cb30     0x2cf8 /home/vadim/projects/ipaugenblick/dpdk-1.6.0r2/x86_64-default-linuxapp-gcc/lib/librte_pmd_virtio_uio.a(virtio_rxtx.o)
                0x000000000047d830                virtio_dev_rxtx_start
                0x000000000047d880                virtio_dev_rx_queue_setup
                0x000000000047d8f0                virtio_dev_tx_queue_setup
                0x000000000047d940                virtio_recv_pkts
                0x000000000047ed90                virtio_xmit_pkts
 *fill*         0x000000000047f828        0x8 90909090
 .text          0x000000000047f830     0x1b15 /home/vadim/projects/ipaugenblick/dpdk-1.6.0r2/x86_64-default-linuxapp-gcc/lib/librte_pmd_virtio_uio.a(virtio_ethdev.o)
                0x0000000000480ec0                virtio_dev_queue_setup
                0x0000000000481330                rte_virtio_pmd_init
 *fill*         0x0000000000481345        0xb 90909090
 .text          0x0000000000481350     0x37ab /home/vadim/projects/ipaugenblick/dpdk-1.6.0r2/x86_64-default-linuxapp-gcc/lib/librte_pmd_vmxnet3_uio.a(vmxnet3_rxtx.o)
                0x0000000000481bc0                vmxnet3_dev_tx_queue_release
                0x0000000000481c50                vmxnet3_dev_rx_queue_release
                0x0000000000481cf0                vmxnet3_dev_clear_queues
                0x0000000000481eb0                vmxnet3_xmit_pkts
                0x0000000000482180                vmxnet3_recv_pkts
                0x0000000000483f00                vmxnet3_dev_tx_queue_setup
                0x0000000000484150                vmxnet3_dev_rx_queue_setup
                0x0000000000484430                vmxnet3_dev_rxtx_init
                0x0000000000484980                vmxnet3_rss_configure
                0x0000000000484ad0                vmxnet3_vlan_configure
 *fill*         0x0000000000484afb        0x5 90909090
 .text          0x0000000000484b00      0xc05 /home/vadim/projects/ipaugenblick/dpdk-1.6.0r2/x86_64-default-linuxapp-gcc/lib/librte_pmd_vmxnet3_uio.a(vmxnet3_ethdev.o)
                0x00000000004856f0                rte_vmxnet3_pmd_init
 *fill*         0x0000000000485705        0xb 90909090
 .text          0x0000000000485710      0x9fa /home/vadim/projects/ipaugenblick/dpdk-1.6.0r2/x86_64-default-linuxapp-gcc/lib/librte_timer.a(rte_timer.o)
                0x0000000000485bb0                rte_timer_subsystem_init
                0x0000000000485bf0                rte_timer_init
                0x0000000000485c00                rte_timer_reset
                0x0000000000485cf0                rte_timer_reset_sync
                0x0000000000485d40                rte_timer_stop
                0x0000000000485dd0                rte_timer_stop_sync
                0x0000000000485e00                rte_timer_pending
                0x0000000000485e10                rte_timer_manage
                0x0000000000486100                rte_timer_dump_stats
 *fill*         0x000000000048610a        0x6 90909090
 .text          0x0000000000486110     0x1756 /home/vadim/projects/ipaugenblick/dpdk-1.6.0r2/x86_64-default-linuxapp-gcc/lib/librte_hash.a(rte_hash.o)
                0x00000000004863f0                rte_hash_find_existing
                0x00000000004864b0                rte_hash_create
                0x00000000004867b0                rte_hash_free
                0x0000000000486850                rte_hash_add_key_with_hash
                0x0000000000486da0                rte_hash_add_key
                0x0000000000487300                rte_hash_del_key_with_hash
                0x0000000000487400                rte_hash_del_key
                0x0000000000487510                rte_hash_lookup_with_hash
                0x0000000000487610                rte_hash_lookup
                0x0000000000487710                rte_hash_lookup_bulk
 *fill*         0x0000000000487866        0xa 90909090
 .text          0x0000000000487870      0x546 /home/vadim/projects/ipaugenblick/dpdk-1.6.0r2/x86_64-default-linuxapp-gcc/lib/librte_hash.a(rte_fbk_hash.o)
                0x0000000000487a10                rte_fbk_hash_find_existing
                0x0000000000487ad0                rte_fbk_hash_create
                0x0000000000487d20                rte_fbk_hash_free
 *fill*         0x0000000000487db6        0xa 90909090
 .text          0x0000000000487dc0     0x1082 /home/vadim/projects/ipaugenblick/dpdk-1.6.0r2/x86_64-default-linuxapp-gcc/lib/librte_lpm.a(rte_lpm.o)
                0x0000000000487ef0                rte_lpm_find_existing
                0x0000000000487fb0                rte_lpm_create
                0x0000000000488190                rte_lpm_free
                0x0000000000488230                rte_lpm_add
                0x0000000000488870                rte_lpm_delete
                0x0000000000488d50                rte_lpm_delete_all
 *fill*         0x0000000000488e42        0xe 90909090
 .text          0x0000000000488e50     0x2060 /home/vadim/projects/ipaugenblick/dpdk-1.6.0r2/x86_64-default-linuxapp-gcc/lib/librte_lpm.a(rte_lpm6.o)
                0x00000000004895d0                rte_lpm6_create
                0x0000000000489840                rte_lpm6_find_existing
                0x0000000000489900                rte_lpm6_free
                0x00000000004899b0                rte_lpm6_lookup
                0x0000000000489a60                rte_lpm6_lookup_bulk_func
                0x0000000000489b60                rte_lpm6_delete
                0x000000000048a050                rte_lpm6_add
                0x000000000048a920                rte_lpm6_delete_bulk_func
                0x000000000048ae60                rte_lpm6_delete_all
 .text          0x000000000048aeb0     0x16b7 /home/vadim/projects/ipaugenblick/dpdk-1.6.0r2/x86_64-default-linuxapp-gcc/lib/librte_power.a(rte_power.o)
                0x000000000048b8f0                rte_power_init
                0x000000000048bbc0                rte_power_exit
                0x000000000048bd40                rte_power_freqs
                0x000000000048c160                rte_power_get_freq
                0x000000000048c1c0                rte_power_set_freq
                0x000000000048c270                rte_power_freq_down
                0x000000000048c330                rte_power_freq_up
                0x000000000048c3f0                rte_power_freq_max
                0x000000000048c4b0                rte_power_freq_min
 *fill*         0x000000000048c567        0x9 90909090
 .text          0x000000000048c570      0x511 /home/vadim/projects/ipaugenblick/dpdk-1.6.0r2/x86_64-default-linuxapp-gcc/lib/librte_meter.a(rte_meter.o)
                0x000000000048c570                rte_meter_srtcm_config
                0x000000000048c770                rte_meter_trtcm_config
 *fill*         0x000000000048ca81        0xf 90909090
 .text          0x000000000048ca90     0x39c4 /home/vadim/projects/ipaugenblick/dpdk-1.6.0r2/x86_64-default-linuxapp-gcc/lib/librte_sched.a(rte_sched.o)
                0x000000000048cde0                rte_sched_port_get_memory_footprint
                0x000000000048ce40                rte_sched_port_config
                0x000000000048d6e0                rte_sched_port_free
                0x000000000048d6f0                rte_sched_subport_config
                0x000000000048d970                rte_sched_pipe_config
                0x000000000048db00                rte_sched_subport_read_stats
                0x000000000048dc50                rte_sched_queue_read_stats
                0x000000000048dcd0                rte_sched_port_enqueue
                0x000000000048ef90                rte_sched_port_dequeue
 *fill*         0x0000000000490454        0xc 90909090
 .text          0x0000000000490460      0x213 /home/vadim/projects/ipaugenblick/dpdk-1.6.0r2/x86_64-default-linuxapp-gcc/lib/librte_sched.a(rte_red.o)
                0x0000000000490460                rte_red_rt_data_init
                0x0000000000490490                rte_red_config_init
 *fill*         0x0000000000490673        0xd 90909090
 .text          0x0000000000490680      0x2f3 /home/vadim/projects/ipaugenblick/dpdk-1.6.0r2/x86_64-default-linuxapp-gcc/lib/librte_sched.a(rte_approx.o)
                0x0000000000490680                rte_approx
 *fill*         0x0000000000490973        0xd 90909090
 .text          0x0000000000490980      0x46c /home/vadim/projects/ipaugenblick/dpdk-1.6.0r2/x86_64-default-linuxapp-gcc/lib/librte_kvargs.a(rte_kvargs.o)
                0x0000000000490980                rte_kvargs_count
                0x00000000004909e0                rte_kvargs_process
                0x0000000000490ac0                rte_kvargs_free
                0x0000000000490ae0                rte_kvargs_parse
 *fill*         0x0000000000490dec        0x4 90909090
 .text          0x0000000000490df0      0x37b /home/vadim/projects/ipaugenblick/dpdk-1.6.0r2/x86_64-default-linuxapp-gcc/lib/librte_mbuf.a(rte_mbuf.o)
                0x0000000000490df0                rte_ctrlmbuf_init
                0x0000000000490e80                rte_pktmbuf_pool_init
                0x0000000000490eb0                rte_pktmbuf_init
                0x0000000000490f70                rte_mbuf_sanity_check
                0x00000000004910a0                rte_pktmbuf_dump
 *fill*         0x000000000049116b        0x5 90909090
 .text          0x0000000000491170     0x2a2b /home/vadim/projects/ipaugenblick/dpdk-1.6.0r2/x86_64-default-linuxapp-gcc/lib/libethdev.a(rte_ethdev.o)
                0x00000000004913b0                rte_eth_dev_allocate
                0x00000000004915d0                rte_eth_driver_register
                0x00000000004915e0                rte_eth_dev_socket_id
                0x0000000000491610                rte_eth_dev_count
                0x0000000000491620                rte_eth_dev_configure
                0x0000000000491a80                rte_eth_dev_start
                0x0000000000491d00                rte_eth_dev_stop
                0x0000000000491d50                rte_eth_dev_close
                0x0000000000491da0                rte_eth_rx_queue_setup
                0x0000000000491ee0                rte_eth_tx_queue_setup
                0x0000000000491fe0                rte_eth_promiscuous_enable
                0x0000000000492020                rte_eth_promiscuous_disable
                0x0000000000492070                rte_eth_promiscuous_get
                0x00000000004920a0                rte_eth_allmulticast_enable
                0x00000000004920e0                rte_eth_allmulticast_disable
                0x0000000000492130                rte_eth_allmulticast_get
                0x0000000000492160                rte_eth_link_get
                0x00000000004921f0                rte_eth_link_get_nowait
                0x0000000000492280                rte_eth_stats_get
                0x00000000004923b0                rte_eth_stats_reset
                0x00000000004923f0                rte_eth_dev_set_tx_queue_stats_mapping
                0x0000000000492440                rte_eth_dev_set_rx_queue_stats_mapping
                0x0000000000492490                rte_eth_dev_info_get
                0x0000000000492510                rte_eth_macaddr_get
                0x0000000000492540                rte_eth_dev_vlan_filter
                0x00000000004925a0                rte_eth_dev_set_vlan_strip_on_queue
                0x0000000000492600                rte_eth_dev_set_vlan_ether_type
                0x0000000000492650                rte_eth_dev_set_vlan_offload
                0x0000000000492780                rte_eth_dev_get_vlan_offload
                0x00000000004927d0                rte_eth_dev_fdir_add_signature_filter
                0x0000000000492860                rte_eth_dev_fdir_update_signature_filter
                0x00000000004928f0                rte_eth_dev_fdir_remove_signature_filter
                0x0000000000492980                rte_eth_dev_fdir_get_infos
                0x00000000004929e0                rte_eth_dev_fdir_add_perfect_filter
                0x0000000000492a90                rte_eth_dev_fdir_update_perfect_filter
                0x0000000000492b40                rte_eth_dev_fdir_remove_perfect_filter
                0x0000000000492be0                rte_eth_dev_fdir_set_masks
                0x0000000000492c50                rte_eth_dev_flow_ctrl_set
                0x0000000000492cb0                rte_eth_dev_priority_flow_ctrl_set
                0x0000000000492d10                rte_eth_dev_rss_reta_update
                0x0000000000492dc0                rte_eth_dev_rss_reta_query
                0x0000000000492e20                rte_eth_led_on
                0x0000000000492e70                rte_eth_led_off
                0x0000000000492ec0                rte_eth_dev_mac_addr_add
                0x0000000000493120                rte_eth_dev_mac_addr_remove
                0x0000000000493250                rte_eth_dev_set_vf_rxmode
                0x0000000000493330                rte_eth_dev_uc_hash_table_set
                0x00000000004935c0                rte_eth_dev_uc_all_hash_table_set
                0x0000000000493610                rte_eth_dev_set_vf_rx
                0x00000000004936e0                rte_eth_dev_set_vf_tx
                0x00000000004937b0                rte_eth_dev_set_vf_vlan_filter
                0x0000000000493820                rte_eth_mirror_rule_set
                0x00000000004938b0                rte_eth_mirror_rule_reset
                0x0000000000493910                rte_eth_dev_callback_register
                0x00000000004939f0                rte_eth_dev_callback_unregister
                0x0000000000493ae0                _rte_eth_dev_callback_process
 *fill*         0x0000000000493b9b        0x5 90909090
 .text          0x0000000000493ba0     0x284a /home/vadim/projects/ipaugenblick/dpdk-1.6.0r2/x86_64-default-linuxapp-gcc/lib/librte_pmd_ring.a(rte_eth_ring.o)
                0x0000000000495c90                rte_pmd_ring_devinit
                0x0000000000496170                rte_eth_from_rings
                0x00000000004963d0                rte_eth_ring_pair_create
                0x00000000004963e0                rte_eth_ring_pair_attach
 *fill*         0x00000000004963ea        0x6 90909090
 .text          0x00000000004963f0     0x10ff /home/vadim/projects/ipaugenblick/dpdk-1.6.0r2/x86_64-default-linuxapp-gcc/lib/librte_malloc.a(rte_malloc.o)
                0x00000000004963f0                rte_free
                0x0000000000496440                rte_malloc_socket
                0x0000000000496770                rte_malloc
                0x0000000000496780                rte_zmalloc_socket
                0x00000000004967c0                rte_zmalloc
                0x0000000000496810                rte_calloc_socket
                0x0000000000496860                rte_calloc
                0x00000000004968b0                rte_realloc
                0x0000000000496e00                rte_malloc_validate
                0x0000000000496e50                rte_malloc_get_socket_stats
                0x0000000000496ec0                rte_malloc_dump_stats
                0x00000000004974a0                rte_malloc_set_limit
                0x00000000004974b0                rte_malloc_virt2phy
 *fill*         0x00000000004974ef        0x1 90909090
 .text          0x00000000004974f0      0x416 /home/vadim/projects/ipaugenblick/dpdk-1.6.0r2/x86_64-default-linuxapp-gcc/lib/librte_malloc.a(malloc_elem.o)
                0x00000000004974f0                malloc_elem_init
                0x0000000000497520                malloc_elem_mkend
                0x0000000000497560                malloc_elem_can_hold
                0x0000000000497590                malloc_elem_alloc
                0x0000000000497650                malloc_elem_free
                0x0000000000497780                malloc_elem_resize
 *fill*         0x0000000000497906        0xa 90909090
 .text          0x0000000000497910      0x4f2 /home/vadim/projects/ipaugenblick/dpdk-1.6.0r2/x86_64-default-linuxapp-gcc/lib/librte_malloc.a(malloc_heap.o)
                0x0000000000497a40                malloc_heap_alloc
                0x0000000000497d90                malloc_heap_get_stats
 *fill*         0x0000000000497e02        0xe 90909090
 .text          0x0000000000497e10     0x1568 /home/vadim/projects/ipaugenblick/dpdk-1.6.0r2/x86_64-default-linuxapp-gcc/lib/librte_mempool.a(rte_mempool.o)
                0x0000000000498120                rte_mempool_obj_iter
                0x0000000000498250                rte_mempool_calc_obj_size
                0x0000000000498400                rte_mempool_xmem_size
                0x0000000000498440                rte_mempool_xmem_usage
                0x00000000004984c0                rte_mempool_create
                0x0000000000498930                rte_mempool_xmem_create
                0x0000000000498e80                rte_mempool_count
                0x0000000000498ed0                rte_mempool_audit
                0x0000000000498f40                rte_mempool_dump
                0x0000000000499240                rte_mempool_list_dump
                0x00000000004992c0                rte_mempool_lookup
 *fill*         0x0000000000499378        0x8 90909090
 .text          0x0000000000499380      0x668 /home/vadim/projects/ipaugenblick/dpdk-1.6.0r2/x86_64-default-linuxapp-gcc/lib/librte_ring.a(rte_ring.o)
                0x00000000004994b0                rte_ring_create
                0x0000000000499780                rte_ring_set_water_mark
                0x00000000004997a0                rte_ring_dump
                0x00000000004998b0                rte_ring_list_dump
                0x0000000000499930                rte_ring_lookup
 *fill*         0x00000000004999e8        0x8 90909090
 .text          0x00000000004999f0     0x1f0f /home/vadim/projects/ipaugenblick/dpdk-1.6.0r2/x86_64-default-linuxapp-gcc/lib/librte_eal.a(eal.o)
                0x0000000000499c40                rte_eal_get_configuration
                0x0000000000499c50                eal_parse_sysfs_value
                0x0000000000499df0                rte_set_application_usage_hook
                0x0000000000499e00                rte_eal_init
                0x000000000049b8d0                rte_eal_lcore_role
                0x000000000049b8e0                rte_eal_process_type
                0x000000000049b8f0                rte_eal_has_hugepages
 *fill*         0x000000000049b8ff        0x1 90909090
 .text          0x000000000049b900      0xd0e /home/vadim/projects/ipaugenblick/dpdk-1.6.0r2/x86_64-default-linuxapp-gcc/lib/librte_eal.a(eal_hugepage_info.o)
                0x000000000049bfe0                eal_hugepage_info_init
 *fill*         0x000000000049c60e        0x2 90909090
 .text          0x000000000049c610     0x236a /home/vadim/projects/ipaugenblick/dpdk-1.6.0r2/x86_64-default-linuxapp-gcc/lib/librte_eal.a(eal_memory.o)
                0x000000000049d150                rte_mem_lock_page
                0x000000000049d170                rte_mem_virt2phy
                0x000000000049d320                rte_eal_memory_init
 *fill*         0x000000000049e97a        0x6 90909090
 .text          0x000000000049e980      0x3de /home/vadim/projects/ipaugenblick/dpdk-1.6.0r2/x86_64-default-linuxapp-gcc/lib/librte_eal.a(eal_thread.o)
                0x000000000049ea60                rte_eal_remote_launch
                0x000000000049eb40                eal_thread_init_master
                0x000000000049eb70                eal_thread_loop
 *fill*         0x000000000049ed5e        0x2 90909090
 .text          0x000000000049ed60      0x29b /home/vadim/projects/ipaugenblick/dpdk-1.6.0r2/x86_64-default-linuxapp-gcc/lib/librte_eal.a(eal_log.o)
                0x000000000049eef0                rte_eal_log_init
                0x000000000049ef90                rte_eal_log_early_init
 *fill*         0x000000000049effb        0x5 90909090
 .text          0x000000000049f000     0x1f2d /home/vadim/projects/ipaugenblick/dpdk-1.6.0r2/x86_64-default-linuxapp-gcc/lib/librte_eal.a(eal_pci.o)
                0x00000000004a0d10                rte_eal_pci_probe_one_driver
                0x00000000004a0ea0                rte_eal_pci_init
 *fill*         0x00000000004a0f2d        0x3 90909090
 .text          0x00000000004a0f30      0x179 /home/vadim/projects/ipaugenblick/dpdk-1.6.0r2/x86_64-default-linuxapp-gcc/lib/librte_eal.a(eal_debug.o)
                0x00000000004a0f30                rte_dump_stack
                0x00000000004a0fc0                rte_dump_registers
                0x00000000004a0fd0                rte_exit
 *fill*         0x00000000004a10a9        0x7 90909090
 .text          0x00000000004a10b0      0x539 /home/vadim/projects/ipaugenblick/dpdk-1.6.0r2/x86_64-default-linuxapp-gcc/lib/librte_eal.a(eal_lcore.o)
                0x00000000004a14e0                rte_eal_cpu_init
 *fill*         0x00000000004a15e9        0x7 90909090
 .text          0x00000000004a15f0      0x519 /home/vadim/projects/ipaugenblick/dpdk-1.6.0r2/x86_64-default-linuxapp-gcc/lib/librte_eal.a(eal_timer.o)
                0x00000000004a1750                rte_delay_us
                0x00000000004a1850                rte_get_tsc_hz
                0x00000000004a1860                rte_eal_timer_init
 *fill*         0x00000000004a1b09        0x7 90909090
 .text          0x00000000004a1b10      0xa83 /home/vadim/projects/ipaugenblick/dpdk-1.6.0r2/x86_64-default-linuxapp-gcc/lib/librte_eal.a(eal_interrupts.o)
                0x00000000004a1f50                rte_intr_callback_register
                0x00000000004a2190                rte_intr_callback_unregister
                0x00000000004a2380                rte_intr_enable
                0x00000000004a2450                rte_intr_disable
                0x00000000004a2520                rte_eal_intr_init
 *fill*         0x00000000004a2593        0xd 90909090
 .text          0x00000000004a25a0      0x596 /home/vadim/projects/ipaugenblick/dpdk-1.6.0r2/x86_64-default-linuxapp-gcc/lib/librte_eal.a(eal_alarm.o)
                0x00000000004a26f0                rte_eal_alarm_init
                0x00000000004a2740                rte_eal_alarm_set
                0x00000000004a2950                rte_eal_alarm_cancel
 *fill*         0x00000000004a2b36        0xa 90909090
 .text          0x00000000004a2b40      0xc3c /home/vadim/projects/ipaugenblick/dpdk-1.6.0r2/x86_64-default-linuxapp-gcc/lib/librte_eal.a(eal_common_memzone.o)
                0x00000000004a3180                rte_memzone_reserve
                0x00000000004a3240                rte_memzone_reserve_aligned
                0x00000000004a3310                rte_memzone_reserve_bounded
                0x00000000004a33e0                rte_memzone_lookup
                0x00000000004a34b0                rte_memzone_dump
                0x00000000004a3570                rte_eal_memzone_init
 *fill*         0x00000000004a377c        0x4 90909090
 .text          0x00000000004a3780      0xd00 /home/vadim/projects/ipaugenblick/dpdk-1.6.0r2/x86_64-default-linuxapp-gcc/lib/librte_eal.a(eal_common_log.o)
                0x00000000004a3780                rte_log_add_in_history
                0x00000000004a3d20                rte_log_set_history
                0x00000000004a3d30                rte_openlog_stream
                0x00000000004a3d50                rte_set_log_level
                0x00000000004a3d60                rte_set_log_type
                0x00000000004a3d90                rte_log_cur_msg_loglevel
                0x00000000004a3db0                rte_log_cur_msg_logtype
                0x00000000004a3dd0                rte_log_dump_history
                0x00000000004a4330                rte_vlog
                0x00000000004a4390                rte_eal_common_log_init
 .text          0x00000000004a4480      0x29e /home/vadim/projects/ipaugenblick/dpdk-1.6.0r2/x86_64-default-linuxapp-gcc/lib/librte_eal.a(eal_common_launch.o)
                0x00000000004a4480                rte_eal_wait_lcore
                0x00000000004a44d0                rte_eal_mp_remote_launch
                0x00000000004a4660                rte_eal_get_lcore_state
                0x00000000004a4670                rte_eal_mp_wait_lcore
 *fill*         0x00000000004a471e        0x2 90909090
 .text          0x00000000004a4720      0x2fb /home/vadim/projects/ipaugenblick/dpdk-1.6.0r2/x86_64-default-linuxapp-gcc/lib/librte_eal.a(eal_common_pci.o)
                0x00000000004a4720                rte_eal_pci_probe
                0x00000000004a48a0                rte_eal_pci_dump
                0x00000000004a49d0                rte_eal_pci_register
                0x00000000004a49f0                rte_eal_pci_unregister
 *fill*         0x00000000004a4a1b        0x5 90909090
 .text          0x00000000004a4a20      0x118 /home/vadim/projects/ipaugenblick/dpdk-1.6.0r2/x86_64-default-linuxapp-gcc/lib/librte_eal.a(eal_common_memory.o)
                0x00000000004a4a20                rte_eal_get_physmem_layout
                0x00000000004a4a40                rte_eal_get_physmem_size
                0x00000000004a4a80                rte_dump_physmem_layout
                0x00000000004a4b00                rte_memory_get_nchannel
                0x00000000004a4b20                rte_memory_get_nrank
 *fill*         0x00000000004a4b38        0x8 90909090
 .text          0x00000000004a4b40      0x2d0 /home/vadim/projects/ipaugenblick/dpdk-1.6.0r2/x86_64-default-linuxapp-gcc/lib/librte_eal.a(eal_common_tailqs.o)
                0x00000000004a4b40                rte_eal_tailq_lookup
                0x00000000004a4bc0                rte_eal_tailq_lookup_by_idx
                0x00000000004a4c30                rte_eal_tailq_reserve
                0x00000000004a4cb0                rte_eal_tailq_reserve_by_idx
                0x00000000004a4d20                rte_dump_tailq
                0x00000000004a4db0                rte_eal_tailqs_init
 .text          0x00000000004a4e10      0x1b3 /home/vadim/projects/ipaugenblick/dpdk-1.6.0r2/x86_64-default-linuxapp-gcc/lib/librte_eal.a(eal_common_errno.o)
                0x00000000004a4f40                rte_strerror
 *fill*         0x00000000004a4fc3        0xd 90909090
 .text          0x00000000004a4fd0       0x74 /home/vadim/projects/ipaugenblick/dpdk-1.6.0r2/x86_64-default-linuxapp-gcc/lib/librte_eal.a(eal_common_cpuflags.o)
                0x00000000004a4fd0                rte_cpu_get_flag_enabled
 *fill*         0x00000000004a5044        0xc 90909090
 .text          0x00000000004a5050      0x41b /home/vadim/projects/ipaugenblick/dpdk-1.6.0r2/x86_64-default-linuxapp-gcc/lib/librte_eal.a(eal_common_hexdump.o)
                0x00000000004a5180                rte_hexdump
                0x00000000004a5340                rte_memdump
 *fill*         0x00000000004a546b        0x5 90909090
 .text          0x00000000004a5470      0x4f0 /home/vadim/projects/ipaugenblick/dpdk-1.6.0r2/x86_64-default-linuxapp-gcc/lib/librte_eal.a(eal_common_devargs.o)
                0x00000000004a5470                rte_eal_devargs_add
                0x00000000004a5850                rte_eal_devargs_type_count
                0x00000000004a5880                rte_eal_devargs_dump
 .text          0x00000000004a5960      0x101 /home/vadim/projects/ipaugenblick/dpdk-1.6.0r2/x86_64-default-linuxapp-gcc/lib/librte_eal.a(eal_common_vdev.o)
                0x00000000004a5960                rte_eal_vdev_driver_register
                0x00000000004a5980                rte_eal_vdev_driver_unregister
                0x00000000004a59b0                rte_eal_vdev_init
 *fill*         0x00000000004a5a61        0xf 90909090
 .text          0x00000000004a5a70      0x65d /home/vadim/projects/ipaugenblick/dpdk-1.6.0r2/x86_64-default-linuxapp-gcc/lib/librte_cmdline.a(cmdline.o)
                0x00000000004a5bc0                cmdline_write_char
                0x00000000004a5c00                cmdline_set_prompt
                0x00000000004a5c30                cmdline_new
                0x00000000004a5d10                cmdline_free
                0x00000000004a5d70                cmdline_printf
                0x00000000004a5e80                cmdline_in
                0x00000000004a5fc0                cmdline_quit
                0x00000000004a5fe0                cmdline_interact
 *fill*         0x00000000004a60cd        0x3 90909090
 .text          0x00000000004a60d0      0x8dc /home/vadim/projects/ipaugenblick/dpdk-1.6.0r2/x86_64-default-linuxapp-gcc/lib/librte_cmdline.a(cmdline_cirbuf.o)
                0x00000000004a60d0                cirbuf_init
                0x00000000004a6100                cirbuf_add_buf_head
                0x00000000004a61e0                cirbuf_add_buf_tail
                0x00000000004a62c0                cirbuf_add_head_safe
                0x00000000004a6320                cirbuf_add_head
                0x00000000004a6370                cirbuf_add_tail_safe
                0x00000000004a63c0                cirbuf_add_tail
                0x00000000004a6400                cirbuf_align_left
                0x00000000004a6570                cirbuf_align_right
                0x00000000004a66d0                cirbuf_del_buf_head
                0x00000000004a6730                cirbuf_del_buf_tail
                0x00000000004a6770                cirbuf_del_head_safe
                0x00000000004a67b0                cirbuf_del_head
                0x00000000004a67d0                cirbuf_del_tail_safe
                0x00000000004a6810                cirbuf_del_tail
                0x00000000004a6830                cirbuf_get_buf_head
                0x00000000004a68d0                cirbuf_get_buf_tail
                0x00000000004a6990                cirbuf_get_head
                0x00000000004a69a0                cirbuf_get_tail
 *fill*         0x00000000004a69ac        0x4 90909090
 .text          0x00000000004a69b0      0xbd2 /home/vadim/projects/ipaugenblick/dpdk-1.6.0r2/x86_64-default-linuxapp-gcc/lib/librte_cmdline.a(cmdline_parse.o)
                0x00000000004a6c50                cmdline_isendoftoken
                0x00000000004a6ca0                cmdline_parse
                0x00000000004a6f20                cmdline_complete
 *fill*         0x00000000004a7582        0xe 90909090
 .text          0x00000000004a7590      0x535 /home/vadim/projects/ipaugenblick/dpdk-1.6.0r2/x86_64-default-linuxapp-gcc/lib/librte_cmdline.a(cmdline_parse_etheraddr.o)
                0x00000000004a76c0                cmdline_get_help_etheraddr
                0x00000000004a76e0                cmdline_parse_etheraddr
 *fill*         0x00000000004a7ac5        0xb 90909090
 .text          0x00000000004a7ad0      0x7d0 /home/vadim/projects/ipaugenblick/dpdk-1.6.0r2/x86_64-default-linuxapp-gcc/lib/librte_cmdline.a(cmdline_parse_ipaddr.o)
                0x00000000004a7c00                cmdline_get_help_ipaddr
                0x00000000004a80d0                cmdline_parse_ipaddr
 .text          0x00000000004a82a0      0x645 /home/vadim/projects/ipaugenblick/dpdk-1.6.0r2/x86_64-default-linuxapp-gcc/lib/librte_cmdline.a(cmdline_parse_num.o)
                0x00000000004a83d0                cmdline_get_help_num
                0x00000000004a8420                cmdline_parse_num
 *fill*         0x00000000004a88e5        0xb 90909090
 .text          0x00000000004a88f0      0x4ed /home/vadim/projects/ipaugenblick/dpdk-1.6.0r2/x86_64-default-linuxapp-gcc/lib/librte_cmdline.a(cmdline_parse_string.o)
                0x00000000004a8a20                cmdline_get_help_string
                0x00000000004a8af0                cmdline_complete_get_nb_string
                0x00000000004a8b70                cmdline_complete_get_elt_string
                0x00000000004a8c60                cmdline_parse_string
 *fill*         0x00000000004a8ddd        0x3 90909090
 .text          0x00000000004a8de0     0x12e2 /home/vadim/projects/ipaugenblick/dpdk-1.6.0r2/x86_64-default-linuxapp-gcc/lib/librte_cmdline.a(cmdline_rdline.o)
                0x00000000004a8fa0                rdline_init
                0x00000000004a9050                rdline_newline
                0x00000000004a9130                rdline_stop
                0x00000000004a9140                rdline_quit
                0x00000000004a9150                rdline_restart
                0x00000000004a9160                rdline_reset
                0x00000000004a91c0                rdline_get_buffer
                0x00000000004a9250                rdline_redisplay
                0x00000000004a9320                rdline_get_history_item
                0x00000000004a9440                rdline_add_history
                0x00000000004a9540                rdline_char_in
                0x00000000004aa0a0                rdline_clear_history
 *fill*         0x00000000004aa0c2        0xe 90909090
 .text          0x00000000004aa0d0      0x156 /home/vadim/projects/ipaugenblick/dpdk-1.6.0r2/x86_64-default-linuxapp-gcc/lib/librte_cmdline.a(cmdline_vt100.o)
                0x00000000004aa0d0                vt100_init
                0x00000000004aa0e0                vt100_parser
 *fill*         0x00000000004aa226        0xa 90909090
 .text          0x00000000004aa230      0x1d2 /home/vadim/projects/ipaugenblick/dpdk-1.6.0r2/x86_64-default-linuxapp-gcc/lib/librte_cmdline.a(cmdline_socket.o)
                0x00000000004aa230                cmdline_file_new
                0x00000000004aa2a0                cmdline_stdin_new
                0x00000000004aa3d0                cmdline_stdin_exit
 *fill*         0x00000000004aa402        0xe 90909090
 .text          0x00000000004aa410      0x39f /home/vadim/projects/ipaugenblick/dpdk-1.6.0r2/x86_64-default-linuxapp-gcc/lib/librte_cmdline.a(cmdline_parse_portlist.o)
                0x00000000004aa540                cmdline_get_help_portlist
                0x00000000004aa560                cmdline_parse_portlist
 *fill*         0x00000000004aa7af        0x1 90909090
 .text          0x00000000004aa7b0       0x92 /usr/lib/x86_64-linux-gnu/libc_nonshared.a(elf-init.oS)
                0x00000000004aa7b0                __libc_csu_init
                0x00000000004aa840                __libc_csu_fini
 *fill*         0x00000000004aa842        0xe 90909090
 .text          0x00000000004aa850       0x36 /usr/lib/gcc/x86_64-linux-gnu/4.6/crtend.o
 *fill*         0x00000000004aa886        0x2 90909090
 .text          0x00000000004aa888        0x0 /usr/lib/gcc/x86_64-linux-gnu/4.6/../../../x86_64-linux-gnu/crtn.o
 *(.gnu.warning)

.fini           0x00000000004aa888        0xe
 *(.fini)
 .fini          0x00000000004aa888        0x4 /usr/lib/gcc/x86_64-linux-gnu/4.6/../../../x86_64-linux-gnu/crti.o
                0x00000000004aa888                _fini
 .fini          0x00000000004aa88c        0x5 /usr/lib/gcc/x86_64-linux-gnu/4.6/crtbegin.o
 .fini          0x00000000004aa891        0x5 /usr/lib/gcc/x86_64-linux-gnu/4.6/../../../x86_64-linux-gnu/crtn.o
                0x00000000004aa896                PROVIDE (__etext, .)
                0x00000000004aa896                PROVIDE (_etext, .)
                0x00000000004aa896                PROVIDE (etext, .)

.rodata         0x00000000004aa8a0     0xfe78
 *(.rodata .rodata.* .gnu.linkonce.r.*)
 .rodata.cst4   0x00000000004aa8a0        0x4 /usr/lib/gcc/x86_64-linux-gnu/4.6/../../../x86_64-linux-gnu/crt1.o
                0x00000000004aa8a0                _IO_stdin_used
 .rodata.str1.1
                0x00000000004aa8a4      0x3ad testpmd.o
                                        0x3b5 (size before relaxing)
 *fill*         0x00000000004aac51        0x7 00
 .rodata.str1.8
                0x00000000004aac58      0xba3 testpmd.o
 *fill*         0x00000000004ab7fb        0x5 00
 .rodata        0x00000000004ab800       0x67 testpmd.o
                0x00000000004ab800                vlan_tags
 *fill*         0x00000000004ab867        0x9 00
 .rodata.cst16  0x00000000004ab870       0x20 testpmd.o
 .rodata.str1.8
                0x00000000004ab890     0x16d1 parameters.o
 .rodata.str1.1
                0x00000000004acf61      0x418 parameters.o
                                        0x444 (size before relaxing)
 .rodata.str1.1
                0x00000000004ad379      0x7d4 cmdline.o
                                        0x953 (size before relaxing)
 *fill*         0x00000000004adb4d        0x3 00
 .rodata.str1.8
                0x00000000004adb50     0x3783 cmdline.o
 *fill*         0x00000000004b12d3        0xd 00
 .rodata        0x00000000004b12e0       0x20 cmdline.o
 .rodata.str1.8
                0x00000000004b1300     0x1346 config.o
                                       0x1366 (size before relaxing)
 .rodata.str1.1
                0x00000000004b2646      0x248 config.o
                                        0x268 (size before relaxing)
 *fill*         0x00000000004b288e        0x2 00
 .rodata.cst16  0x00000000004b2890       0x20 config.o
 .rodata.str1.1
                0x0000000000000000      0x248 iofwd.o
                                          0x3 (size before relaxing)
 .rodata.str1.1
                0x00000000004b28b0        0x4 macfwd.o
 .rodata.str1.1
                0x0000000000000000        0xa macfwd-retry.o
 *fill*         0x00000000004b28b4        0x4 00
 .rodata.str1.8
                0x00000000004b28b8       0x72 rxonly.o
                                         0x92 (size before relaxing)
 .rodata.str1.1
                0x00000000004b292a       0xd2 rxonly.o
 .rodata.str1.1
                0x00000000004b29fc        0x7 txonly.o
                                          0xd (size before relaxing)
 *fill*         0x00000000004b2a03        0x5 00
 .rodata.str1.8
                0x00000000004b2a08       0x7e txonly.o
 .rodata        0x00000000004b2a86        0xa txonly.o
 .rodata.str1.8
                0x00000000004b2a90       0x40 csumonly.o
 .rodata.str1.1
                0x00000000004b2ad0       0x40 csumonly.o
 .rodata.str1.8
                0x00000000004b2b10      0x159 mempool_anon.o
 .rodata.str1.1
                0x00000000004b2c69       0x13 mempool_anon.o
                                         0x19 (size before relaxing)
 *fill*         0x00000000004b2c7c        0x4 00
 .rodata        0x00000000004b2c80       0x14 mempool_anon.o
 .rodata.str1.1
                0x00000000004b2c94      0x106 /home/vadim/projects/ipaugenblick/dpdk-1.6.0r2/x86_64-default-linuxapp-gcc/lib/librte_kni.a(rte_kni.o)
                                        0x110 (size before relaxing)
 *fill*         0x00000000004b2d9a        0x6 00
 .rodata.str1.8
                0x00000000004b2da0      0x137 /home/vadim/projects/ipaugenblick/dpdk-1.6.0r2/x86_64-default-linuxapp-gcc/lib/librte_kni.a(rte_kni.o)
 *fill*         0x00000000004b2ed7        0x9 00
 .rodata        0x00000000004b2ee0       0x27 /home/vadim/projects/ipaugenblick/dpdk-1.6.0r2/x86_64-default-linuxapp-gcc/lib/librte_kni.a(rte_kni.o)
 *fill*         0x00000000004b2f07        0x9 00
 .rodata        0x00000000004b2f10       0x16 /home/vadim/projects/ipaugenblick/dpdk-1.6.0r2/x86_64-default-linuxapp-gcc/lib/librte_pmd_e1000.a(e1000_80003es2lan.o)
 *fill*         0x00000000004b2f26       0x1a 00
 .rodata        0x00000000004b2f40      0x100 /home/vadim/projects/ipaugenblick/dpdk-1.6.0r2/x86_64-default-linuxapp-gcc/lib/librte_pmd_e1000.a(e1000_82541.o)
 .rodata        0x00000000004b3040       0x78 /home/vadim/projects/ipaugenblick/dpdk-1.6.0r2/x86_64-default-linuxapp-gcc/lib/librte_pmd_e1000.a(e1000_82571.o)
 *fill*         0x00000000004b30b8        0x8 00
 .rodata        0x00000000004b30c0       0x16 /home/vadim/projects/ipaugenblick/dpdk-1.6.0r2/x86_64-default-linuxapp-gcc/lib/librte_pmd_e1000.a(e1000_82575.o)
 *fill*         0x00000000004b30d6        0x2 00
 .rodata        0x00000000004b30d8      0x100 /home/vadim/projects/ipaugenblick/dpdk-1.6.0r2/x86_64-default-linuxapp-gcc/lib/librte_pmd_e1000.a(e1000_i210.o)
 .rodata        0x00000000004b31d8      0x110 /home/vadim/projects/ipaugenblick/dpdk-1.6.0r2/x86_64-default-linuxapp-gcc/lib/librte_pmd_e1000.a(e1000_api.o)
 *fill*         0x00000000004b32e8        0x8 00
 .rodata        0x00000000004b32f0       0x9e /home/vadim/projects/ipaugenblick/dpdk-1.6.0r2/x86_64-default-linuxapp-gcc/lib/librte_pmd_e1000.a(e1000_ich8lan.o)
 *fill*         0x00000000004b338e        0x2 00
 .rodata.str1.8
                0x00000000004b3390       0xc7 /home/vadim/projects/ipaugenblick/dpdk-1.6.0r2/x86_64-default-linuxapp-gcc/lib/librte_pmd_e1000.a(e1000_ich8lan.o)
 .rodata.str1.1
                0x0000000000000000        0x6 /home/vadim/projects/ipaugenblick/dpdk-1.6.0r2/x86_64-default-linuxapp-gcc/lib/librte_pmd_e1000.a(e1000_ich8lan.o)
 *fill*         0x00000000004b3457        0x9 00
 .rodata.cst16  0x00000000004b3460       0x10 /home/vadim/projects/ipaugenblick/dpdk-1.6.0r2/x86_64-default-linuxapp-gcc/lib/librte_pmd_e1000.a(e1000_ich8lan.o)
 .rodata        0x00000000004b3470       0x38 /home/vadim/projects/ipaugenblick/dpdk-1.6.0r2/x86_64-default-linuxapp-gcc/lib/librte_pmd_e1000.a(e1000_nvm.o)
 *fill*         0x00000000004b34a8       0x18 00
 .rodata        0x00000000004b34c0      0x102 /home/vadim/projects/ipaugenblick/dpdk-1.6.0r2/x86_64-default-linuxapp-gcc/lib/librte_pmd_e1000.a(e1000_phy.o)
 *fill*         0x00000000004b35c2        0x6 00
 .rodata        0x00000000004b35c8       0x48 /home/vadim/projects/ipaugenblick/dpdk-1.6.0r2/x86_64-default-linuxapp-gcc/lib/librte_pmd_e1000.a(igb_ethdev.o)
 .rodata.str1.1
                0x00000000004b3610       0x26 /home/vadim/projects/ipaugenblick/dpdk-1.6.0r2/x86_64-default-linuxapp-gcc/lib/librte_pmd_e1000.a(igb_ethdev.o)
 *fill*         0x00000000004b3636        0xa 00
 .rodata.cst16  0x00000000004b3640       0x10 /home/vadim/projects/ipaugenblick/dpdk-1.6.0r2/x86_64-default-linuxapp-gcc/lib/librte_pmd_e1000.a(igb_ethdev.o)
 .rodata.str1.8
                0x00000000004b3650       0xe6 /home/vadim/projects/ipaugenblick/dpdk-1.6.0r2/x86_64-default-linuxapp-gcc/lib/librte_pmd_e1000.a(igb_rxtx.o)
 .rodata.str1.1
                0x00000000004b3736       0x3a /home/vadim/projects/ipaugenblick/dpdk-1.6.0r2/x86_64-default-linuxapp-gcc/lib/librte_pmd_e1000.a(igb_rxtx.o)
                                         0x56 (size before relaxing)
 *fill*         0x00000000004b3770       0x10 00
 .rodata        0x00000000004b3780       0x70 /home/vadim/projects/ipaugenblick/dpdk-1.6.0r2/x86_64-default-linuxapp-gcc/lib/librte_pmd_e1000.a(igb_rxtx.o)
 .rodata.str1.1
                0x00000000004b37f0       0x22 /home/vadim/projects/ipaugenblick/dpdk-1.6.0r2/x86_64-default-linuxapp-gcc/lib/librte_pmd_e1000.a(igb_pf.o)
                                         0x28 (size before relaxing)
 *fill*         0x00000000004b3812        0x6 00
 .rodata.str1.8
                0x00000000004b3818       0x54 /home/vadim/projects/ipaugenblick/dpdk-1.6.0r2/x86_64-default-linuxapp-gcc/lib/librte_pmd_e1000.a(igb_pf.o)
 *fill*         0x00000000004b386c        0x4 00
 .rodata        0x00000000004b3870       0x11 /home/vadim/projects/ipaugenblick/dpdk-1.6.0r2/x86_64-default-linuxapp-gcc/lib/librte_pmd_e1000.a(igb_pf.o)
 .rodata.str1.1
                0x00000000004b3881        0xb /home/vadim/projects/ipaugenblick/dpdk-1.6.0r2/x86_64-default-linuxapp-gcc/lib/librte_pmd_e1000.a(em_ethdev.o)
                                         0x11 (size before relaxing)
 *fill*         0x00000000004b388c       0x14 00
 .rodata        0x00000000004b38a0       0x74 /home/vadim/projects/ipaugenblick/dpdk-1.6.0r2/x86_64-default-linuxapp-gcc/lib/librte_pmd_e1000.a(em_ethdev.o)
 *fill*         0x00000000004b3914        0x4 00
 .rodata.str1.8
                0x00000000004b3918      0x18c /home/vadim/projects/ipaugenblick/dpdk-1.6.0r2/x86_64-default-linuxapp-gcc/lib/librte_pmd_e1000.a(em_rxtx.o)
 .rodata.str1.1
                0x0000000000000000       0x56 /home/vadim/projects/ipaugenblick/dpdk-1.6.0r2/x86_64-default-linuxapp-gcc/lib/librte_pmd_e1000.a(em_rxtx.o)
 *fill*         0x00000000004b3aa4       0x1c 00
 .rodata        0x00000000004b3ac0       0x70 /home/vadim/projects/ipaugenblick/dpdk-1.6.0r2/x86_64-default-linuxapp-gcc/lib/librte_pmd_e1000.a(em_rxtx.o)
 .rodata.str1.1
                0x00000000004b3b30        0xd /home/vadim/projects/ipaugenblick/dpdk-1.6.0r2/x86_64-default-linuxapp-gcc/lib/librte_pmd_ixgbe.a(ixgbe_common.o)
                                         0x13 (size before relaxing)
 *fill*         0x00000000004b3b3d        0x3 00
 .rodata        0x00000000004b3b40       0x11 /home/vadim/projects/ipaugenblick/dpdk-1.6.0r2/x86_64-default-linuxapp-gcc/lib/librte_pmd_ixgbe.a(ixgbe_common.o)
 *fill*         0x00000000004b3b51        0xf 00
 .rodata.cst16  0x00000000004b3b60      0x100 /home/vadim/projects/ipaugenblick/dpdk-1.6.0r2/x86_64-default-linuxapp-gcc/lib/librte_pmd_ixgbe.a(ixgbe_common.o)
 .rodata        0x00000000004b3c60      0x178 /home/vadim/projects/ipaugenblick/dpdk-1.6.0r2/x86_64-default-linuxapp-gcc/lib/librte_pmd_ixgbe.a(ixgbe_82598.o)
 .rodata        0x00000000004b3dd8       0x30 /home/vadim/projects/ipaugenblick/dpdk-1.6.0r2/x86_64-default-linuxapp-gcc/lib/librte_pmd_ixgbe.a(ixgbe_api.o)
 .rodata.str1.1
                0x0000000000000000       0x13 /home/vadim/projects/ipaugenblick/dpdk-1.6.0r2/x86_64-default-linuxapp-gcc/lib/librte_pmd_ixgbe.a(ixgbe_vf.o)
 *fill*         0x00000000004b3e08        0x8 00
 .rodata        0x00000000004b3e10       0x11 /home/vadim/projects/ipaugenblick/dpdk-1.6.0r2/x86_64-default-linuxapp-gcc/lib/librte_pmd_ixgbe.a(ixgbe_vf.o)
 .rodata.str1.1
                0x0000000000000000       0x13 /home/vadim/projects/ipaugenblick/dpdk-1.6.0r2/x86_64-default-linuxapp-gcc/lib/librte_pmd_ixgbe.a(ixgbe_dcb_82599.o)
 *fill*         0x00000000004b3e21        0xf 00
 .rodata        0x00000000004b3e30       0x17 /home/vadim/projects/ipaugenblick/dpdk-1.6.0r2/x86_64-default-linuxapp-gcc/lib/librte_pmd_ixgbe.a(ixgbe_dcb_82599.o)
 *fill*         0x00000000004b3e47        0x1 00
 .rodata.str1.8
                0x00000000004b3e48      0x19e /home/vadim/projects/ipaugenblick/dpdk-1.6.0r2/x86_64-default-linuxapp-gcc/lib/librte_pmd_ixgbe.a(ixgbe_rxtx.o)
                                        0x27e (size before relaxing)
 .rodata.str1.1
                0x0000000000000000       0x56 /home/vadim/projects/ipaugenblick/dpdk-1.6.0r2/x86_64-default-linuxapp-gcc/lib/librte_pmd_ixgbe.a(ixgbe_rxtx.o)
 *fill*         0x00000000004b3fe6       0x1a 00
 .rodata        0x00000000004b4000       0x90 /home/vadim/projects/ipaugenblick/dpdk-1.6.0r2/x86_64-default-linuxapp-gcc/lib/librte_pmd_ixgbe.a(ixgbe_rxtx.o)
 .rodata.str1.8
                0x00000000004b4090       0xf6 /home/vadim/projects/ipaugenblick/dpdk-1.6.0r2/x86_64-default-linuxapp-gcc/lib/librte_pmd_ixgbe.a(ixgbe_ethdev.o)
 .rodata.str1.1
                0x00000000004b4186       0x2c /home/vadim/projects/ipaugenblick/dpdk-1.6.0r2/x86_64-default-linuxapp-gcc/lib/librte_pmd_ixgbe.a(ixgbe_ethdev.o)
 .rodata.str1.1
                0x0000000000000000       0x28 /home/vadim/projects/ipaugenblick/dpdk-1.6.0r2/x86_64-default-linuxapp-gcc/lib/librte_pmd_ixgbe.a(ixgbe_pf.o)
 .rodata.str1.8
                0x0000000000000000       0x54 /home/vadim/projects/ipaugenblick/dpdk-1.6.0r2/x86_64-default-linuxapp-gcc/lib/librte_pmd_ixgbe.a(ixgbe_pf.o)
 *fill*         0x00000000004b41b2        0xe 00
 .rodata        0x00000000004b41c0       0x13 /home/vadim/projects/ipaugenblick/dpdk-1.6.0r2/x86_64-default-linuxapp-gcc/lib/librte_pmd_ixgbe.a(ixgbe_pf.o)
 .rodata.str1.1
                0x00000000004b41d3        0xe /home/vadim/projects/ipaugenblick/dpdk-1.6.0r2/x86_64-default-linuxapp-gcc/lib/librte_pmd_virtio_uio.a(virtio_rxtx.o)
 *fill*         0x00000000004b41e1        0x7 00
 .rodata.str1.8
                0x00000000004b41e8       0x53 /home/vadim/projects/ipaugenblick/dpdk-1.6.0r2/x86_64-default-linuxapp-gcc/lib/librte_pmd_virtio_uio.a(virtio_rxtx.o)
 .rodata.str1.1
                0x00000000004b423b       0x63 /home/vadim/projects/ipaugenblick/dpdk-1.6.0r2/x86_64-default-linuxapp-gcc/lib/librte_pmd_virtio_uio.a(virtio_ethdev.o)
 .rodata.str1.1
                0x00000000004b429e       0x53 /home/vadim/projects/ipaugenblick/dpdk-1.6.0r2/x86_64-default-linuxapp-gcc/lib/librte_pmd_vmxnet3_uio.a(vmxnet3_rxtx.o)
                                         0x65 (size before relaxing)
 *fill*         0x00000000004b42f1        0x7 00
 .rodata.str1.8
                0x00000000004b42f8       0x2c /home/vadim/projects/ipaugenblick/dpdk-1.6.0r2/x86_64-default-linuxapp-gcc/lib/librte_pmd_vmxnet3_uio.a(vmxnet3_rxtx.o)
 *fill*         0x00000000004b4324        0xc 00
 .rodata        0x00000000004b4330       0x20 /home/vadim/projects/ipaugenblick/dpdk-1.6.0r2/x86_64-default-linuxapp-gcc/lib/librte_pmd_vmxnet3_uio.a(vmxnet3_rxtx.o)
 .rodata.cst16  0x00000000004b4350       0x10 /home/vadim/projects/ipaugenblick/dpdk-1.6.0r2/x86_64-default-linuxapp-gcc/lib/librte_pmd_vmxnet3_uio.a(vmxnet3_rxtx.o)
 .rodata.str1.1
                0x00000000004b4360       0x3b /home/vadim/projects/ipaugenblick/dpdk-1.6.0r2/x86_64-default-linuxapp-gcc/lib/librte_pmd_vmxnet3_uio.a(vmxnet3_ethdev.o)
 .rodata.str1.1
                0x0000000000000000        0x6 /home/vadim/projects/ipaugenblick/dpdk-1.6.0r2/x86_64-default-linuxapp-gcc/lib/librte_timer.a(rte_timer.o)
 *fill*         0x00000000004b439b        0x5 00
 .rodata.str1.8
                0x00000000004b43a0       0x60 /home/vadim/projects/ipaugenblick/dpdk-1.6.0r2/x86_64-default-linuxapp-gcc/lib/librte_timer.a(rte_timer.o)
 .rodata        0x00000000004b4400       0x15 /home/vadim/projects/ipaugenblick/dpdk-1.6.0r2/x86_64-default-linuxapp-gcc/lib/librte_timer.a(rte_timer.o)
 *fill*         0x00000000004b4415        0x3 00
 .rodata        0x00000000004b4418       0x60 /home/vadim/projects/ipaugenblick/dpdk-1.6.0r2/x86_64-default-linuxapp-gcc/lib/librte_hash.a(rte_hash.o)
 .rodata.str1.8
                0x00000000004b4478       0x50 /home/vadim/projects/ipaugenblick/dpdk-1.6.0r2/x86_64-default-linuxapp-gcc/lib/librte_hash.a(rte_hash.o)
 .rodata.str1.1
                0x00000000004b44c8        0x6 /home/vadim/projects/ipaugenblick/dpdk-1.6.0r2/x86_64-default-linuxapp-gcc/lib/librte_hash.a(rte_hash.o)
                                          0x9 (size before relaxing)
 .rodata.str1.1
                0x00000000004b44ce        0x7 /home/vadim/projects/ipaugenblick/dpdk-1.6.0r2/x86_64-default-linuxapp-gcc/lib/librte_hash.a(rte_fbk_hash.o)
                                          0xa (size before relaxing)
 .rodata.str1.1
                0x00000000004b44d5        0x7 /home/vadim/projects/ipaugenblick/dpdk-1.6.0r2/x86_64-default-linuxapp-gcc/lib/librte_lpm.a(rte_lpm.o)
                                          0xa (size before relaxing)
 *fill*         0x00000000004b44dc        0x4 00
 .rodata.str1.8
                0x00000000004b44e0       0x23 /home/vadim/projects/ipaugenblick/dpdk-1.6.0r2/x86_64-default-linuxapp-gcc/lib/librte_lpm.a(rte_lpm.o)
 .rodata.str1.1
                0x0000000000000000        0xa /home/vadim/projects/ipaugenblick/dpdk-1.6.0r2/x86_64-default-linuxapp-gcc/lib/librte_lpm.a(rte_lpm6.o)
 .rodata.str1.8
                0x0000000000000000       0x23 /home/vadim/projects/ipaugenblick/dpdk-1.6.0r2/x86_64-default-linuxapp-gcc/lib/librte_lpm.a(rte_lpm6.o)
 *fill*         0x00000000004b4503        0x5 00
 .rodata.str1.8
                0x00000000004b4508      0x58a /home/vadim/projects/ipaugenblick/dpdk-1.6.0r2/x86_64-default-linuxapp-gcc/lib/librte_power.a(rte_power.o)
 .rodata.str1.1
                0x00000000004b4a92       0x5e /home/vadim/projects/ipaugenblick/dpdk-1.6.0r2/x86_64-default-linuxapp-gcc/lib/librte_power.a(rte_power.o)
                                         0x66 (size before relaxing)
 .rodata.str1.8
                0x00000000004b4af0       0xcd /home/vadim/projects/ipaugenblick/dpdk-1.6.0r2/x86_64-default-linuxapp-gcc/lib/librte_meter.a(rte_meter.o)
 *fill*         0x00000000004b4bbd        0x3 00
 .rodata.cst8   0x00000000004b4bc0       0x10 /home/vadim/projects/ipaugenblick/dpdk-1.6.0r2/x86_64-default-linuxapp-gcc/lib/librte_meter.a(rte_meter.o)
 .rodata.str1.8
                0x00000000004b4bd0      0x29f /home/vadim/projects/ipaugenblick/dpdk-1.6.0r2/x86_64-default-linuxapp-gcc/lib/librte_sched.a(rte_sched.o)
 .rodata.str1.1
                0x00000000004b4e6f       0x1a /home/vadim/projects/ipaugenblick/dpdk-1.6.0r2/x86_64-default-linuxapp-gcc/lib/librte_sched.a(rte_sched.o)
                                         0x20 (size before relaxing)
 .rodata        0x00000000004b4e89        0xf /home/vadim/projects/ipaugenblick/dpdk-1.6.0r2/x86_64-default-linuxapp-gcc/lib/librte_sched.a(rte_sched.o)
 .rodata.cst8   0x00000000004b4e98        0x8 /home/vadim/projects/ipaugenblick/dpdk-1.6.0r2/x86_64-default-linuxapp-gcc/lib/librte_sched.a(rte_sched.o)
                                         0x10 (size before relaxing)
 .rodata.cst8   0x00000000004b4ea0       0x18 /home/vadim/projects/ipaugenblick/dpdk-1.6.0r2/x86_64-default-linuxapp-gcc/lib/librte_sched.a(rte_approx.o)
 .rodata.str1.8
                0x00000000004b4eb8       0xc5 /home/vadim/projects/ipaugenblick/dpdk-1.6.0r2/x86_64-default-linuxapp-gcc/lib/librte_kvargs.a(rte_kvargs.o)
 .rodata.str1.1
                0x00000000004b4f7d       0x97 /home/vadim/projects/ipaugenblick/dpdk-1.6.0r2/x86_64-default-linuxapp-gcc/lib/librte_mbuf.a(rte_mbuf.o)
                                         0x9d (size before relaxing)
 *fill*         0x00000000004b5014        0x4 00
 .rodata.str1.8
                0x00000000004b5018       0x93 /home/vadim/projects/ipaugenblick/dpdk-1.6.0r2/x86_64-default-linuxapp-gcc/lib/librte_mbuf.a(rte_mbuf.o)
 *fill*         0x00000000004b50ab        0x5 00
 .rodata        0x00000000004b50b0       0x16 /home/vadim/projects/ipaugenblick/dpdk-1.6.0r2/x86_64-default-linuxapp-gcc/lib/librte_mbuf.a(rte_mbuf.o)
 .rodata.str1.1
                0x00000000004b50c6       0x61 /home/vadim/projects/ipaugenblick/dpdk-1.6.0r2/x86_64-default-linuxapp-gcc/lib/libethdev.a(rte_ethdev.o)
                                         0x67 (size before relaxing)
 *fill*         0x00000000004b5127        0x1 00
 .rodata.str1.8
                0x00000000004b5128       0x6b /home/vadim/projects/ipaugenblick/dpdk-1.6.0r2/x86_64-default-linuxapp-gcc/lib/libethdev.a(rte_ethdev.o)
 *fill*         0x00000000004b5193        0xd 00
 .rodata        0x00000000004b51a0       0x31 /home/vadim/projects/ipaugenblick/dpdk-1.6.0r2/x86_64-default-linuxapp-gcc/lib/libethdev.a(rte_ethdev.o)
 .rodata.str1.1
                0x00000000004b51d1       0x39 /home/vadim/projects/ipaugenblick/dpdk-1.6.0r2/x86_64-default-linuxapp-gcc/lib/librte_pmd_ring.a(rte_eth_ring.o)
 *fill*         0x00000000004b520a        0x6 00
 .rodata.str1.8
                0x00000000004b5210       0xb1 /home/vadim/projects/ipaugenblick/dpdk-1.6.0r2/x86_64-default-linuxapp-gcc/lib/librte_pmd_ring.a(rte_eth_ring.o)
 *fill*         0x00000000004b52c1        0x7 00
 .rodata        0x00000000004b52c8        0x8 /home/vadim/projects/ipaugenblick/dpdk-1.6.0r2/x86_64-default-linuxapp-gcc/lib/librte_pmd_ring.a(rte_eth_ring.o)
 .rodata.str1.1
                0x00000000004b52d0       0x7c /home/vadim/projects/ipaugenblick/dpdk-1.6.0r2/x86_64-default-linuxapp-gcc/lib/librte_malloc.a(rte_malloc.o)
                                         0x82 (size before relaxing)
 *fill*         0x00000000004b534c        0x4 00
 .rodata.str1.8
                0x00000000004b5350       0x55 /home/vadim/projects/ipaugenblick/dpdk-1.6.0r2/x86_64-default-linuxapp-gcc/lib/librte_malloc.a(rte_malloc.o)
 .rodata        0x00000000004b53a5       0x15 /home/vadim/projects/ipaugenblick/dpdk-1.6.0r2/x86_64-default-linuxapp-gcc/lib/librte_malloc.a(rte_malloc.o)
 .rodata.str1.1
                0x00000000004b53ba       0x19 /home/vadim/projects/ipaugenblick/dpdk-1.6.0r2/x86_64-default-linuxapp-gcc/lib/librte_malloc.a(malloc_elem.o)
                                         0x1f (size before relaxing)
 *fill*         0x00000000004b53d3        0xd 00
 .rodata        0x00000000004b53e0       0x16 /home/vadim/projects/ipaugenblick/dpdk-1.6.0r2/x86_64-default-linuxapp-gcc/lib/librte_malloc.a(malloc_elem.o)
 .rodata.str1.1
                0x00000000004b53f6       0x17 /home/vadim/projects/ipaugenblick/dpdk-1.6.0r2/x86_64-default-linuxapp-gcc/lib/librte_malloc.a(malloc_heap.o)
 *fill*         0x00000000004b540d        0x3 00
 .rodata.str1.8
                0x00000000004b5410       0x98 /home/vadim/projects/ipaugenblick/dpdk-1.6.0r2/x86_64-default-linuxapp-gcc/lib/librte_mempool.a(rte_mempool.o)
 .rodata.str1.1
                0x00000000004b54a8      0x1b2 /home/vadim/projects/ipaugenblick/dpdk-1.6.0r2/x86_64-default-linuxapp-gcc/lib/librte_mempool.a(rte_mempool.o)
                                        0x1c1 (size before relaxing)
 *fill*         0x00000000004b565a        0x6 00
 .rodata        0x00000000004b5660       0x14 /home/vadim/projects/ipaugenblick/dpdk-1.6.0r2/x86_64-default-linuxapp-gcc/lib/librte_mempool.a(rte_mempool.o)
 *fill*         0x00000000004b5674        0x4 00
 .rodata.cst8   0x00000000004b5678        0x8 /home/vadim/projects/ipaugenblick/dpdk-1.6.0r2/x86_64-default-linuxapp-gcc/lib/librte_mempool.a(rte_mempool.o)
 .rodata.cst4   0x00000000004b5680        0x4 /home/vadim/projects/ipaugenblick/dpdk-1.6.0r2/x86_64-default-linuxapp-gcc/lib/librte_mempool.a(rte_mempool.o)
 *fill*         0x00000000004b5684        0x4 00
 .rodata.str1.8
                0x00000000004b5688       0x5a /home/vadim/projects/ipaugenblick/dpdk-1.6.0r2/x86_64-default-linuxapp-gcc/lib/librte_ring.a(rte_ring.o)
 .rodata.str1.1
                0x00000000004b56e2       0x8d /home/vadim/projects/ipaugenblick/dpdk-1.6.0r2/x86_64-default-linuxapp-gcc/lib/librte_ring.a(rte_ring.o)
                                         0xc1 (size before relaxing)
 *fill*         0x00000000004b576f        0x1 00
 .rodata.str1.8
                0x00000000004b5770      0xd59 /home/vadim/projects/ipaugenblick/dpdk-1.6.0r2/x86_64-default-linuxapp-gcc/lib/librte_eal.a(eal.o)
 .rodata.str1.1
                0x00000000004b64c9      0x336 /home/vadim/projects/ipaugenblick/dpdk-1.6.0r2/x86_64-default-linuxapp-gcc/lib/librte_eal.a(eal.o)
                                        0x343 (size before relaxing)
 *fill*         0x00000000004b67ff        0x1 00
 .rodata        0x00000000004b6800      0x1b6 /home/vadim/projects/ipaugenblick/dpdk-1.6.0r2/x86_64-default-linuxapp-gcc/lib/librte_eal.a(eal.o)
 *fill*         0x00000000004b69b6        0xa 00
 .rodata.cst16  0x00000000004b69c0       0x10 /home/vadim/projects/ipaugenblick/dpdk-1.6.0r2/x86_64-default-linuxapp-gcc/lib/librte_eal.a(eal.o)
 .rodata.str1.1
                0x00000000004b69d0       0x50 /home/vadim/projects/ipaugenblick/dpdk-1.6.0r2/x86_64-default-linuxapp-gcc/lib/librte_eal.a(eal_hugepage_info.o)
                                         0x58 (size before relaxing)
 .rodata.str1.8
                0x00000000004b6a20      0x1ac /home/vadim/projects/ipaugenblick/dpdk-1.6.0r2/x86_64-default-linuxapp-gcc/lib/librte_eal.a(eal_hugepage_info.o)
 *fill*         0x00000000004b6bcc        0x4 00
 .rodata        0x00000000004b6bd0       0x74 /home/vadim/projects/ipaugenblick/dpdk-1.6.0r2/x86_64-default-linuxapp-gcc/lib/librte_eal.a(eal_hugepage_info.o)
 .rodata.str1.1
                0x00000000004b6c44      0x11c /home/vadim/projects/ipaugenblick/dpdk-1.6.0r2/x86_64-default-linuxapp-gcc/lib/librte_eal.a(eal_memory.o)
                                        0x13f (size before relaxing)
 .rodata.str1.8
                0x00000000004b6d60      0x687 /home/vadim/projects/ipaugenblick/dpdk-1.6.0r2/x86_64-default-linuxapp-gcc/lib/librte_eal.a(eal_memory.o)
 *fill*         0x00000000004b73e7        0x9 00
 .rodata        0x00000000004b73f0       0x98 /home/vadim/projects/ipaugenblick/dpdk-1.6.0r2/x86_64-default-linuxapp-gcc/lib/librte_eal.a(eal_memory.o)
 .rodata.str1.1
                0x00000000004b7488       0x69 /home/vadim/projects/ipaugenblick/dpdk-1.6.0r2/x86_64-default-linuxapp-gcc/lib/librte_eal.a(eal_thread.o)
                                         0x6f (size before relaxing)
 *fill*         0x00000000004b74f1        0x7 00
 .rodata.str1.8
                0x00000000004b74f8       0x98 /home/vadim/projects/ipaugenblick/dpdk-1.6.0r2/x86_64-default-linuxapp-gcc/lib/librte_eal.a(eal_thread.o)
 .rodata        0x00000000004b7590       0x50 /home/vadim/projects/ipaugenblick/dpdk-1.6.0r2/x86_64-default-linuxapp-gcc/lib/librte_eal.a(eal_thread.o)
 .rodata.str1.1
                0x0000000000000000       0x69 /home/vadim/projects/ipaugenblick/dpdk-1.6.0r2/x86_64-default-linuxapp-gcc/lib/librte_eal.a(eal_log.o)
                                          0x6 (size before relaxing)
 .rodata.str1.8
                0x00000000004b75e0       0x22 /home/vadim/projects/ipaugenblick/dpdk-1.6.0r2/x86_64-default-linuxapp-gcc/lib/librte_eal.a(eal_log.o)
 *fill*         0x00000000004b7602       0x1e 00
 .rodata        0x00000000004b7620       0x40 /home/vadim/projects/ipaugenblick/dpdk-1.6.0r2/x86_64-default-linuxapp-gcc/lib/librte_eal.a(eal_log.o)
 .rodata.str1.1
                0x00000000004b7660      0x151 /home/vadim/projects/ipaugenblick/dpdk-1.6.0r2/x86_64-default-linuxapp-gcc/lib/librte_eal.a(eal_pci.o)
                                        0x15c (size before relaxing)
 *fill*         0x00000000004b77b1        0x7 00
 .rodata.str1.8
                0x00000000004b77b8      0x440 /home/vadim/projects/ipaugenblick/dpdk-1.6.0r2/x86_64-default-linuxapp-gcc/lib/librte_eal.a(eal_pci.o)
                                        0x4b8 (size before relaxing)
 *fill*         0x00000000004b7bf8        0x8 00
 .rodata        0x00000000004b7c00       0xe9 /home/vadim/projects/ipaugenblick/dpdk-1.6.0r2/x86_64-default-linuxapp-gcc/lib/librte_eal.a(eal_pci.o)
 .rodata.str1.1
                0x00000000004b7ce9       0x1a /home/vadim/projects/ipaugenblick/dpdk-1.6.0r2/x86_64-default-linuxapp-gcc/lib/librte_eal.a(eal_debug.o)
 *fill*         0x00000000004b7d03        0x5 00
 .rodata.str1.8
                0x00000000004b7d08       0x2d /home/vadim/projects/ipaugenblick/dpdk-1.6.0r2/x86_64-default-linuxapp-gcc/lib/librte_eal.a(eal_debug.o)
 *fill*         0x00000000004b7d35        0x3 00
 .rodata.str1.8
                0x00000000004b7d38      0x1f8 /home/vadim/projects/ipaugenblick/dpdk-1.6.0r2/x86_64-default-linuxapp-gcc/lib/librte_eal.a(eal_lcore.o)
 .rodata.str1.1
                0x00000000004b7f30       0x4c /home/vadim/projects/ipaugenblick/dpdk-1.6.0r2/x86_64-default-linuxapp-gcc/lib/librte_eal.a(eal_lcore.o)
                                         0x52 (size before relaxing)
 *fill*         0x00000000004b7f7c        0x4 00
 .rodata        0x00000000004b7f80       0x11 /home/vadim/projects/ipaugenblick/dpdk-1.6.0r2/x86_64-default-linuxapp-gcc/lib/librte_eal.a(eal_lcore.o)
 .rodata.str1.1
                0x00000000004b7f91       0x2e /home/vadim/projects/ipaugenblick/dpdk-1.6.0r2/x86_64-default-linuxapp-gcc/lib/librte_eal.a(eal_timer.o)
                                         0x3c (size before relaxing)
 *fill*         0x00000000004b7fbf        0x1 00
 .rodata.str1.8
                0x00000000004b7fc0      0x130 /home/vadim/projects/ipaugenblick/dpdk-1.6.0r2/x86_64-default-linuxapp-gcc/lib/librte_eal.a(eal_timer.o)
                                        0x158 (size before relaxing)
 .rodata        0x00000000004b80f0       0x35 /home/vadim/projects/ipaugenblick/dpdk-1.6.0r2/x86_64-default-linuxapp-gcc/lib/librte_eal.a(eal_timer.o)
 *fill*         0x00000000004b8125        0x3 00
 .rodata.cst8   0x00000000004b8128       0x10 /home/vadim/projects/ipaugenblick/dpdk-1.6.0r2/x86_64-default-linuxapp-gcc/lib/librte_eal.a(eal_timer.o)
                                         0x18 (size before relaxing)
 .rodata.str1.8
                0x00000000004b8138      0x1fd /home/vadim/projects/ipaugenblick/dpdk-1.6.0r2/x86_64-default-linuxapp-gcc/lib/librte_eal.a(eal_interrupts.o)
 .rodata.str1.1
                0x00000000004b8335       0x4c /home/vadim/projects/ipaugenblick/dpdk-1.6.0r2/x86_64-default-linuxapp-gcc/lib/librte_eal.a(eal_interrupts.o)
                                         0x54 (size before relaxing)
 *fill*         0x00000000004b8381        0xf 00
 .rodata        0x00000000004b8390       0x20 /home/vadim/projects/ipaugenblick/dpdk-1.6.0r2/x86_64-default-linuxapp-gcc/lib/librte_eal.a(eal_interrupts.o)
 .rodata.str1.8
                0x00000000004b83b0      0x110 /home/vadim/projects/ipaugenblick/dpdk-1.6.0r2/x86_64-default-linuxapp-gcc/lib/librte_eal.a(eal_common_memzone.o)
 .rodata.str1.1
                0x0000000000000000        0x3 /home/vadim/projects/ipaugenblick/dpdk-1.6.0r2/x86_64-default-linuxapp-gcc/lib/librte_eal.a(eal_common_memzone.o)
 .rodata        0x00000000004b84c0       0x45 /home/vadim/projects/ipaugenblick/dpdk-1.6.0r2/x86_64-default-linuxapp-gcc/lib/librte_eal.a(eal_common_memzone.o)
 .rodata.str1.1
                0x0000000000000000       0x4c /home/vadim/projects/ipaugenblick/dpdk-1.6.0r2/x86_64-default-linuxapp-gcc/lib/librte_eal.a(eal_common_log.o)
                                          0xc (size before relaxing)
 *fill*         0x00000000004b8505        0x3 00
 .rodata.str1.8
                0x00000000004b8508       0x2e /home/vadim/projects/ipaugenblick/dpdk-1.6.0r2/x86_64-default-linuxapp-gcc/lib/librte_eal.a(eal_common_log.o)
 *fill*         0x00000000004b8536        0xa 00
 .rodata        0x00000000004b8540       0x18 /home/vadim/projects/ipaugenblick/dpdk-1.6.0r2/x86_64-default-linuxapp-gcc/lib/librte_eal.a(eal_common_log.o)
 .rodata.str1.8
                0x00000000004b8558       0x33 /home/vadim/projects/ipaugenblick/dpdk-1.6.0r2/x86_64-default-linuxapp-gcc/lib/librte_eal.a(eal_common_pci.o)
 .rodata.str1.1
                0x00000000004b858b       0x40 /home/vadim/projects/ipaugenblick/dpdk-1.6.0r2/x86_64-default-linuxapp-gcc/lib/librte_eal.a(eal_common_pci.o)
 *fill*         0x00000000004b85cb        0x5 00
 .rodata.str1.8
                0x00000000004b85d0       0x60 /home/vadim/projects/ipaugenblick/dpdk-1.6.0r2/x86_64-default-linuxapp-gcc/lib/librte_eal.a(eal_common_memory.o)
 .rodata.str1.8
                0x00000000004b8630       0x31 /home/vadim/projects/ipaugenblick/dpdk-1.6.0r2/x86_64-default-linuxapp-gcc/lib/librte_eal.a(eal_common_tailqs.o)
                                         0x59 (size before relaxing)
 .rodata.str1.1
                0x00000000004b8661       0x61 /home/vadim/projects/ipaugenblick/dpdk-1.6.0r2/x86_64-default-linuxapp-gcc/lib/librte_eal.a(eal_common_tailqs.o)
 *fill*         0x00000000004b86c2        0xe 00
 .rodata        0x00000000004b86d0       0x1c /home/vadim/projects/ipaugenblick/dpdk-1.6.0r2/x86_64-default-linuxapp-gcc/lib/librte_eal.a(eal_common_tailqs.o)
 *fill*         0x00000000004b86ec        0x4 00
 .rodata.str1.8
                0x00000000004b86f0       0x22 /home/vadim/projects/ipaugenblick/dpdk-1.6.0r2/x86_64-default-linuxapp-gcc/lib/librte_eal.a(eal_common_errno.o)
 .rodata.str1.1
                0x00000000004b8712       0x43 /home/vadim/projects/ipaugenblick/dpdk-1.6.0r2/x86_64-default-linuxapp-gcc/lib/librte_eal.a(eal_common_errno.o)
 *fill*         0x00000000004b8755        0x3 00
 .rodata.str1.8
                0x00000000004b8758       0x5b /home/vadim/projects/ipaugenblick/dpdk-1.6.0r2/x86_64-default-linuxapp-gcc/lib/librte_eal.a(eal_common_cpuflags.o)
 *fill*         0x00000000004b87b3        0xd 00
 .rodata        0x00000000004b87c0     0x1a54 /home/vadim/projects/ipaugenblick/dpdk-1.6.0r2/x86_64-default-linuxapp-gcc/lib/librte_eal.a(eal_common_cpuflags.o)
 .rodata.str1.1
                0x00000000004ba214       0x3f /home/vadim/projects/ipaugenblick/dpdk-1.6.0r2/x86_64-default-linuxapp-gcc/lib/librte_eal.a(eal_common_hexdump.o)
                                         0x45 (size before relaxing)
 .rodata.str1.1
                0x00000000004ba253       0x55 /home/vadim/projects/ipaugenblick/dpdk-1.6.0r2/x86_64-default-linuxapp-gcc/lib/librte_eal.a(eal_common_devargs.o)
                                         0x58 (size before relaxing)
 .rodata.str1.8
                0x00000000004ba2a8       0xc6 /home/vadim/projects/ipaugenblick/dpdk-1.6.0r2/x86_64-default-linuxapp-gcc/lib/librte_eal.a(eal_common_devargs.o)
 .rodata.str1.1
                0x00000000004ba36e       0x1c /home/vadim/projects/ipaugenblick/dpdk-1.6.0r2/x86_64-default-linuxapp-gcc/lib/librte_eal.a(eal_common_vdev.o)
                                         0x22 (size before relaxing)
 *fill*         0x00000000004ba38a        0x6 00
 .rodata        0x00000000004ba390       0x12 /home/vadim/projects/ipaugenblick/dpdk-1.6.0r2/x86_64-default-linuxapp-gcc/lib/librte_eal.a(eal_common_vdev.o)
 .rodata.str1.1
                0x00000000004ba3a2       0x35 /home/vadim/projects/ipaugenblick/dpdk-1.6.0r2/x86_64-default-linuxapp-gcc/lib/librte_cmdline.a(cmdline.o)
                                         0x38 (size before relaxing)
 .rodata.str1.1
                0x00000000004ba3d7       0x20 /home/vadim/projects/ipaugenblick/dpdk-1.6.0r2/x86_64-default-linuxapp-gcc/lib/librte_cmdline.a(cmdline_parse.o)
                                         0x23 (size before relaxing)
 .rodata.str1.1
                0x00000000004ba3f7       0x11 /home/vadim/projects/ipaugenblick/dpdk-1.6.0r2/x86_64-default-linuxapp-gcc/lib/librte_cmdline.a(cmdline_parse_etheraddr.o)
                                         0x14 (size before relaxing)
 .rodata.str1.1
                0x00000000004ba408       0x41 /home/vadim/projects/ipaugenblick/dpdk-1.6.0r2/x86_64-default-linuxapp-gcc/lib/librte_cmdline.a(cmdline_parse_ipaddr.o)
                                         0x56 (size before relaxing)
 *fill*         0x00000000004ba449        0x7 00
 .rodata        0x00000000004ba450       0x81 /home/vadim/projects/ipaugenblick/dpdk-1.6.0r2/x86_64-default-linuxapp-gcc/lib/librte_cmdline.a(cmdline_parse_ipaddr.o)
 .rodata.str1.1
                0x00000000004ba4d1       0x1b /home/vadim/projects/ipaugenblick/dpdk-1.6.0r2/x86_64-default-linuxapp-gcc/lib/librte_cmdline.a(cmdline_parse_num.o)
                                         0x35 (size before relaxing)
 *fill*         0x00000000004ba4ec       0x14 00
 .rodata        0x00000000004ba500       0xa0 /home/vadim/projects/ipaugenblick/dpdk-1.6.0r2/x86_64-default-linuxapp-gcc/lib/librte_cmdline.a(cmdline_parse_num.o)
 .rodata.str1.1
                0x00000000004ba5a0       0x2a /home/vadim/projects/ipaugenblick/dpdk-1.6.0r2/x86_64-default-linuxapp-gcc/lib/librte_cmdline.a(cmdline_parse_string.o)
                                         0x2d (size before relaxing)
 .rodata.str1.1
                0x00000000004ba5ca       0x21 /home/vadim/projects/ipaugenblick/dpdk-1.6.0r2/x86_64-default-linuxapp-gcc/lib/librte_cmdline.a(cmdline_rdline.o)
 *fill*         0x00000000004ba5eb        0x5 00
 .rodata        0x00000000004ba5f0       0xd0 /home/vadim/projects/ipaugenblick/dpdk-1.6.0r2/x86_64-default-linuxapp-gcc/lib/librte_cmdline.a(cmdline_rdline.o)
 .rodata.str1.1
                0x00000000004ba6c0       0x37 /home/vadim/projects/ipaugenblick/dpdk-1.6.0r2/x86_64-default-linuxapp-gcc/lib/librte_cmdline.a(cmdline_vt100.o)
                                         0x43 (size before relaxing)
 *fill*         0x00000000004ba6f7        0x1 00
 .rodata.str1.8
                0x00000000004ba6f8       0x20 /home/vadim/projects/ipaugenblick/dpdk-1.6.0r2/x86_64-default-linuxapp-gcc/lib/librte_cmdline.a(cmdline_parse_portlist.o)
 .rodata.str1.1
                0x0000000000000000        0x3 /home/vadim/projects/ipaugenblick/dpdk-1.6.0r2/x86_64-default-linuxapp-gcc/lib/librte_cmdline.a(cmdline_parse_portlist.o)

.rodata1
 *(.rodata1)

.eh_frame_hdr   0x00000000004ba718     0x355c
 *(.eh_frame_hdr)
 .eh_frame_hdr  0x00000000004ba718     0x355c /usr/lib/gcc/x86_64-linux-gnu/4.6/../../../x86_64-linux-gnu/crt1.o

.eh_frame       0x00000000004bdc78    0x1109c
 *(.eh_frame)
 .eh_frame      0x00000000004bdc78       0x40 /usr/lib/gcc/x86_64-linux-gnu/4.6/../../../x86_64-linux-gnu/crt1.o
 .eh_frame      0x00000000004bdcb8      0x528 testpmd.o
                                        0x510 (size before relaxing)
 .eh_frame      0x00000000004be1e0       0xe8 parameters.o
                                         0xf8 (size before relaxing)
 .eh_frame      0x00000000004be2c8      0xa50 cmdline.o
                                        0x9b0 (size before relaxing)
 .eh_frame      0x00000000004bed18      0x960 config.o
                                        0x8f8 (size before relaxing)
 .eh_frame      0x00000000004bf678       0x30 iofwd.o
                                         0x48 (size before relaxing)
 .eh_frame      0x00000000004bf6a8       0x50 macfwd.o
                                         0x68 (size before relaxing)
 .eh_frame      0x00000000004bf6f8       0x50 macfwd-retry.o
                                         0x68 (size before relaxing)
 .eh_frame      0x00000000004bf748       0xa0 rxonly.o
                                         0xb8 (size before relaxing)
 .eh_frame      0x00000000004bf7e8      0x130 txonly.o
                                        0x140 (size before relaxing)
 .eh_frame      0x00000000004bf918       0x50 csumonly.o
                                         0x68 (size before relaxing)
 .eh_frame      0x00000000004bf968       0x30 mempool_anon.o
                                         0x48 (size before relaxing)
 .eh_frame      0x00000000004bf998      0x2e8 /home/vadim/projects/ipaugenblick/dpdk-1.6.0r2/x86_64-default-linuxapp-gcc/lib/librte_kni.a(rte_kni.o)
                                        0x2d0 (size before relaxing)
 .eh_frame      0x00000000004bfc80      0x470 /home/vadim/projects/ipaugenblick/dpdk-1.6.0r2/x86_64-default-linuxapp-gcc/lib/librte_pmd_e1000.a(e1000_80003es2lan.o)
                                        0x450 (size before relaxing)
 .eh_frame      0x00000000004c00f0      0x180 /home/vadim/projects/ipaugenblick/dpdk-1.6.0r2/x86_64-default-linuxapp-gcc/lib/librte_pmd_e1000.a(e1000_82540.o)
 .eh_frame      0x00000000004c0270      0x2d0 /home/vadim/projects/ipaugenblick/dpdk-1.6.0r2/x86_64-default-linuxapp-gcc/lib/librte_pmd_e1000.a(e1000_82541.o)
                                        0x2a8 (size before relaxing)
 .eh_frame      0x00000000004c0540      0x188 /home/vadim/projects/ipaugenblick/dpdk-1.6.0r2/x86_64-default-linuxapp-gcc/lib/librte_pmd_e1000.a(e1000_82542.o)
                                        0x170 (size before relaxing)
 .eh_frame      0x00000000004c06c8      0x338 /home/vadim/projects/ipaugenblick/dpdk-1.6.0r2/x86_64-default-linuxapp-gcc/lib/librte_pmd_e1000.a(e1000_82543.o)
                                        0x300 (size before relaxing)
 .eh_frame      0x00000000004c0a00      0x490 /home/vadim/projects/ipaugenblick/dpdk-1.6.0r2/x86_64-default-linuxapp-gcc/lib/librte_pmd_e1000.a(e1000_82571.o)
                                        0x440 (size before relaxing)
 .eh_frame      0x00000000004c0e90      0x998 /home/vadim/projects/ipaugenblick/dpdk-1.6.0r2/x86_64-default-linuxapp-gcc/lib/librte_pmd_e1000.a(e1000_82575.o)
                                        0x910 (size before relaxing)
 .eh_frame      0x00000000004c1828      0x3e8 /home/vadim/projects/ipaugenblick/dpdk-1.6.0r2/x86_64-default-linuxapp-gcc/lib/librte_pmd_e1000.a(e1000_i210.o)
                                        0x3d0 (size before relaxing)
 .eh_frame      0x00000000004c1c10      0x608 /home/vadim/projects/ipaugenblick/dpdk-1.6.0r2/x86_64-default-linuxapp-gcc/lib/librte_pmd_e1000.a(e1000_api.o)
                                        0x528 (size before relaxing)
 .eh_frame      0x00000000004c2218      0x948 /home/vadim/projects/ipaugenblick/dpdk-1.6.0r2/x86_64-default-linuxapp-gcc/lib/librte_pmd_e1000.a(e1000_ich8lan.o)
                                        0x8b8 (size before relaxing)
 .eh_frame      0x00000000004c2b60      0x698 /home/vadim/projects/ipaugenblick/dpdk-1.6.0r2/x86_64-default-linuxapp-gcc/lib/librte_pmd_e1000.a(e1000_mac.o)
                                        0x608 (size before relaxing)
 .eh_frame      0x00000000004c31f8      0x1d8 /home/vadim/projects/ipaugenblick/dpdk-1.6.0r2/x86_64-default-linuxapp-gcc/lib/librte_pmd_e1000.a(e1000_manage.o)
                                        0x1e0 (size before relaxing)
 .eh_frame      0x00000000004c33d0      0x238 /home/vadim/projects/ipaugenblick/dpdk-1.6.0r2/x86_64-default-linuxapp-gcc/lib/librte_pmd_e1000.a(e1000_mbx.o)
                                        0x200 (size before relaxing)
 .eh_frame      0x00000000004c3608      0x578 /home/vadim/projects/ipaugenblick/dpdk-1.6.0r2/x86_64-default-linuxapp-gcc/lib/librte_pmd_e1000.a(e1000_nvm.o)
                                        0x548 (size before relaxing)
 .eh_frame      0x00000000004c3b80       0x90 /home/vadim/projects/ipaugenblick/dpdk-1.6.0r2/x86_64-default-linuxapp-gcc/lib/librte_pmd_e1000.a(e1000_osdep.o)
 .eh_frame      0x00000000004c3c10      0xf48 /home/vadim/projects/ipaugenblick/dpdk-1.6.0r2/x86_64-default-linuxapp-gcc/lib/librte_pmd_e1000.a(e1000_phy.o)
                                        0xe70 (size before relaxing)
 .eh_frame      0x00000000004c4b58      0x230 /home/vadim/projects/ipaugenblick/dpdk-1.6.0r2/x86_64-default-linuxapp-gcc/lib/librte_pmd_e1000.a(e1000_vf.o)
                                        0x210 (size before relaxing)
 .eh_frame      0x00000000004c4d88      0x558 /home/vadim/projects/ipaugenblick/dpdk-1.6.0r2/x86_64-default-linuxapp-gcc/lib/librte_pmd_e1000.a(igb_ethdev.o)
                                        0x520 (size before relaxing)
 .eh_frame      0x00000000004c52e0      0x470 /home/vadim/projects/ipaugenblick/dpdk-1.6.0r2/x86_64-default-linuxapp-gcc/lib/librte_pmd_e1000.a(igb_rxtx.o)
                                        0x468 (size before relaxing)
 .eh_frame      0x00000000004c5750       0xd0 /home/vadim/projects/ipaugenblick/dpdk-1.6.0r2/x86_64-default-linuxapp-gcc/lib/librte_pmd_e1000.a(igb_pf.o)
                                         0xe0 (size before relaxing)
 .eh_frame      0x00000000004c5820      0x340 /home/vadim/projects/ipaugenblick/dpdk-1.6.0r2/x86_64-default-linuxapp-gcc/lib/librte_pmd_e1000.a(em_ethdev.o)
                                        0x318 (size before relaxing)
 .eh_frame      0x00000000004c5b60      0x380 /home/vadim/projects/ipaugenblick/dpdk-1.6.0r2/x86_64-default-linuxapp-gcc/lib/librte_pmd_e1000.a(em_rxtx.o)
                                        0x370 (size before relaxing)
 .eh_frame      0x00000000004c5ee0      0xd48 /home/vadim/projects/ipaugenblick/dpdk-1.6.0r2/x86_64-default-linuxapp-gcc/lib/librte_pmd_ixgbe.a(ixgbe_common.o)
                                        0xc88 (size before relaxing)
 .eh_frame      0x00000000004c6c28      0x368 /home/vadim/projects/ipaugenblick/dpdk-1.6.0r2/x86_64-default-linuxapp-gcc/lib/librte_pmd_ixgbe.a(ixgbe_82598.o)
                                        0x348 (size before relaxing)
 .eh_frame      0x00000000004c6f90      0x5b8 /home/vadim/projects/ipaugenblick/dpdk-1.6.0r2/x86_64-default-linuxapp-gcc/lib/librte_pmd_ixgbe.a(ixgbe_82599.o)
                                        0x570 (size before relaxing)
 .eh_frame      0x00000000004c7548      0x320 /home/vadim/projects/ipaugenblick/dpdk-1.6.0r2/x86_64-default-linuxapp-gcc/lib/librte_pmd_ixgbe.a(ixgbe_x540.o)
                                        0x308 (size before relaxing)
 .eh_frame      0x00000000004c7868      0x560 /home/vadim/projects/ipaugenblick/dpdk-1.6.0r2/x86_64-default-linuxapp-gcc/lib/librte_pmd_ixgbe.a(ixgbe_phy.o)
                                        0x530 (size before relaxing)
 .eh_frame      0x00000000004c7dc8      0x768 /home/vadim/projects/ipaugenblick/dpdk-1.6.0r2/x86_64-default-linuxapp-gcc/lib/librte_pmd_ixgbe.a(ixgbe_api.o)
                                        0x658 (size before relaxing)
 .eh_frame      0x00000000004c8530      0x270 /home/vadim/projects/ipaugenblick/dpdk-1.6.0r2/x86_64-default-linuxapp-gcc/lib/librte_pmd_ixgbe.a(ixgbe_vf.o)
                                        0x250 (size before relaxing)
 .eh_frame      0x00000000004c87a0      0x2a8 /home/vadim/projects/ipaugenblick/dpdk-1.6.0r2/x86_64-default-linuxapp-gcc/lib/librte_pmd_ixgbe.a(ixgbe_dcb.o)
                                        0x280 (size before relaxing)
 .eh_frame      0x00000000004c8a48      0x138 /home/vadim/projects/ipaugenblick/dpdk-1.6.0r2/x86_64-default-linuxapp-gcc/lib/librte_pmd_ixgbe.a(ixgbe_dcb_82599.o)
                                        0x130 (size before relaxing)
 .eh_frame      0x00000000004c8b80       0xd0 /home/vadim/projects/ipaugenblick/dpdk-1.6.0r2/x86_64-default-linuxapp-gcc/lib/librte_pmd_ixgbe.a(ixgbe_dcb_82598.o)
 .eh_frame      0x00000000004c8c50      0x218 /home/vadim/projects/ipaugenblick/dpdk-1.6.0r2/x86_64-default-linuxapp-gcc/lib/librte_pmd_ixgbe.a(ixgbe_mbx.o)
                                        0x1e8 (size before relaxing)
 .eh_frame      0x00000000004c8e68      0x658 /home/vadim/projects/ipaugenblick/dpdk-1.6.0r2/x86_64-default-linuxapp-gcc/lib/librte_pmd_ixgbe.a(ixgbe_rxtx.o)
                                        0x638 (size before relaxing)
 .eh_frame      0x00000000004c94c0      0x7a0 /home/vadim/projects/ipaugenblick/dpdk-1.6.0r2/x86_64-default-linuxapp-gcc/lib/librte_pmd_ixgbe.a(ixgbe_ethdev.o)
                                        0x728 (size before relaxing)
 .eh_frame      0x00000000004c9c60      0x1b8 /home/vadim/projects/ipaugenblick/dpdk-1.6.0r2/x86_64-default-linuxapp-gcc/lib/librte_pmd_ixgbe.a(ixgbe_fdir.o)
 .eh_frame      0x00000000004c9e18       0xe8 /home/vadim/projects/ipaugenblick/dpdk-1.6.0r2/x86_64-default-linuxapp-gcc/lib/librte_pmd_ixgbe.a(ixgbe_pf.o)
                                         0xf8 (size before relaxing)
 .eh_frame      0x00000000004c9f00       0x30 /home/vadim/projects/ipaugenblick/dpdk-1.6.0r2/x86_64-default-linuxapp-gcc/lib/librte_pmd_virtio_uio.a(virtqueue.o)
                                         0x40 (size before relaxing)
 .eh_frame      0x00000000004c9f30       0xa8 /home/vadim/projects/ipaugenblick/dpdk-1.6.0r2/x86_64-default-linuxapp-gcc/lib/librte_pmd_virtio_uio.a(virtio_pci.o)
 .eh_frame      0x00000000004c9fd8      0x1a8 /home/vadim/projects/ipaugenblick/dpdk-1.6.0r2/x86_64-default-linuxapp-gcc/lib/librte_pmd_virtio_uio.a(virtio_rxtx.o)
                                        0x1b8 (size before relaxing)
 .eh_frame      0x00000000004ca180      0x218 /home/vadim/projects/ipaugenblick/dpdk-1.6.0r2/x86_64-default-linuxapp-gcc/lib/librte_pmd_virtio_uio.a(virtio_ethdev.o)
                                        0x200 (size before relaxing)
 .eh_frame      0x00000000004ca398      0x320 /home/vadim/projects/ipaugenblick/dpdk-1.6.0r2/x86_64-default-linuxapp-gcc/lib/librte_pmd_vmxnet3_uio.a(vmxnet3_rxtx.o)
                                        0x318 (size before relaxing)
 .eh_frame      0x00000000004ca6b8      0x1d8 /home/vadim/projects/ipaugenblick/dpdk-1.6.0r2/x86_64-default-linuxapp-gcc/lib/librte_pmd_vmxnet3_uio.a(vmxnet3_ethdev.o)
                                        0x1c0 (size before relaxing)
 .eh_frame      0x00000000004ca890      0x1c0 /home/vadim/projects/ipaugenblick/dpdk-1.6.0r2/x86_64-default-linuxapp-gcc/lib/librte_timer.a(rte_timer.o)
                                        0x1b8 (size before relaxing)
 .eh_frame      0x00000000004caa50      0x220 /home/vadim/projects/ipaugenblick/dpdk-1.6.0r2/x86_64-default-linuxapp-gcc/lib/librte_hash.a(rte_hash.o)
                                        0x228 (size before relaxing)
 .eh_frame      0x00000000004cac70       0xf8 /home/vadim/projects/ipaugenblick/dpdk-1.6.0r2/x86_64-default-linuxapp-gcc/lib/librte_hash.a(rte_fbk_hash.o)
                                        0x108 (size before relaxing)
 .eh_frame      0x00000000004cad68      0x1f8 /home/vadim/projects/ipaugenblick/dpdk-1.6.0r2/x86_64-default-linuxapp-gcc/lib/librte_lpm.a(rte_lpm.o)
                                        0x208 (size before relaxing)
 .eh_frame      0x00000000004caf60      0x278 /home/vadim/projects/ipaugenblick/dpdk-1.6.0r2/x86_64-default-linuxapp-gcc/lib/librte_lpm.a(rte_lpm6.o)
 .eh_frame      0x00000000004cb1d8      0x278 /home/vadim/projects/ipaugenblick/dpdk-1.6.0r2/x86_64-default-linuxapp-gcc/lib/librte_power.a(rte_power.o)
                                        0x268 (size before relaxing)
 .eh_frame      0x00000000004cb450       0x68 /home/vadim/projects/ipaugenblick/dpdk-1.6.0r2/x86_64-default-linuxapp-gcc/lib/librte_meter.a(rte_meter.o)
                                         0x80 (size before relaxing)
 .eh_frame      0x00000000004cb4b8      0x240 /home/vadim/projects/ipaugenblick/dpdk-1.6.0r2/x86_64-default-linuxapp-gcc/lib/librte_sched.a(rte_sched.o)
                                        0x230 (size before relaxing)
 .eh_frame      0x00000000004cb6f8       0x50 /home/vadim/projects/ipaugenblick/dpdk-1.6.0r2/x86_64-default-linuxapp-gcc/lib/librte_sched.a(rte_red.o)
                                         0x60 (size before relaxing)
 .eh_frame      0x00000000004cb748       0x60 /home/vadim/projects/ipaugenblick/dpdk-1.6.0r2/x86_64-default-linuxapp-gcc/lib/librte_sched.a(rte_approx.o)
                                         0x78 (size before relaxing)
 .eh_frame      0x00000000004cb7a8      0x128 /home/vadim/projects/ipaugenblick/dpdk-1.6.0r2/x86_64-default-linuxapp-gcc/lib/librte_kvargs.a(rte_kvargs.o)
                                        0x130 (size before relaxing)
 .eh_frame      0x00000000004cb8d0       0xc8 /home/vadim/projects/ipaugenblick/dpdk-1.6.0r2/x86_64-default-linuxapp-gcc/lib/librte_mbuf.a(rte_mbuf.o)
                                         0xd0 (size before relaxing)
 .eh_frame      0x00000000004cb998      0x8a8 /home/vadim/projects/ipaugenblick/dpdk-1.6.0r2/x86_64-default-linuxapp-gcc/lib/libethdev.a(rte_ethdev.o)
                                        0x810 (size before relaxing)
 .eh_frame      0x00000000004cc240      0x2d8 /home/vadim/projects/ipaugenblick/dpdk-1.6.0r2/x86_64-default-linuxapp-gcc/lib/librte_pmd_ring.a(rte_eth_ring.o)
                                        0x2b0 (size before relaxing)
 .eh_frame      0x00000000004cc518      0x1b0 /home/vadim/projects/ipaugenblick/dpdk-1.6.0r2/x86_64-default-linuxapp-gcc/lib/librte_malloc.a(rte_malloc.o)
                                        0x198 (size before relaxing)
 .eh_frame      0x00000000004cc6c8       0xb0 /home/vadim/projects/ipaugenblick/dpdk-1.6.0r2/x86_64-default-linuxapp-gcc/lib/librte_malloc.a(malloc_elem.o)
 .eh_frame      0x00000000004cc778       0x90 /home/vadim/projects/ipaugenblick/dpdk-1.6.0r2/x86_64-default-linuxapp-gcc/lib/librte_malloc.a(malloc_heap.o)
                                         0xa0 (size before relaxing)
 .eh_frame      0x00000000004cc808      0x330 /home/vadim/projects/ipaugenblick/dpdk-1.6.0r2/x86_64-default-linuxapp-gcc/lib/librte_mempool.a(rte_mempool.o)
                                        0x320 (size before relaxing)
 .eh_frame      0x00000000004ccb38       0xe8 /home/vadim/projects/ipaugenblick/dpdk-1.6.0r2/x86_64-default-linuxapp-gcc/lib/librte_ring.a(rte_ring.o)
                                         0xf8 (size before relaxing)
 .eh_frame      0x00000000004ccc20      0x170 /home/vadim/projects/ipaugenblick/dpdk-1.6.0r2/x86_64-default-linuxapp-gcc/lib/librte_eal.a(eal.o)
                                        0x168 (size before relaxing)
 .eh_frame      0x00000000004ccd90       0xe8 /home/vadim/projects/ipaugenblick/dpdk-1.6.0r2/x86_64-default-linuxapp-gcc/lib/librte_eal.a(eal_hugepage_info.o)
                                         0xf8 (size before relaxing)
 .eh_frame      0x00000000004cce78      0x1b8 /home/vadim/projects/ipaugenblick/dpdk-1.6.0r2/x86_64-default-linuxapp-gcc/lib/librte_eal.a(eal_memory.o)
                                        0x1c0 (size before relaxing)
 .eh_frame      0x00000000004cd030       0xa0 /home/vadim/projects/ipaugenblick/dpdk-1.6.0r2/x86_64-default-linuxapp-gcc/lib/librte_eal.a(eal_thread.o)
                                         0xb0 (size before relaxing)
 .eh_frame      0x00000000004cd0d0      0x120 /home/vadim/projects/ipaugenblick/dpdk-1.6.0r2/x86_64-default-linuxapp-gcc/lib/librte_eal.a(eal_log.o)
                                        0x118 (size before relaxing)
 .eh_frame      0x00000000004cd1f0      0x178 /home/vadim/projects/ipaugenblick/dpdk-1.6.0r2/x86_64-default-linuxapp-gcc/lib/librte_eal.a(eal_pci.o)
                                        0x188 (size before relaxing)
 .eh_frame      0x00000000004cd368       0x80 /home/vadim/projects/ipaugenblick/dpdk-1.6.0r2/x86_64-default-linuxapp-gcc/lib/librte_eal.a(eal_debug.o)
                                         0x90 (size before relaxing)
 .eh_frame      0x00000000004cd3e8       0xf0 /home/vadim/projects/ipaugenblick/dpdk-1.6.0r2/x86_64-default-linuxapp-gcc/lib/librte_eal.a(eal_lcore.o)
                                         0xf8 (size before relaxing)
 .eh_frame      0x00000000004cd4d8       0x98 /home/vadim/projects/ipaugenblick/dpdk-1.6.0r2/x86_64-default-linuxapp-gcc/lib/librte_eal.a(eal_timer.o)
                                         0xa0 (size before relaxing)
 .eh_frame      0x00000000004cd570      0x118 /home/vadim/projects/ipaugenblick/dpdk-1.6.0r2/x86_64-default-linuxapp-gcc/lib/librte_eal.a(eal_interrupts.o)
                                        0x128 (size before relaxing)
 .eh_frame      0x00000000004cd688       0xd0 /home/vadim/projects/ipaugenblick/dpdk-1.6.0r2/x86_64-default-linuxapp-gcc/lib/librte_eal.a(eal_alarm.o)
                                         0xe0 (size before relaxing)
 .eh_frame      0x00000000004cd758      0x1d0 /home/vadim/projects/ipaugenblick/dpdk-1.6.0r2/x86_64-default-linuxapp-gcc/lib/librte_eal.a(eal_common_memzone.o)
 .eh_frame      0x00000000004cd928      0x188 /home/vadim/projects/ipaugenblick/dpdk-1.6.0r2/x86_64-default-linuxapp-gcc/lib/librte_eal.a(eal_common_log.o)
                                        0x178 (size before relaxing)
 .eh_frame      0x00000000004cdab0       0xc0 /home/vadim/projects/ipaugenblick/dpdk-1.6.0r2/x86_64-default-linuxapp-gcc/lib/librte_eal.a(eal_common_launch.o)
                                         0xd0 (size before relaxing)
 .eh_frame      0x00000000004cdb70       0x90 /home/vadim/projects/ipaugenblick/dpdk-1.6.0r2/x86_64-default-linuxapp-gcc/lib/librte_eal.a(eal_common_pci.o)
                                         0x98 (size before relaxing)
 .eh_frame      0x00000000004cdc00       0x88 /home/vadim/projects/ipaugenblick/dpdk-1.6.0r2/x86_64-default-linuxapp-gcc/lib/librte_eal.a(eal_common_memory.o)
                                         0xa0 (size before relaxing)
 .eh_frame      0x00000000004cdc88      0x140 /home/vadim/projects/ipaugenblick/dpdk-1.6.0r2/x86_64-default-linuxapp-gcc/lib/librte_eal.a(eal_common_tailqs.o)
                                        0x148 (size before relaxing)
 .eh_frame      0x00000000004cddc8       0x48 /home/vadim/projects/ipaugenblick/dpdk-1.6.0r2/x86_64-default-linuxapp-gcc/lib/librte_eal.a(eal_common_errno.o)
                                         0x60 (size before relaxing)
 .eh_frame      0x00000000004cde10       0x48 /home/vadim/projects/ipaugenblick/dpdk-1.6.0r2/x86_64-default-linuxapp-gcc/lib/librte_eal.a(eal_common_cpuflags.o)
                                         0x58 (size before relaxing)
 .eh_frame      0x00000000004cde58       0xc0 /home/vadim/projects/ipaugenblick/dpdk-1.6.0r2/x86_64-default-linuxapp-gcc/lib/librte_eal.a(eal_common_hexdump.o)
                                         0xd0 (size before relaxing)
 .eh_frame      0x00000000004cdf18       0x70 /home/vadim/projects/ipaugenblick/dpdk-1.6.0r2/x86_64-default-linuxapp-gcc/lib/librte_eal.a(eal_common_devargs.o)
                                         0x80 (size before relaxing)
 .eh_frame      0x00000000004cdf88       0x70 /home/vadim/projects/ipaugenblick/dpdk-1.6.0r2/x86_64-default-linuxapp-gcc/lib/librte_eal.a(eal_common_vdev.o)
                                         0x80 (size before relaxing)
 .eh_frame      0x00000000004cdff8      0x1f0 /home/vadim/projects/ipaugenblick/dpdk-1.6.0r2/x86_64-default-linuxapp-gcc/lib/librte_cmdline.a(cmdline.o)
                                        0x1e0 (size before relaxing)
 .eh_frame      0x00000000004ce1e8      0x208 /home/vadim/projects/ipaugenblick/dpdk-1.6.0r2/x86_64-default-linuxapp-gcc/lib/librte_cmdline.a(cmdline_cirbuf.o)
                                        0x1e0 (size before relaxing)
 .eh_frame      0x00000000004ce3f0      0x130 /home/vadim/projects/ipaugenblick/dpdk-1.6.0r2/x86_64-default-linuxapp-gcc/lib/librte_cmdline.a(cmdline_parse.o)
                                        0x140 (size before relaxing)
 .eh_frame      0x00000000004ce520       0x88 /home/vadim/projects/ipaugenblick/dpdk-1.6.0r2/x86_64-default-linuxapp-gcc/lib/librte_cmdline.a(cmdline_parse_etheraddr.o)
                                         0xa0 (size before relaxing)
 .eh_frame      0x00000000004ce5a8      0x138 /home/vadim/projects/ipaugenblick/dpdk-1.6.0r2/x86_64-default-linuxapp-gcc/lib/librte_cmdline.a(cmdline_parse_ipaddr.o)
                                        0x148 (size before relaxing)
 .eh_frame      0x00000000004ce6e0       0xc0 /home/vadim/projects/ipaugenblick/dpdk-1.6.0r2/x86_64-default-linuxapp-gcc/lib/librte_cmdline.a(cmdline_parse_num.o)
                                         0xd0 (size before relaxing)
 .eh_frame      0x00000000004ce7a0       0xf0 /home/vadim/projects/ipaugenblick/dpdk-1.6.0r2/x86_64-default-linuxapp-gcc/lib/librte_cmdline.a(cmdline_parse_string.o)
                                        0x100 (size before relaxing)
 .eh_frame      0x00000000004ce890      0x2c0 /home/vadim/projects/ipaugenblick/dpdk-1.6.0r2/x86_64-default-linuxapp-gcc/lib/librte_cmdline.a(cmdline_rdline.o)
                                        0x2a8 (size before relaxing)
 .eh_frame      0x00000000004ceb50       0x78 /home/vadim/projects/ipaugenblick/dpdk-1.6.0r2/x86_64-default-linuxapp-gcc/lib/librte_cmdline.a(cmdline_vt100.o)
                                         0x90 (size before relaxing)
 .eh_frame      0x00000000004cebc8       0x78 /home/vadim/projects/ipaugenblick/dpdk-1.6.0r2/x86_64-default-linuxapp-gcc/lib/librte_cmdline.a(cmdline_socket.o)
                                         0x90 (size before relaxing)
 .eh_frame      0x00000000004cec40       0x90 /home/vadim/projects/ipaugenblick/dpdk-1.6.0r2/x86_64-default-linuxapp-gcc/lib/librte_cmdline.a(cmdline_parse_portlist.o)
                                         0xa8 (size before relaxing)
 .eh_frame      0x00000000004cecd0       0x40 /usr/lib/x86_64-linux-gnu/libc_nonshared.a(elf-init.oS)
                                         0x58 (size before relaxing)
 .eh_frame      0x00000000004ced10        0x4 /usr/lib/gcc/x86_64-linux-gnu/4.6/crtend.o

.gcc_except_table
 *(.gcc_except_table .gcc_except_table.*)

.exception_ranges
 *(.exception_ranges .exception_ranges*)
                0x00000000004ced14                . = (ALIGN (0x200000) - ((0x200000 - .) & 0x1fffff))
                0x00000000006cedb4                . = DATA_SEGMENT_ALIGN (0x200000, 0x1000)

.eh_frame
 *(.eh_frame)

.gcc_except_table
 *(.gcc_except_table .gcc_except_table.*)

.exception_ranges
 *(.exception_ranges .exception_ranges*)

.tdata
 *(.tdata .tdata.* .gnu.linkonce.td.*)

.tbss           0x00000000006cedb4      0x108
 *(.tbss .tbss.* .gnu.linkonce.tb.*)
 .tbss          0x00000000006cedb4        0x4 /home/vadim/projects/ipaugenblick/dpdk-1.6.0r2/x86_64-default-linuxapp-gcc/lib/librte_eal.a(eal_thread.o)
                0x00000000006cedb4                per_lcore__lcore_id
 .tbss          0x00000000006cedb8      0x104 /home/vadim/projects/ipaugenblick/dpdk-1.6.0r2/x86_64-default-linuxapp-gcc/lib/librte_eal.a(eal_common_errno.o)
                0x00000000006cedb8                per_lcore__rte_errno
 *(.tcommon)

.preinit_array  0x00000000006cedb4        0x0
                0x00000000006cedb4                PROVIDE (__preinit_array_start, .)
 *(.preinit_array)
                0x00000000006cedb4                PROVIDE (__preinit_array_end, .)

.init_array     0x00000000006cedb8       0x10
                0x00000000006cedb8                PROVIDE (__init_array_start, .)
 *(SORT(.init_array.*) SORT(.ctors.*))
 *(.init_array)
 *(EXCLUDE_FILE(*crtend?.o *crtend.o *crtbegin?.o *crtbegin.o) .ctors)
 .ctors         0x00000000006cedb8        0x8 /home/vadim/projects/ipaugenblick/dpdk-1.6.0r2/x86_64-default-linuxapp-gcc/lib/librte_pmd_ring.a(rte_eth_ring.o)
 .ctors         0x00000000006cedc0        0x8 /home/vadim/projects/ipaugenblick/dpdk-1.6.0r2/x86_64-default-linuxapp-gcc/lib/librte_eal.a(eal_common_cpuflags.o)
                0x00000000006cedc8                PROVIDE (__init_array_end, .)

.fini_array     0x00000000006cedc8        0x0
                0x00000000006cedc8                PROVIDE (__fini_array_start, .)
 *(SORT(.fini_array.*) SORT(.dtors.*))
 *(.fini_array)
 *(EXCLUDE_FILE(*crtend?.o *crtend.o *crtbegin?.o *crtbegin.o) .dtors)
                0x00000000006cedc8                PROVIDE (__fini_array_end, .)

.ctors          0x00000000006cedc8       0x10
 *crtbegin.o(.ctors)
 .ctors         0x00000000006cedc8        0x8 /usr/lib/gcc/x86_64-linux-gnu/4.6/crtbegin.o
 *crtbegin?.o(.ctors)
 *(EXCLUDE_FILE(*crtend?.o *crtend.o) .ctors)
 *(SORT(.ctors.*))
 *(.ctors)
 .ctors         0x00000000006cedd0        0x8 /usr/lib/gcc/x86_64-linux-gnu/4.6/crtend.o

.dtors          0x00000000006cedd8       0x10
 *crtbegin.o(.dtors)
 .dtors         0x00000000006cedd8        0x8 /usr/lib/gcc/x86_64-linux-gnu/4.6/crtbegin.o
 *crtbegin?.o(.dtors)
 *(EXCLUDE_FILE(*crtend?.o *crtend.o) .dtors)
 *(SORT(.dtors.*))
 *(.dtors)
 .dtors         0x00000000006cede0        0x8 /usr/lib/gcc/x86_64-linux-gnu/4.6/crtend.o
                0x00000000006cede0                __DTOR_END__

.jcr            0x00000000006cede8        0x8
 *(.jcr)
 .jcr           0x00000000006cede8        0x0 /usr/lib/gcc/x86_64-linux-gnu/4.6/crtbegin.o
 .jcr           0x00000000006cede8        0x8 /usr/lib/gcc/x86_64-linux-gnu/4.6/crtend.o

.data.rel.ro
 *(.data.rel.ro.local* .gnu.linkonce.d.rel.ro.local.*)
 *(.data.rel.ro* .gnu.linkonce.d.rel.ro.*)

.dynamic        0x00000000006cedf0      0x1e0
 *(.dynamic)
 .dynamic       0x00000000006cedf0      0x1e0 /usr/lib/gcc/x86_64-linux-gnu/4.6/../../../x86_64-linux-gnu/crt1.o
                0x00000000006cedf0                _DYNAMIC

.got            0x00000000006cefd0       0x18
 *(.got)
 .got           0x00000000006cefd0       0x18 /usr/lib/gcc/x86_64-linux-gnu/4.6/../../../x86_64-linux-gnu/crt1.o
 *(.igot)
                0x00000000006cefe8                . = DATA_SEGMENT_RELRO_END (., 0x18)

.got.plt        0x00000000006cefe8      0x388
 *(.got.plt)
 .got.plt       0x00000000006cefe8      0x388 /usr/lib/gcc/x86_64-linux-gnu/4.6/../../../x86_64-linux-gnu/crt1.o
                0x00000000006cefe8                _GLOBAL_OFFSET_TABLE_
 *(.igot.plt)
 .igot.plt      0x0000000000000000        0x0 /usr/lib/gcc/x86_64-linux-gnu/4.6/../../../x86_64-linux-gnu/crt1.o

.data           0x00000000006cf380     0x68a0
 *(.data .data.* .gnu.linkonce.d.*)
 .data          0x00000000006cf380        0x4 /usr/lib/gcc/x86_64-linux-gnu/4.6/../../../x86_64-linux-gnu/crt1.o
                0x00000000006cf380                data_start
                0x00000000006cf380                __data_start
 .data          0x00000000006cf384        0x0 /usr/lib/gcc/x86_64-linux-gnu/4.6/../../../x86_64-linux-gnu/crti.o
 *fill*         0x00000000006cf384        0x4 00
 .data          0x00000000006cf388        0x8 /usr/lib/gcc/x86_64-linux-gnu/4.6/crtbegin.o
                0x00000000006cf388                __dso_handle
 *fill*         0x00000000006cf390       0x10 00
 .data          0x00000000006cf3a0      0x2e1 testpmd.o
                0x00000000006cf3a0                rx_queue_stats_mappings
                0x00000000006cf3b0                tx_queue_stats_mappings
                0x00000000006cf3c0                fdir_conf
                0x00000000006cf3d0                rx_mode
                0x00000000006cf3e0                rss_hf
                0x00000000006cf3e2                tx_thresh
                0x00000000006cf3e5                rx_thresh
                0x00000000006cf3e8                nb_txd
                0x00000000006cf3ea                nb_rxd
                0x00000000006cf3f0                nb_txq
                0x00000000006cf400                nb_rxq
                0x00000000006cf410                mb_mempool_cache
                0x00000000006cf412                nb_pkt_per_burst
                0x00000000006cf414                tx_pkt_nb_segs
                0x00000000006cf420                tx_pkt_seg_lengths
                0x00000000006cf61e                tx_pkt_length
                0x00000000006cf620                mbuf_data_size
                0x00000000006cf628                cur_fwd_eng
                0x00000000006cf640                fwd_engines
                0x00000000006cf680                socket_num
 *fill*         0x00000000006cf681       0x1f 00
 .data          0x00000000006cf6a0      0x640 parameters.o
 .data          0x00000000006cfce0     0x4538 cmdline.o
                0x00000000006cfce0                main_ctx
                0x00000000006cff30                cmd_dump_one
                0x00000000006cff60                cmd_dump_one_name
                0x00000000006cff80                cmd_dump_one_dump
                0x00000000006cffa0                cmd_dump
                0x00000000006cffd0                cmd_dump_dump
                0x00000000006cfff0                cmd_reset_mirror_rule
                0x00000000006d0040                cmd_rm_mirror_rule_ruleid
                0x00000000006d0060                cmd_rm_mirror_rule_mirror
                0x00000000006d0080                cmd_rm_mirror_rule_portid
                0x00000000006d00a0                cmd_rm_mirror_rule_port
                0x00000000006d00c0                cmd_rm_mirror_rule_reset
                0x00000000006d00e0                cmd_set_mirror_link
                0x00000000006d0150                cmd_mirror_link_on
                0x00000000006d0170                cmd_mirror_link_poolid
                0x00000000006d0190                cmd_mirror_link_dstpool
                0x00000000006d01b0                cmd_mirror_link_what
                0x00000000006d01d0                cmd_mirror_link_ruleid
                0x00000000006d01f0                cmd_mirror_link_mirror
                0x00000000006d0210                cmd_mirror_link_portid
                0x00000000006d0230                cmd_mirror_link_port
                0x00000000006d0250                cmd_mirror_link_set
                0x00000000006d0270                cmd_set_mirror_mask
                0x00000000006d02e0                cmd_mirror_mask_on
                0x00000000006d0300                cmd_mirror_mask_poolid
                0x00000000006d0320                cmd_mirror_mask_dstpool
                0x00000000006d0340                cmd_mirror_mask_value
                0x00000000006d0360                cmd_mirror_mask_what
                0x00000000006d0380                cmd_mirror_mask_ruleid
                0x00000000006d03a0                cmd_mirror_mask_mirror
                0x00000000006d03c0                cmd_mirror_mask_portid
                0x00000000006d03e0                cmd_mirror_mask_port
                0x00000000006d0400                cmd_mirror_mask_set
                0x00000000006d0420                cmd_vf_rxvlan_filter
                0x00000000006d0480                cmd_vf_rx_vlan_filter_vf_mask
                0x00000000006d04a0                cmd_vf_rx_vlan_filter_vf
                0x00000000006d04c0                cmd_vf_rx_vlan_filter_portid
                0x00000000006d04e0                cmd_vf_rx_vlan_filter_port
                0x00000000006d0500                cmd_vf_rx_vlan_filter_vlanid
                0x00000000006d0520                cmd_vf_rx_vlan_filter_what
                0x00000000006d0540                cmd_vf_rx_vlan_filter_rx_vlan
                0x00000000006d0560                cmd_vf_mac_addr_filter
                0x00000000006d05c0                cmd_vf_mac_addr_addr
                0x00000000006d05d0                cmd_vf_mac_addr_vfnum
                0x00000000006d05f0                cmd_vf_mac_addr_vf
                0x00000000006d0610                cmd_vf_mac_addr_portnum
                0x00000000006d0630                cmd_vf_mac_addr_port
                0x00000000006d0650                cmd_vf_mac_addr_what
                0x00000000006d0670                cmd_vf_mac_addr_cmd
                0x00000000006d0690                cmd_set_vf_rxmode
                0x00000000006d06f0                cmd_set_vf_rxmode_on
                0x00000000006d0710                cmd_set_vf_rxmode_mode
                0x00000000006d0730                cmd_set_vf_rxmode_what
                0x00000000006d0750                cmd_set_vf_rxmode_vfid
                0x00000000006d0770                cmd_set_vf_rxmode_vf
                0x00000000006d0790                cmd_set_vf_rxmode_portid
                0x00000000006d07b0                cmd_set_vf_rxmode_port
                0x00000000006d07d0                cmd_set_vf_rxmode_set
                0x00000000006d07f0                cmd_set_vf_traffic
                0x00000000006d0850                cmd_setvf_traffic_mode
                0x00000000006d0870                cmd_setvf_traffic_what
                0x00000000006d0890                cmd_setvf_traffic_vfid
                0x00000000006d08b0                cmd_setvf_traffic_vf
                0x00000000006d08d0                cmd_setvf_traffic_portid
                0x00000000006d08f0                cmd_setvf_traffic_port
                0x00000000006d0910                cmd_setvf_traffic_set
                0x00000000006d0930                cmd_set_uc_all_hash_filter
                0x00000000006d0980                cmd_set_uc_all_hash_mode
                0x00000000006d09a0                cmd_set_uc_all_hash_value
                0x00000000006d09c0                cmd_set_uc_all_hash_what
                0x00000000006d09e0                cmd_set_uc_all_hash_portid
                0x00000000006d0a00                cmd_set_uc_all_hash_port
                0x00000000006d0a20                cmd_set_uc_all_hash_set
                0x00000000006d0a40                cmd_set_uc_hash_filter
                0x00000000006d0a90                cmd_set_uc_hash_mode
                0x00000000006d0ab0                cmd_set_uc_hash_mac
                0x00000000006d0ac0                cmd_set_uc_hash_what
                0x00000000006d0ae0                cmd_set_uc_hash_portid
                0x00000000006d0b00                cmd_set_uc_hash_port
                0x00000000006d0b20                cmd_set_uc_hash_set
                0x00000000006d0b40                cmd_set_qmap
                0x00000000006d0b90                cmd_setqmap_mapvalue
                0x00000000006d0bb0                cmd_setqmap_queueid
                0x00000000006d0bd0                cmd_setqmap_portid
                0x00000000006d0bf0                cmd_setqmap_what
                0x00000000006d0c10                cmd_setqmap_qmap
                0x00000000006d0c30                cmd_setqmap_set
                0x00000000006d0c50                cmd_mac_addr
                0x00000000006d0c90                cmd_mac_addr_addr
                0x00000000006d0ca0                cmd_mac_addr_portnum
                0x00000000006d0cc0                cmd_mac_addr_what
                0x00000000006d0ce0                cmd_mac_addr_cmd
                0x00000000006d0d00                cmd_quit
                0x00000000006d0d30                cmd_quit_quit
                0x00000000006d0d50                cmd_read_rxd_txd
                0x00000000006d0da0                cmd_read_rxd_txd_desc_id
                0x00000000006d0dc0                cmd_read_rxd_txd_queue_id
                0x00000000006d0de0                cmd_read_rxd_txd_port_id
                0x00000000006d0e00                cmd_read_rxd_txd_rxd_txd
                0x00000000006d0e20                cmd_read_rxd_txd_read
                0x00000000006d0e40                cmd_write_reg_bit
                0x00000000006d0e90                cmd_write_reg_bit_value
                0x00000000006d0eb0                cmd_write_reg_bit_bit_pos
                0x00000000006d0ed0                cmd_write_reg_bit_reg_off
                0x00000000006d0ef0                cmd_write_reg_bit_port_id
                0x00000000006d0f10                cmd_write_reg_bit_regbit
                0x00000000006d0f30                cmd_write_reg_bit_write
                0x00000000006d0f50                cmd_write_reg_bit_field
                0x00000000006d0fb0                cmd_write_reg_bit_field_value
                0x00000000006d0fd0                cmd_write_reg_bit_field_bit2_pos
                0x00000000006d0ff0                cmd_write_reg_bit_field_bit1_pos
                0x00000000006d1010                cmd_write_reg_bit_field_reg_off
                0x00000000006d1030                cmd_write_reg_bit_field_port_id
                0x00000000006d1050                cmd_write_reg_bit_field_regfield
                0x00000000006d1070                cmd_write_reg_bit_field_write
                0x00000000006d1090                cmd_write_reg
                0x00000000006d10e0                cmd_write_reg_value
                0x00000000006d1100                cmd_write_reg_reg_off
                0x00000000006d1120                cmd_write_reg_port_id
                0x00000000006d1140                cmd_write_reg_reg
                0x00000000006d1160                cmd_write_reg_write
                0x00000000006d1180                cmd_read_reg_bit
                0x00000000006d11d0                cmd_read_reg_bit_bit_pos
                0x00000000006d11f0                cmd_read_reg_bit_reg_off
                0x00000000006d1210                cmd_read_reg_bit_port_id
                0x00000000006d1230                cmd_read_reg_bit_regbit
                0x00000000006d1250                cmd_read_reg_bit_read
                0x00000000006d1270                cmd_read_reg_bit_field
                0x00000000006d12c0                cmd_read_reg_bit_field_bit2_pos
                0x00000000006d12e0                cmd_read_reg_bit_field_bit1_pos
                0x00000000006d1300                cmd_read_reg_bit_field_reg_off
                0x00000000006d1320                cmd_read_reg_bit_field_port_id
                0x00000000006d1340                cmd_read_reg_bit_field_regfield
                0x00000000006d1360                cmd_read_reg_bit_field_read
                0x00000000006d1380                cmd_read_reg
                0x00000000006d13c0                cmd_read_reg_reg_off
                0x00000000006d13e0                cmd_read_reg_port_id
                0x00000000006d1400                cmd_read_reg_reg
                0x00000000006d1420                cmd_read_reg_read
                0x00000000006d1440                cmd_showport
                0x00000000006d1480                cmd_showport_portnum
                0x00000000006d14a0                cmd_showport_what
                0x00000000006d14c0                cmd_showport_port
                0x00000000006d14e0                cmd_showport_show
                0x00000000006d1500                cmd_showportall
                0x00000000006d1540                cmd_showportall_all
                0x00000000006d1560                cmd_showportall_what
                0x00000000006d1580                cmd_showportall_port
                0x00000000006d15a0                cmd_showportall_show
                0x00000000006d15c0                cmd_showcfg
                0x00000000006d1600                cmd_showcfg_what
                0x00000000006d1620                cmd_showcfg_port
                0x00000000006d1640                cmd_showcfg_show
                0x00000000006d1660                cmd_start_tx_first
                0x00000000006d1690                cmd_start_tx_first_tx_first
                0x00000000006d16b0                cmd_start_tx_first_start
                0x00000000006d16d0                cmd_start
                0x00000000006d1700                cmd_start_start
                0x00000000006d1720                cmd_reset
                0x00000000006d1750                cmd_reset_def
                0x00000000006d1770                cmd_reset_set
                0x00000000006d1790                cmd_priority_flow_control_set
                0x00000000006d1810                cmd_pfc_set_portid
                0x00000000006d1830                cmd_pfc_set_priority
                0x00000000006d1850                cmd_pfc_set_pause_time
                0x00000000006d1870                cmd_pfc_set_low_water
                0x00000000006d1890                cmd_pfc_set_high_water
                0x00000000006d18b0                cmd_pfc_set_tx_mode
                0x00000000006d18d0                cmd_pfc_set_tx
                0x00000000006d18f0                cmd_pfc_set_rx_mode
                0x00000000006d1910                cmd_pfc_set_rx
                0x00000000006d1930                cmd_pfc_set_flow_ctrl
                0x00000000006d1950                cmd_pfc_set_set
                0x00000000006d1970                cmd_link_flow_control_set
                0x00000000006d1a00                cmd_lfc_set_portid
                0x00000000006d1a20                cmd_lfc_set_mac_ctrl_frame_fwd
                0x00000000006d1a40                cmd_lfc_set_mac_ctrl_frame_fwd_mode
                0x00000000006d1a60                cmd_lfc_set_send_xon
                0x00000000006d1a80                cmd_lfc_set_pause_time
                0x00000000006d1aa0                cmd_lfc_set_low_water
                0x00000000006d1ac0                cmd_lfc_set_high_water
                0x00000000006d1ae0                cmd_lfc_set_tx_mode
                0x00000000006d1b00                cmd_lfc_set_tx
                0x00000000006d1b20                cmd_lfc_set_rx_mode
                0x00000000006d1b40                cmd_lfc_set_rx
                0x00000000006d1b60                cmd_lfc_set_flow_ctrl
                0x00000000006d1b80                cmd_lfc_set_set
                0x00000000006d1ba0                cmd_set_ipv6_masks_filter
                0x00000000006d1c50                cmd_pkt_filter_masks_comp_ipv6_dst_value
                0x00000000006d1c70                cmd_pkt_filter_masks_comp_ipv6_dst
                0x00000000006d1c90                cmd_pkt_filter_masks_dst_mask_ipv6_value
                0x00000000006d1cb0                cmd_pkt_filter_masks_src_mask_ipv6_value
                0x00000000006d1cd0                cmd_pkt_filter_masks_filter_mask_ipv6
                0x00000000006d1cf0                cmd_set_masks_filter
                0x00000000006d1d90                cmd_pkt_filter_masks_vlan_prio_value
                0x00000000006d1db0                cmd_pkt_filter_masks_vlan_prio
                0x00000000006d1dd0                cmd_pkt_filter_masks_vlan_id_value
                0x00000000006d1df0                cmd_pkt_filter_masks_vlan_id
                0x00000000006d1e10                cmd_pkt_filter_masks_flexbytes_value
                0x00000000006d1e30                cmd_pkt_filter_masks_flexbytes
                0x00000000006d1e50                cmd_pkt_filter_masks_port_dst_mask
                0x00000000006d1e70                cmd_pkt_filter_masks_ip_dst_mask
                0x00000000006d1e90                cmd_pkt_filter_masks_dst_mask
                0x00000000006d1eb0                cmd_pkt_filter_masks_port_src_mask
                0x00000000006d1ed0                cmd_pkt_filter_masks_ip_src_mask
                0x00000000006d1ef0                cmd_pkt_filter_masks_src_mask
                0x00000000006d1f10                cmd_pkt_filter_masks_only_ip_flow_value
                0x00000000006d1f30                cmd_pkt_filter_masks_only_ip_flow
                0x00000000006d1f50                cmd_pkt_filter_masks_port_id
                0x00000000006d1f70                cmd_pkt_filter_masks_filter_mask
                0x00000000006d1f90                cmd_rm_perfect_filter
                0x00000000006d2030                cmd_pkt_filter_rm_perfect_filter
                0x00000000006d2050                cmd_upd_perfect_filter
                0x00000000006d2100                cmd_pkt_filter_upd_perfect_filter
                0x00000000006d2120                cmd_add_perfect_filter
                0x00000000006d21d0                cmd_pkt_filter_add_perfect_filter
                0x00000000006d21f0                cmd_rm_signature_filter
                0x00000000006d2280                cmd_pkt_filter_rm_signature_filter
                0x00000000006d22a0                cmd_upd_signature_filter
                0x00000000006d2340                cmd_pkt_filter_upd_signature_filter
                0x00000000006d2360                cmd_add_signature_filter
                0x00000000006d2400                cmd_pkt_filter_add_signature_filter
                0x00000000006d2420                cmd_pkt_filter_soft_id
                0x00000000006d2440                cmd_pkt_filter_soft
                0x00000000006d2460                cmd_pkt_filter_queue_id
                0x00000000006d2480                cmd_pkt_filter_queue
                0x00000000006d24a0                cmd_pkt_filter_vlan_id
                0x00000000006d24c0                cmd_pkt_filter_vlan
                0x00000000006d24e0                cmd_pkt_filter_flexbytes_value
                0x00000000006d2500                cmd_pkt_filter_flexbytes
                0x00000000006d2520                cmd_pkt_filter_port_dst
                0x00000000006d2540                cmd_pkt_filter_ip_dst
                0x00000000006d2560                cmd_pkt_filter_dst
                0x00000000006d2580                cmd_pkt_filter_port_src
                0x00000000006d25a0                cmd_pkt_filter_ip_src
                0x00000000006d25c0                cmd_pkt_filter_src
                0x00000000006d25e0                cmd_pkt_filter_protocol
                0x00000000006d2600                cmd_pkt_filter_port_id
                0x00000000006d2620                cmd_set_allmulti_mode_one
                0x00000000006d2660                cmd_set_allmulti_mode_all
                0x00000000006d26a0                cmd_setallmulti_mode
                0x00000000006d26c0                cmd_setallmulti_portnum
                0x00000000006d26e0                cmd_setallmulti_portall
                0x00000000006d2700                cmd_setallmulti_allmulti
                0x00000000006d2720                cmd_setallmulti_set
                0x00000000006d2740                cmd_set_promisc_mode_one
                0x00000000006d2780                cmd_set_promisc_mode_all
                0x00000000006d27c0                cmd_setpromisc_mode
                0x00000000006d27e0                cmd_setpromisc_portnum
                0x00000000006d2800                cmd_setpromisc_portall
                0x00000000006d2820                cmd_setpromisc_promisc
                0x00000000006d2840                cmd_setpromisc_set
                0x00000000006d2860                cmd_set_burst_tx_retry
                0x00000000006d28c0                cmd_set_burst_tx_retry_retry_num
                0x00000000006d28e0                cmd_set_burst_tx_retry_retry
                0x00000000006d2900                cmd_set_burst_tx_retry_time
                0x00000000006d2920                cmd_set_burst_tx_retry_delay
                0x00000000006d2940                cmd_set_burst_tx_retry_tx
                0x00000000006d2960                cmd_set_burst_tx_retry_burst
                0x00000000006d2980                cmd_set_burst_tx_retry_set
                0x00000000006d29a0                cmd_set_fwd_mode
                0x00000000006d29e0                cmd_setfwd_mode
                0x00000000006d2a00                cmd_setfwd_fwd
                0x00000000006d2a20                cmd_setfwd_set
                0x00000000006d2a40                cmd_set_flush_rx
                0x00000000006d2a80                cmd_setflushrx_mode
                0x00000000006d2aa0                cmd_setflushrx_flush_rx
                0x00000000006d2ac0                cmd_setflushrx_set
                0x00000000006d2ae0                cmd_tx_cksum_set
                0x00000000006d2b20                cmd_tx_cksum_set_portid
                0x00000000006d2b40                cmd_tx_cksum_set_cksum_mask
                0x00000000006d2b60                cmd_tx_cksum_set_set
                0x00000000006d2b80                cmd_tx_cksum_set_tx_cksum
                0x00000000006d2ba0                cmd_tx_vlan_reset
                0x00000000006d2be0                cmd_tx_vlan_reset_portid
                0x00000000006d2c00                cmd_tx_vlan_reset_reset
                0x00000000006d2c20                cmd_tx_vlan_reset_tx_vlan
                0x00000000006d2c40                cmd_tx_vlan_set
                0x00000000006d2c80                cmd_tx_vlan_set_portid
                0x00000000006d2ca0                cmd_tx_vlan_set_vlanid
                0x00000000006d2cc0                cmd_tx_vlan_set_set
                0x00000000006d2ce0                cmd_tx_vlan_set_tx_vlan
                0x00000000006d2d00                cmd_rx_vlan_filter
                0x00000000006d2d40                cmd_rx_vlan_filter_portid
                0x00000000006d2d60                cmd_rx_vlan_filter_vlanid
                0x00000000006d2d80                cmd_rx_vlan_filter_what
                0x00000000006d2da0                cmd_rx_vlan_filter_rx_vlan
                0x00000000006d2dc0                cmd_vlan_tpid
                0x00000000006d2e10                cmd_vlan_tpid_portid
                0x00000000006d2e30                cmd_vlan_tpid_tpid
                0x00000000006d2e50                cmd_vlan_tpid_what
                0x00000000006d2e70                cmd_vlan_tpid_set
                0x00000000006d2e90                cmd_vlan_tpid_vlan
                0x00000000006d2eb0                cmd_vlan_offload
                0x00000000006d2f00                cmd_vlan_offload_portid
                0x00000000006d2f20                cmd_vlan_offload_on
                0x00000000006d2f40                cmd_vlan_offload_what
                0x00000000006d2f60                cmd_vlan_offload_set
                0x00000000006d2f80                cmd_vlan_offload_vlan
                0x00000000006d2fa0                cmd_rx_vlan_filter_all
                0x00000000006d2fe0                cmd_rx_vlan_filter_all_portid
                0x00000000006d3000                cmd_rx_vlan_filter_all_all
                0x00000000006d3020                cmd_rx_vlan_filter_all_what
                0x00000000006d3040                cmd_rx_vlan_filter_all_rx_vlan
                0x00000000006d3060                cmd_set_txpkts
                0x00000000006d30a0                cmd_set_txpkts_lengths
                0x00000000006d30c0                cmd_set_txpkts_name
                0x00000000006d30e0                cmd_set_txpkts_keyword
                0x00000000006d3100                cmd_set_numbers
                0x00000000006d3140                cmd_set_value
                0x00000000006d3160                cmd_set_what
                0x00000000006d3180                cmd_set_set
                0x00000000006d31a0                cmd_set_fwd_mask
                0x00000000006d31e0                cmd_setmask_value
                0x00000000006d3200                cmd_setmask_mask
                0x00000000006d3220                cmd_setmask_set
                0x00000000006d3240                cmd_set_fwd_list
                0x00000000006d3280                cmd_set_list_of_items
                0x00000000006d32a0                cmd_set_list_name
                0x00000000006d32c0                cmd_set_list_keyword
                0x00000000006d32e0                cmd_stop
                0x00000000006d3310                cmd_stop_stop
                0x00000000006d3330                cmd_config_threshold
                0x00000000006d3380                cmd_config_threshold_value
                0x00000000006d33a0                cmd_config_threshold_name
                0x00000000006d33c0                cmd_config_threshold_all
                0x00000000006d33e0                cmd_config_threshold_keyword
                0x00000000006d3400                cmd_config_threshold_port
                0x00000000006d3420                cmd_config_thresh
                0x00000000006d3470                cmd_config_thresh_value
                0x00000000006d3490                cmd_config_thresh_name
                0x00000000006d34b0                cmd_config_thresh_all
                0x00000000006d34d0                cmd_config_thresh_keyword
                0x00000000006d34f0                cmd_config_thresh_port
                0x00000000006d3510                cmd_config_burst
                0x00000000006d3560                cmd_config_burst_value
                0x00000000006d3580                cmd_config_burst_name
                0x00000000006d35a0                cmd_config_burst_all
                0x00000000006d35c0                cmd_config_burst_keyword
                0x00000000006d35e0                cmd_config_burst_port
                0x00000000006d3600                cmd_config_dcb
                0x00000000006d3670                cmd_config_dcb_pfc_en
                0x00000000006d3690                cmd_config_dcb_pfc
                0x00000000006d36b0                cmd_config_dcb_num_tcs
                0x00000000006d36d0                cmd_config_dcb_vt_en
                0x00000000006d36f0                cmd_config_dcb_vt
                0x00000000006d3710                cmd_config_dcb_dcb
                0x00000000006d3730                cmd_config_dcb_port_id
                0x00000000006d3750                cmd_config_dcb_config
                0x00000000006d3770                cmd_config_dcb_port
                0x00000000006d3790                cmd_showport_reta
                0x00000000006d37f0                cmd_showport_reta_mask_hi
                0x00000000006d3810                cmd_showport_reta_mask_lo
                0x00000000006d3830                cmd_showport_reta_reta
                0x00000000006d3850                cmd_showport_reta_rss
                0x00000000006d3870                cmd_showport_reta_port_id
                0x00000000006d3890                cmd_showport_reta_port
                0x00000000006d38b0                cmd_showport_reta_show
                0x00000000006d38d0                cmd_config_rss_reta
                0x00000000006d3920                cmd_config_rss_reta_list_of_items
                0x00000000006d3940                cmd_config_rss_reta_list_name
                0x00000000006d3960                cmd_config_rss_reta_name
                0x00000000006d3980                cmd_config_rss_reta_port_id
                0x00000000006d39a0                cmd_config_rss_reta_keyword
                0x00000000006d39c0                cmd_config_rss_reta_port
                0x00000000006d39e0                cmd_config_rss
                0x00000000006d3a30                cmd_config_rss_value
                0x00000000006d3a50                cmd_config_rss_name
                0x00000000006d3a70                cmd_config_rss_all
                0x00000000006d3a90                cmd_config_rss_keyword
                0x00000000006d3ab0                cmd_config_rss_port
                0x00000000006d3ad0                cmd_config_rx_mode_flag
                0x00000000006d3b20                cmd_config_rx_mode_flag_value
                0x00000000006d3b40                cmd_config_rx_mode_flag_name
                0x00000000006d3b60                cmd_config_rx_mode_flag_all
                0x00000000006d3b80                cmd_config_rx_mode_flag_keyword
                0x00000000006d3ba0                cmd_config_rx_mode_flag_port
                0x00000000006d3bc0                cmd_config_max_pkt_len
                0x00000000006d3c10                cmd_config_max_pkt_len_value
                0x00000000006d3c30                cmd_config_max_pkt_len_name
                0x00000000006d3c50                cmd_config_max_pkt_len_all
                0x00000000006d3c70                cmd_config_max_pkt_len_keyword
                0x00000000006d3c90                cmd_config_max_pkt_len_port
                0x00000000006d3cb0                cmd_config_rx_tx
                0x00000000006d3d00                cmd_config_rx_tx_value
                0x00000000006d3d20                cmd_config_rx_tx_name
                0x00000000006d3d40                cmd_config_rx_tx_all
                0x00000000006d3d60                cmd_config_rx_tx_keyword
                0x00000000006d3d80                cmd_config_rx_tx_port
                0x00000000006d3da0                cmd_config_speed_specific
                0x00000000006d3e00                cmd_config_speed_specific_value2
                0x00000000006d3e20                cmd_config_speed_specific_item2
                0x00000000006d3e40                cmd_config_speed_specific_value1
                0x00000000006d3e60                cmd_config_speed_specific_item1
                0x00000000006d3e80                cmd_config_speed_specific_id
                0x00000000006d3ea0                cmd_config_speed_specific_keyword
                0x00000000006d3ec0                cmd_config_speed_specific_port
                0x00000000006d3ee0                cmd_config_speed_all
                0x00000000006d3f40                cmd_config_speed_all_value2
                0x00000000006d3f60                cmd_config_speed_all_item2
                0x00000000006d3f80                cmd_config_speed_all_value1
                0x00000000006d3fa0                cmd_config_speed_all_item1
                0x00000000006d3fc0                cmd_config_speed_all_all
                0x00000000006d3fe0                cmd_config_speed_all_keyword
                0x00000000006d4000                cmd_config_speed_all_port
                0x00000000006d4020                cmd_operate_specific_port
                0x00000000006d4060                cmd_operate_specific_port_id
                0x00000000006d4080                cmd_operate_specific_port_port
                0x00000000006d40a0                cmd_operate_specific_port_cmd
                0x00000000006d40c0                cmd_operate_port
                0x00000000006d4100                cmd_operate_port_all_all
                0x00000000006d4120                cmd_operate_port_all_port
                0x00000000006d4140                cmd_operate_port_all_cmd
                0x00000000006d4160                cmd_help_long
                0x00000000006d4190                cmd_help_long_section
                0x00000000006d41b0                cmd_help_long_help
                0x00000000006d41d0                cmd_help_brief
                0x00000000006d4200                cmd_help_brief_help
 .data          0x00000000006d4218        0x0 config.o
 *fill*         0x00000000006d4218        0x8 00
 .data          0x00000000006d4220       0x20 iofwd.o
                0x00000000006d4220                io_fwd_engine
 .data          0x00000000006d4240       0x20 macfwd.o
                0x00000000006d4240                mac_fwd_engine
 .data          0x00000000006d4260       0x28 macfwd-retry.o
                0x00000000006d4260                mac_retry_fwd_engine
                0x00000000006d4280                burst_tx_retry_num
                0x00000000006d4284                burst_tx_delay_time
 *fill*         0x00000000006d4288       0x18 00
 .data          0x00000000006d42a0       0x20 rxonly.o
                0x00000000006d42a0                rx_only_engine
 .data          0x00000000006d42c0       0x20 txonly.o
                0x00000000006d42c0                tx_only_engine
 .data          0x00000000006d42e0       0x20 csumonly.o
                0x00000000006d42e0                csum_fwd_engine
 .data          0x00000000006d4300        0x0 mempool_anon.o
 .data          0x00000000006d4300        0x4 /home/vadim/projects/ipaugenblick/dpdk-1.6.0r2/x86_64-default-linuxapp-gcc/lib/librte_kni.a(rte_kni.o)
 .data          0x00000000006d4304        0x0 /home/vadim/projects/ipaugenblick/dpdk-1.6.0r2/x86_64-default-linuxapp-gcc/lib/librte_pmd_e1000.a(e1000_80003es2lan.o)
 .data          0x00000000006d4304        0x0 /home/vadim/projects/ipaugenblick/dpdk-1.6.0r2/x86_64-default-linuxapp-gcc/lib/librte_pmd_e1000.a(e1000_82540.o)
 .data          0x00000000006d4304        0x0 /home/vadim/projects/ipaugenblick/dpdk-1.6.0r2/x86_64-default-linuxapp-gcc/lib/librte_pmd_e1000.a(e1000_82541.o)
 .data          0x00000000006d4304        0x0 /home/vadim/projects/ipaugenblick/dpdk-1.6.0r2/x86_64-default-linuxapp-gcc/lib/librte_pmd_e1000.a(e1000_82542.o)
 .data          0x00000000006d4304        0x0 /home/vadim/projects/ipaugenblick/dpdk-1.6.0r2/x86_64-default-linuxapp-gcc/lib/librte_pmd_e1000.a(e1000_82543.o)
 .data          0x00000000006d4304        0x0 /home/vadim/projects/ipaugenblick/dpdk-1.6.0r2/x86_64-default-linuxapp-gcc/lib/librte_pmd_e1000.a(e1000_82571.o)
 .data          0x00000000006d4304        0x0 /home/vadim/projects/ipaugenblick/dpdk-1.6.0r2/x86_64-default-linuxapp-gcc/lib/librte_pmd_e1000.a(e1000_82575.o)
 .data          0x00000000006d4304        0x0 /home/vadim/projects/ipaugenblick/dpdk-1.6.0r2/x86_64-default-linuxapp-gcc/lib/librte_pmd_e1000.a(e1000_i210.o)
 .data          0x00000000006d4304        0x0 /home/vadim/projects/ipaugenblick/dpdk-1.6.0r2/x86_64-default-linuxapp-gcc/lib/librte_pmd_e1000.a(e1000_api.o)
 .data          0x00000000006d4304        0x0 /home/vadim/projects/ipaugenblick/dpdk-1.6.0r2/x86_64-default-linuxapp-gcc/lib/librte_pmd_e1000.a(e1000_ich8lan.o)
 .data          0x00000000006d4304        0x0 /home/vadim/projects/ipaugenblick/dpdk-1.6.0r2/x86_64-default-linuxapp-gcc/lib/librte_pmd_e1000.a(e1000_mac.o)
 .data          0x00000000006d4304        0x0 /home/vadim/projects/ipaugenblick/dpdk-1.6.0r2/x86_64-default-linuxapp-gcc/lib/librte_pmd_e1000.a(e1000_manage.o)
 .data          0x00000000006d4304        0x0 /home/vadim/projects/ipaugenblick/dpdk-1.6.0r2/x86_64-default-linuxapp-gcc/lib/librte_pmd_e1000.a(e1000_mbx.o)
 .data          0x00000000006d4304        0x0 /home/vadim/projects/ipaugenblick/dpdk-1.6.0r2/x86_64-default-linuxapp-gcc/lib/librte_pmd_e1000.a(e1000_nvm.o)
 .data          0x00000000006d4304        0x0 /home/vadim/projects/ipaugenblick/dpdk-1.6.0r2/x86_64-default-linuxapp-gcc/lib/librte_pmd_e1000.a(e1000_osdep.o)
 .data          0x00000000006d4304        0x0 /home/vadim/projects/ipaugenblick/dpdk-1.6.0r2/x86_64-default-linuxapp-gcc/lib/librte_pmd_e1000.a(e1000_phy.o)
 .data          0x00000000006d4304        0x0 /home/vadim/projects/ipaugenblick/dpdk-1.6.0r2/x86_64-default-linuxapp-gcc/lib/librte_pmd_e1000.a(e1000_vf.o)
 *fill*         0x00000000006d4304       0x1c 00
 .data          0x00000000006d4320      0x4c8 /home/vadim/projects/ipaugenblick/dpdk-1.6.0r2/x86_64-default-linuxapp-gcc/lib/librte_pmd_e1000.a(igb_ethdev.o)
 *fill*         0x00000000006d47e8       0x18 00
 .data          0x00000000006d4800       0x28 /home/vadim/projects/ipaugenblick/dpdk-1.6.0r2/x86_64-default-linuxapp-gcc/lib/librte_pmd_e1000.a(igb_rxtx.o)
 .data          0x00000000006d4828        0x0 /home/vadim/projects/ipaugenblick/dpdk-1.6.0r2/x86_64-default-linuxapp-gcc/lib/librte_pmd_e1000.a(igb_pf.o)
 *fill*         0x00000000006d4828       0x18 00
 .data          0x00000000006d4840      0x278 /home/vadim/projects/ipaugenblick/dpdk-1.6.0r2/x86_64-default-linuxapp-gcc/lib/librte_pmd_e1000.a(em_ethdev.o)
 .data          0x00000000006d4ab8        0x0 /home/vadim/projects/ipaugenblick/dpdk-1.6.0r2/x86_64-default-linuxapp-gcc/lib/librte_pmd_e1000.a(em_rxtx.o)
 .data          0x00000000006d4ab8        0x0 /home/vadim/projects/ipaugenblick/dpdk-1.6.0r2/x86_64-default-linuxapp-gcc/lib/librte_pmd_ixgbe.a(ixgbe_common.o)
 .data          0x00000000006d4ab8        0x0 /home/vadim/projects/ipaugenblick/dpdk-1.6.0r2/x86_64-default-linuxapp-gcc/lib/librte_pmd_ixgbe.a(ixgbe_82598.o)
 .data          0x00000000006d4ab8        0x0 /home/vadim/projects/ipaugenblick/dpdk-1.6.0r2/x86_64-default-linuxapp-gcc/lib/librte_pmd_ixgbe.a(ixgbe_82599.o)
 .data          0x00000000006d4ab8        0x0 /home/vadim/projects/ipaugenblick/dpdk-1.6.0r2/x86_64-default-linuxapp-gcc/lib/librte_pmd_ixgbe.a(ixgbe_x540.o)
 .data          0x00000000006d4ab8        0x0 /home/vadim/projects/ipaugenblick/dpdk-1.6.0r2/x86_64-default-linuxapp-gcc/lib/librte_pmd_ixgbe.a(ixgbe_phy.o)
 .data          0x00000000006d4ab8        0x0 /home/vadim/projects/ipaugenblick/dpdk-1.6.0r2/x86_64-default-linuxapp-gcc/lib/librte_pmd_ixgbe.a(ixgbe_api.o)
 .data          0x00000000006d4ab8        0x0 /home/vadim/projects/ipaugenblick/dpdk-1.6.0r2/x86_64-default-linuxapp-gcc/lib/librte_pmd_ixgbe.a(ixgbe_vf.o)
 .data          0x00000000006d4ab8        0x0 /home/vadim/projects/ipaugenblick/dpdk-1.6.0r2/x86_64-default-linuxapp-gcc/lib/librte_pmd_ixgbe.a(ixgbe_dcb.o)
 .data          0x00000000006d4ab8        0x0 /home/vadim/projects/ipaugenblick/dpdk-1.6.0r2/x86_64-default-linuxapp-gcc/lib/librte_pmd_ixgbe.a(ixgbe_dcb_82599.o)
 .data          0x00000000006d4ab8        0x0 /home/vadim/projects/ipaugenblick/dpdk-1.6.0r2/x86_64-default-linuxapp-gcc/lib/librte_pmd_ixgbe.a(ixgbe_dcb_82598.o)
 .data          0x00000000006d4ab8        0x0 /home/vadim/projects/ipaugenblick/dpdk-1.6.0r2/x86_64-default-linuxapp-gcc/lib/librte_pmd_ixgbe.a(ixgbe_mbx.o)
 *fill*         0x00000000006d4ab8        0x8 00
 .data          0x00000000006d4ac0       0x48 /home/vadim/projects/ipaugenblick/dpdk-1.6.0r2/x86_64-default-linuxapp-gcc/lib/librte_pmd_ixgbe.a(ixgbe_rxtx.o)
 *fill*         0x00000000006d4b08       0x18 00
 .data          0x00000000006d4b20      0x4c8 /home/vadim/projects/ipaugenblick/dpdk-1.6.0r2/x86_64-default-linuxapp-gcc/lib/librte_pmd_ixgbe.a(ixgbe_ethdev.o)
 .data          0x00000000006d4fe8        0x0 /home/vadim/projects/ipaugenblick/dpdk-1.6.0r2/x86_64-default-linuxapp-gcc/lib/librte_pmd_ixgbe.a(ixgbe_fdir.o)
 .data          0x00000000006d4fe8        0x0 /home/vadim/projects/ipaugenblick/dpdk-1.6.0r2/x86_64-default-linuxapp-gcc/lib/librte_pmd_ixgbe.a(ixgbe_pf.o)
 .data          0x00000000006d4fe8        0x0 /home/vadim/projects/ipaugenblick/dpdk-1.6.0r2/x86_64-default-linuxapp-gcc/lib/librte_pmd_virtio_uio.a(virtqueue.o)
 .data          0x00000000006d4fe8        0x0 /home/vadim/projects/ipaugenblick/dpdk-1.6.0r2/x86_64-default-linuxapp-gcc/lib/librte_pmd_virtio_uio.a(virtio_pci.o)
 .data          0x00000000006d4fe8        0x0 /home/vadim/projects/ipaugenblick/dpdk-1.6.0r2/x86_64-default-linuxapp-gcc/lib/librte_pmd_virtio_uio.a(virtio_rxtx.o)
 *fill*         0x00000000006d4fe8       0x18 00
 .data          0x00000000006d5000      0x1d0 /home/vadim/projects/ipaugenblick/dpdk-1.6.0r2/x86_64-default-linuxapp-gcc/lib/librte_pmd_virtio_uio.a(virtio_ethdev.o)
 *fill*         0x00000000006d51d0       0x10 00
 .data          0x00000000006d51e0       0x28 /home/vadim/projects/ipaugenblick/dpdk-1.6.0r2/x86_64-default-linuxapp-gcc/lib/librte_pmd_vmxnet3_uio.a(vmxnet3_rxtx.o)
 *fill*         0x00000000006d5208       0x18 00
 .data          0x00000000006d5220      0x1d0 /home/vadim/projects/ipaugenblick/dpdk-1.6.0r2/x86_64-default-linuxapp-gcc/lib/librte_pmd_vmxnet3_uio.a(vmxnet3_ethdev.o)
 .data          0x00000000006d53f0        0x0 /home/vadim/projects/ipaugenblick/dpdk-1.6.0r2/x86_64-default-linuxapp-gcc/lib/librte_timer.a(rte_timer.o)
 .data          0x00000000006d53f0        0x0 /home/vadim/projects/ipaugenblick/dpdk-1.6.0r2/x86_64-default-linuxapp-gcc/lib/librte_hash.a(rte_hash.o)
 .data          0x00000000006d53f0        0x0 /home/vadim/projects/ipaugenblick/dpdk-1.6.0r2/x86_64-default-linuxapp-gcc/lib/librte_hash.a(rte_fbk_hash.o)
 .data          0x00000000006d53f0        0x0 /home/vadim/projects/ipaugenblick/dpdk-1.6.0r2/x86_64-default-linuxapp-gcc/lib/librte_lpm.a(rte_lpm.o)
 .data          0x00000000006d53f0        0x0 /home/vadim/projects/ipaugenblick/dpdk-1.6.0r2/x86_64-default-linuxapp-gcc/lib/librte_lpm.a(rte_lpm6.o)
 .data          0x00000000006d53f0        0x0 /home/vadim/projects/ipaugenblick/dpdk-1.6.0r2/x86_64-default-linuxapp-gcc/lib/librte_power.a(rte_power.o)
 .data          0x00000000006d53f0        0x0 /home/vadim/projects/ipaugenblick/dpdk-1.6.0r2/x86_64-default-linuxapp-gcc/lib/librte_meter.a(rte_meter.o)
 .data          0x00000000006d53f0        0x0 /home/vadim/projects/ipaugenblick/dpdk-1.6.0r2/x86_64-default-linuxapp-gcc/lib/librte_sched.a(rte_sched.o)
 .data          0x00000000006d53f0        0x0 /home/vadim/projects/ipaugenblick/dpdk-1.6.0r2/x86_64-default-linuxapp-gcc/lib/librte_sched.a(rte_red.o)
 .data          0x00000000006d53f0        0x0 /home/vadim/projects/ipaugenblick/dpdk-1.6.0r2/x86_64-default-linuxapp-gcc/lib/librte_sched.a(rte_approx.o)
 .data          0x00000000006d53f0        0x0 /home/vadim/projects/ipaugenblick/dpdk-1.6.0r2/x86_64-default-linuxapp-gcc/lib/librte_kvargs.a(rte_kvargs.o)
 .data          0x00000000006d53f0        0x0 /home/vadim/projects/ipaugenblick/dpdk-1.6.0r2/x86_64-default-linuxapp-gcc/lib/librte_mbuf.a(rte_mbuf.o)
 .data          0x00000000006d53f0        0x0 /home/vadim/projects/ipaugenblick/dpdk-1.6.0r2/x86_64-default-linuxapp-gcc/lib/libethdev.a(rte_ethdev.o)
 *fill*         0x00000000006d53f0       0x10 00
 .data          0x00000000006d5400      0x1a0 /home/vadim/projects/ipaugenblick/dpdk-1.6.0r2/x86_64-default-linuxapp-gcc/lib/librte_pmd_ring.a(rte_eth_ring.o)
 .data          0x00000000006d55a0        0x0 /home/vadim/projects/ipaugenblick/dpdk-1.6.0r2/x86_64-default-linuxapp-gcc/lib/librte_malloc.a(rte_malloc.o)
 .data          0x00000000006d55a0        0x0 /home/vadim/projects/ipaugenblick/dpdk-1.6.0r2/x86_64-default-linuxapp-gcc/lib/librte_malloc.a(malloc_elem.o)
 .data          0x00000000006d55a0        0x0 /home/vadim/projects/ipaugenblick/dpdk-1.6.0r2/x86_64-default-linuxapp-gcc/lib/librte_malloc.a(malloc_heap.o)
 .data          0x00000000006d55a0        0x0 /home/vadim/projects/ipaugenblick/dpdk-1.6.0r2/x86_64-default-linuxapp-gcc/lib/librte_mempool.a(rte_mempool.o)
 .data          0x00000000006d55a0        0x0 /home/vadim/projects/ipaugenblick/dpdk-1.6.0r2/x86_64-default-linuxapp-gcc/lib/librte_ring.a(rte_ring.o)
 .data          0x00000000006d55a0      0x3a0 /home/vadim/projects/ipaugenblick/dpdk-1.6.0r2/x86_64-default-linuxapp-gcc/lib/librte_eal.a(eal.o)
 .data          0x00000000006d5940        0x0 /home/vadim/projects/ipaugenblick/dpdk-1.6.0r2/x86_64-default-linuxapp-gcc/lib/librte_eal.a(eal_hugepage_info.o)
 .data          0x00000000006d5940        0x0 /home/vadim/projects/ipaugenblick/dpdk-1.6.0r2/x86_64-default-linuxapp-gcc/lib/librte_eal.a(eal_memory.o)
 .data          0x00000000006d5940        0x0 /home/vadim/projects/ipaugenblick/dpdk-1.6.0r2/x86_64-default-linuxapp-gcc/lib/librte_eal.a(eal_thread.o)
 .data          0x00000000006d5940        0x0 /home/vadim/projects/ipaugenblick/dpdk-1.6.0r2/x86_64-default-linuxapp-gcc/lib/librte_eal.a(eal_log.o)
 .data          0x00000000006d5940        0x0 /home/vadim/projects/ipaugenblick/dpdk-1.6.0r2/x86_64-default-linuxapp-gcc/lib/librte_eal.a(eal_pci.o)
 .data          0x00000000006d5940        0x0 /home/vadim/projects/ipaugenblick/dpdk-1.6.0r2/x86_64-default-linuxapp-gcc/lib/librte_eal.a(eal_debug.o)
 .data          0x00000000006d5940        0x0 /home/vadim/projects/ipaugenblick/dpdk-1.6.0r2/x86_64-default-linuxapp-gcc/lib/librte_eal.a(eal_lcore.o)
 .data          0x00000000006d5940        0x4 /home/vadim/projects/ipaugenblick/dpdk-1.6.0r2/x86_64-default-linuxapp-gcc/lib/librte_eal.a(eal_timer.o)
                0x00000000006d5940                eal_timer_source
 .data          0x00000000006d5944        0xc /home/vadim/projects/ipaugenblick/dpdk-1.6.0r2/x86_64-default-linuxapp-gcc/lib/librte_eal.a(eal_interrupts.o)
 .data          0x00000000006d5950        0x8 /home/vadim/projects/ipaugenblick/dpdk-1.6.0r2/x86_64-default-linuxapp-gcc/lib/librte_eal.a(eal_alarm.o)
 .data          0x00000000006d5958        0x0 /home/vadim/projects/ipaugenblick/dpdk-1.6.0r2/x86_64-default-linuxapp-gcc/lib/librte_eal.a(eal_common_memzone.o)
 *fill*         0x00000000006d5958        0x8 00
 .data          0x00000000006d5960       0x14 /home/vadim/projects/ipaugenblick/dpdk-1.6.0r2/x86_64-default-linuxapp-gcc/lib/librte_eal.a(eal_common_log.o)
                0x00000000006d5960                rte_logs
 .data          0x00000000006d5974        0x0 /home/vadim/projects/ipaugenblick/dpdk-1.6.0r2/x86_64-default-linuxapp-gcc/lib/librte_eal.a(eal_common_launch.o)
 .data          0x00000000006d5974        0x0 /home/vadim/projects/ipaugenblick/dpdk-1.6.0r2/x86_64-default-linuxapp-gcc/lib/librte_eal.a(eal_common_pci.o)
 .data          0x00000000006d5974        0x0 /home/vadim/projects/ipaugenblick/dpdk-1.6.0r2/x86_64-default-linuxapp-gcc/lib/librte_eal.a(eal_common_memory.o)
 *fill*         0x00000000006d5974        0xc 00
 .data          0x00000000006d5980      0x100 /home/vadim/projects/ipaugenblick/dpdk-1.6.0r2/x86_64-default-linuxapp-gcc/lib/librte_eal.a(eal_common_tailqs.o)
                0x00000000006d5980                rte_tailq_names
 .data          0x00000000006d5a80        0x0 /home/vadim/projects/ipaugenblick/dpdk-1.6.0r2/x86_64-default-linuxapp-gcc/lib/librte_eal.a(eal_common_errno.o)
 .data          0x00000000006d5a80        0x0 /home/vadim/projects/ipaugenblick/dpdk-1.6.0r2/x86_64-default-linuxapp-gcc/lib/librte_eal.a(eal_common_cpuflags.o)
 .data          0x00000000006d5a80        0x0 /home/vadim/projects/ipaugenblick/dpdk-1.6.0r2/x86_64-default-linuxapp-gcc/lib/librte_eal.a(eal_common_hexdump.o)
 .data          0x00000000006d5a80       0x10 /home/vadim/projects/ipaugenblick/dpdk-1.6.0r2/x86_64-default-linuxapp-gcc/lib/librte_eal.a(eal_common_devargs.o)
                0x00000000006d5a80                devargs_list
 .data          0x00000000006d5a90       0x10 /home/vadim/projects/ipaugenblick/dpdk-1.6.0r2/x86_64-default-linuxapp-gcc/lib/librte_eal.a(eal_common_vdev.o)
 .data          0x00000000006d5aa0        0x0 /home/vadim/projects/ipaugenblick/dpdk-1.6.0r2/x86_64-default-linuxapp-gcc/lib/librte_cmdline.a(cmdline.o)
 .data          0x00000000006d5aa0        0x0 /home/vadim/projects/ipaugenblick/dpdk-1.6.0r2/x86_64-default-linuxapp-gcc/lib/librte_cmdline.a(cmdline_cirbuf.o)
 .data          0x00000000006d5aa0        0x0 /home/vadim/projects/ipaugenblick/dpdk-1.6.0r2/x86_64-default-linuxapp-gcc/lib/librte_cmdline.a(cmdline_parse.o)
 .data          0x00000000006d5aa0       0x20 /home/vadim/projects/ipaugenblick/dpdk-1.6.0r2/x86_64-default-linuxapp-gcc/lib/librte_cmdline.a(cmdline_parse_etheraddr.o)
                0x00000000006d5aa0                cmdline_token_etheraddr_ops
 .data          0x00000000006d5ac0       0x20 /home/vadim/projects/ipaugenblick/dpdk-1.6.0r2/x86_64-default-linuxapp-gcc/lib/librte_cmdline.a(cmdline_parse_ipaddr.o)
                0x00000000006d5ac0                cmdline_token_ipaddr_ops
 .data          0x00000000006d5ae0       0x20 /home/vadim/projects/ipaugenblick/dpdk-1.6.0r2/x86_64-default-linuxapp-gcc/lib/librte_cmdline.a(cmdline_parse_num.o)
                0x00000000006d5ae0                cmdline_token_num_ops
 .data          0x00000000006d5b00       0x20 /home/vadim/projects/ipaugenblick/dpdk-1.6.0r2/x86_64-default-linuxapp-gcc/lib/librte_cmdline.a(cmdline_parse_string.o)
                0x00000000006d5b00                cmdline_token_string_ops
 .data          0x00000000006d5b20        0x0 /home/vadim/projects/ipaugenblick/dpdk-1.6.0r2/x86_64-default-linuxapp-gcc/lib/librte_cmdline.a(cmdline_rdline.o)
 .data          0x00000000006d5b20       0xd0 /home/vadim/projects/ipaugenblick/dpdk-1.6.0r2/x86_64-default-linuxapp-gcc/lib/librte_cmdline.a(cmdline_vt100.o)
                0x00000000006d5b20                cmdline_vt100_commands
 .data          0x00000000006d5bf0        0x0 /home/vadim/projects/ipaugenblick/dpdk-1.6.0r2/x86_64-default-linuxapp-gcc/lib/librte_cmdline.a(cmdline_socket.o)
 *fill*         0x00000000006d5bf0       0x10 00
 .data          0x00000000006d5c00       0x20 /home/vadim/projects/ipaugenblick/dpdk-1.6.0r2/x86_64-default-linuxapp-gcc/lib/librte_cmdline.a(cmdline_parse_portlist.o)
                0x00000000006d5c00                cmdline_token_portlist_ops
 .data          0x00000000006d5c20        0x0 /usr/lib/x86_64-linux-gnu/libc_nonshared.a(elf-init.oS)
 .data          0x00000000006d5c20        0x0 /usr/lib/gcc/x86_64-linux-gnu/4.6/crtend.o
 .data          0x00000000006d5c20        0x0 /usr/lib/gcc/x86_64-linux-gnu/4.6/../../../x86_64-linux-gnu/crtn.o

.data1
 *(.data1)
                0x00000000006d5c20                _edata = .
                0x00000000006d5c20                PROVIDE (edata, .)
                0x00000000006d5c20                __bss_start = .

.bss            0x00000000006d5c40    0x923a0
 *(.dynbss)
 .dynbss        0x00000000006d5c40       0x38 /usr/lib/gcc/x86_64-linux-gnu/4.6/../../../x86_64-linux-gnu/crt1.o
                0x00000000006d5c40                stdout@@GLIBC_2.2.5
                0x00000000006d5c48                stdin@@GLIBC_2.2.5
                0x00000000006d5c60                optind@@GLIBC_2.2.5
                0x00000000006d5c68                optarg@@GLIBC_2.2.5
                0x00000000006d5c70                stderr@@GLIBC_2.2.5
 *(.bss .bss.* .gnu.linkonce.b.*)
 .bss           0x00000000006d5c78        0x0 /usr/lib/gcc/x86_64-linux-gnu/4.6/../../../x86_64-linux-gnu/crt1.o
 .bss           0x00000000006d5c78        0x0 /usr/lib/gcc/x86_64-linux-gnu/4.6/../../../x86_64-linux-gnu/crti.o
 .bss           0x00000000006d5c78       0x10 /usr/lib/gcc/x86_64-linux-gnu/4.6/crtbegin.o
 *fill*         0x00000000006d5c88        0x8 00
 .bss           0x00000000006d5c90       0x94 testpmd.o
                0x00000000006d5c90                nb_rx_queue_stats_mappings
                0x00000000006d5ca0                nb_tx_queue_stats_mappings
                0x00000000006d5ca2                no_flush_rx
                0x00000000006d5ca4                port_topology
                0x00000000006d5ca8                txq_flags
                0x00000000006d5cac                tx_rs_thresh
                0x00000000006d5cae                tx_free_thresh
                0x00000000006d5cb0                rx_drop_en
                0x00000000006d5cb2                rx_free_thresh
                0x00000000006d5cb4                dcb_q_mapping
                0x00000000006d5cc0                dcb_test
                0x00000000006d5cd0                dcb_config
                0x00000000006d5ce0                param_total_num_mbufs
                0x00000000006d5ce4                nb_peer_eth_addrs
                0x00000000006d5ce5                mp_anon
                0x00000000006d5cf0                numa_support
                0x00000000006d5d00                interactive
                0x00000000006d5d10                verbose_level
 .bss           0x00000000006d5d24        0x0 parameters.o
 .bss           0x00000000006d5d24        0x0 cmdline.o
 .bss           0x00000000006d5d24        0x0 config.o
 .bss           0x00000000006d5d24        0x0 iofwd.o
 .bss           0x00000000006d5d24        0x0 macfwd.o
 .bss           0x00000000006d5d24        0x0 macfwd-retry.o
 .bss           0x00000000006d5d24        0x0 rxonly.o
 *fill*         0x00000000006d5d24        0xc 00
 .bss           0x00000000006d5d30       0x1c txonly.o
 .bss           0x00000000006d5d4c        0x0 csumonly.o
 .bss           0x00000000006d5d4c        0x0 mempool_anon.o
 .bss           0x00000000006d5d4c        0x0 /home/vadim/projects/ipaugenblick/dpdk-1.6.0r2/x86_64-default-linuxapp-gcc/lib/librte_kni.a(rte_kni.o)
 .bss           0x00000000006d5d4c        0x0 /home/vadim/projects/ipaugenblick/dpdk-1.6.0r2/x86_64-default-linuxapp-gcc/lib/librte_pmd_e1000.a(e1000_80003es2lan.o)
 .bss           0x00000000006d5d4c        0x0 /home/vadim/projects/ipaugenblick/dpdk-1.6.0r2/x86_64-default-linuxapp-gcc/lib/librte_pmd_e1000.a(e1000_82540.o)
 .bss           0x00000000006d5d4c        0x0 /home/vadim/projects/ipaugenblick/dpdk-1.6.0r2/x86_64-default-linuxapp-gcc/lib/librte_pmd_e1000.a(e1000_82541.o)
 .bss           0x00000000006d5d4c        0x0 /home/vadim/projects/ipaugenblick/dpdk-1.6.0r2/x86_64-default-linuxapp-gcc/lib/librte_pmd_e1000.a(e1000_82542.o)
 .bss           0x00000000006d5d4c        0x0 /home/vadim/projects/ipaugenblick/dpdk-1.6.0r2/x86_64-default-linuxapp-gcc/lib/librte_pmd_e1000.a(e1000_82543.o)
 .bss           0x00000000006d5d4c        0x0 /home/vadim/projects/ipaugenblick/dpdk-1.6.0r2/x86_64-default-linuxapp-gcc/lib/librte_pmd_e1000.a(e1000_82571.o)
 .bss           0x00000000006d5d4c        0x0 /home/vadim/projects/ipaugenblick/dpdk-1.6.0r2/x86_64-default-linuxapp-gcc/lib/librte_pmd_e1000.a(e1000_82575.o)
 .bss           0x00000000006d5d4c        0x0 /home/vadim/projects/ipaugenblick/dpdk-1.6.0r2/x86_64-default-linuxapp-gcc/lib/librte_pmd_e1000.a(e1000_i210.o)
 .bss           0x00000000006d5d4c        0x0 /home/vadim/projects/ipaugenblick/dpdk-1.6.0r2/x86_64-default-linuxapp-gcc/lib/librte_pmd_e1000.a(e1000_api.o)
 .bss           0x00000000006d5d4c        0x0 /home/vadim/projects/ipaugenblick/dpdk-1.6.0r2/x86_64-default-linuxapp-gcc/lib/librte_pmd_e1000.a(e1000_ich8lan.o)
 .bss           0x00000000006d5d4c        0x0 /home/vadim/projects/ipaugenblick/dpdk-1.6.0r2/x86_64-default-linuxapp-gcc/lib/librte_pmd_e1000.a(e1000_mac.o)
 .bss           0x00000000006d5d4c        0x0 /home/vadim/projects/ipaugenblick/dpdk-1.6.0r2/x86_64-default-linuxapp-gcc/lib/librte_pmd_e1000.a(e1000_manage.o)
 .bss           0x00000000006d5d4c        0x0 /home/vadim/projects/ipaugenblick/dpdk-1.6.0r2/x86_64-default-linuxapp-gcc/lib/librte_pmd_e1000.a(e1000_mbx.o)
 .bss           0x00000000006d5d4c        0x0 /home/vadim/projects/ipaugenblick/dpdk-1.6.0r2/x86_64-default-linuxapp-gcc/lib/librte_pmd_e1000.a(e1000_nvm.o)
 .bss           0x00000000006d5d4c        0x0 /home/vadim/projects/ipaugenblick/dpdk-1.6.0r2/x86_64-default-linuxapp-gcc/lib/librte_pmd_e1000.a(e1000_osdep.o)
 .bss           0x00000000006d5d4c        0x0 /home/vadim/projects/ipaugenblick/dpdk-1.6.0r2/x86_64-default-linuxapp-gcc/lib/librte_pmd_e1000.a(e1000_phy.o)
 .bss           0x00000000006d5d4c        0x0 /home/vadim/projects/ipaugenblick/dpdk-1.6.0r2/x86_64-default-linuxapp-gcc/lib/librte_pmd_e1000.a(e1000_vf.o)
 .bss           0x00000000006d5d4c        0x0 /home/vadim/projects/ipaugenblick/dpdk-1.6.0r2/x86_64-default-linuxapp-gcc/lib/librte_pmd_e1000.a(igb_ethdev.o)
 .bss           0x00000000006d5d4c        0x0 /home/vadim/projects/ipaugenblick/dpdk-1.6.0r2/x86_64-default-linuxapp-gcc/lib/librte_pmd_e1000.a(igb_rxtx.o)
 .bss           0x00000000006d5d4c        0x0 /home/vadim/projects/ipaugenblick/dpdk-1.6.0r2/x86_64-default-linuxapp-gcc/lib/librte_pmd_e1000.a(igb_pf.o)
 .bss           0x00000000006d5d4c        0x0 /home/vadim/projects/ipaugenblick/dpdk-1.6.0r2/x86_64-default-linuxapp-gcc/lib/librte_pmd_e1000.a(em_ethdev.o)
 .bss           0x00000000006d5d4c        0x0 /home/vadim/projects/ipaugenblick/dpdk-1.6.0r2/x86_64-default-linuxapp-gcc/lib/librte_pmd_e1000.a(em_rxtx.o)
 .bss           0x00000000006d5d4c        0x0 /home/vadim/projects/ipaugenblick/dpdk-1.6.0r2/x86_64-default-linuxapp-gcc/lib/librte_pmd_ixgbe.a(ixgbe_common.o)
 .bss           0x00000000006d5d4c        0x0 /home/vadim/projects/ipaugenblick/dpdk-1.6.0r2/x86_64-default-linuxapp-gcc/lib/librte_pmd_ixgbe.a(ixgbe_82598.o)
 .bss           0x00000000006d5d4c        0x0 /home/vadim/projects/ipaugenblick/dpdk-1.6.0r2/x86_64-default-linuxapp-gcc/lib/librte_pmd_ixgbe.a(ixgbe_82599.o)
 .bss           0x00000000006d5d4c        0x0 /home/vadim/projects/ipaugenblick/dpdk-1.6.0r2/x86_64-default-linuxapp-gcc/lib/librte_pmd_ixgbe.a(ixgbe_x540.o)
 .bss           0x00000000006d5d4c        0x0 /home/vadim/projects/ipaugenblick/dpdk-1.6.0r2/x86_64-default-linuxapp-gcc/lib/librte_pmd_ixgbe.a(ixgbe_phy.o)
 .bss           0x00000000006d5d4c        0x0 /home/vadim/projects/ipaugenblick/dpdk-1.6.0r2/x86_64-default-linuxapp-gcc/lib/librte_pmd_ixgbe.a(ixgbe_api.o)
 .bss           0x00000000006d5d4c        0x0 /home/vadim/projects/ipaugenblick/dpdk-1.6.0r2/x86_64-default-linuxapp-gcc/lib/librte_pmd_ixgbe.a(ixgbe_vf.o)
 .bss           0x00000000006d5d4c        0x0 /home/vadim/projects/ipaugenblick/dpdk-1.6.0r2/x86_64-default-linuxapp-gcc/lib/librte_pmd_ixgbe.a(ixgbe_dcb.o)
 .bss           0x00000000006d5d4c        0x0 /home/vadim/projects/ipaugenblick/dpdk-1.6.0r2/x86_64-default-linuxapp-gcc/lib/librte_pmd_ixgbe.a(ixgbe_dcb_82599.o)
 .bss           0x00000000006d5d4c        0x0 /home/vadim/projects/ipaugenblick/dpdk-1.6.0r2/x86_64-default-linuxapp-gcc/lib/librte_pmd_ixgbe.a(ixgbe_dcb_82598.o)
 .bss           0x00000000006d5d4c        0x0 /home/vadim/projects/ipaugenblick/dpdk-1.6.0r2/x86_64-default-linuxapp-gcc/lib/librte_pmd_ixgbe.a(ixgbe_mbx.o)
 .bss           0x00000000006d5d4c        0x0 /home/vadim/projects/ipaugenblick/dpdk-1.6.0r2/x86_64-default-linuxapp-gcc/lib/librte_pmd_ixgbe.a(ixgbe_rxtx.o)
 .bss           0x00000000006d5d4c        0x0 /home/vadim/projects/ipaugenblick/dpdk-1.6.0r2/x86_64-default-linuxapp-gcc/lib/librte_pmd_ixgbe.a(ixgbe_ethdev.o)
 .bss           0x00000000006d5d4c        0x0 /home/vadim/projects/ipaugenblick/dpdk-1.6.0r2/x86_64-default-linuxapp-gcc/lib/librte_pmd_ixgbe.a(ixgbe_fdir.o)
 .bss           0x00000000006d5d4c        0x0 /home/vadim/projects/ipaugenblick/dpdk-1.6.0r2/x86_64-default-linuxapp-gcc/lib/librte_pmd_ixgbe.a(ixgbe_pf.o)
 .bss           0x00000000006d5d4c        0x0 /home/vadim/projects/ipaugenblick/dpdk-1.6.0r2/x86_64-default-linuxapp-gcc/lib/librte_pmd_virtio_uio.a(virtqueue.o)
 .bss           0x00000000006d5d4c        0x0 /home/vadim/projects/ipaugenblick/dpdk-1.6.0r2/x86_64-default-linuxapp-gcc/lib/librte_pmd_virtio_uio.a(virtio_pci.o)
 .bss           0x00000000006d5d4c        0x0 /home/vadim/projects/ipaugenblick/dpdk-1.6.0r2/x86_64-default-linuxapp-gcc/lib/librte_pmd_virtio_uio.a(virtio_rxtx.o)
 .bss           0x00000000006d5d4c        0x0 /home/vadim/projects/ipaugenblick/dpdk-1.6.0r2/x86_64-default-linuxapp-gcc/lib/librte_pmd_virtio_uio.a(virtio_ethdev.o)
 .bss           0x00000000006d5d4c        0x0 /home/vadim/projects/ipaugenblick/dpdk-1.6.0r2/x86_64-default-linuxapp-gcc/lib/librte_pmd_vmxnet3_uio.a(vmxnet3_rxtx.o)
 .bss           0x00000000006d5d4c        0x0 /home/vadim/projects/ipaugenblick/dpdk-1.6.0r2/x86_64-default-linuxapp-gcc/lib/librte_pmd_vmxnet3_uio.a(vmxnet3_ethdev.o)
 *fill*         0x00000000006d5d4c       0x34 00
 .bss           0x00000000006d5d80     0x3000 /home/vadim/projects/ipaugenblick/dpdk-1.6.0r2/x86_64-default-linuxapp-gcc/lib/librte_timer.a(rte_timer.o)
 .bss           0x00000000006d8d80        0x0 /home/vadim/projects/ipaugenblick/dpdk-1.6.0r2/x86_64-default-linuxapp-gcc/lib/librte_hash.a(rte_hash.o)
 .bss           0x00000000006d8d80        0x0 /home/vadim/projects/ipaugenblick/dpdk-1.6.0r2/x86_64-default-linuxapp-gcc/lib/librte_hash.a(rte_fbk_hash.o)
 .bss           0x00000000006d8d80        0x0 /home/vadim/projects/ipaugenblick/dpdk-1.6.0r2/x86_64-default-linuxapp-gcc/lib/librte_lpm.a(rte_lpm.o)
 .bss           0x00000000006d8d80        0x0 /home/vadim/projects/ipaugenblick/dpdk-1.6.0r2/x86_64-default-linuxapp-gcc/lib/librte_lpm.a(rte_lpm6.o)
 .bss           0x00000000006d8d80     0x4e00 /home/vadim/projects/ipaugenblick/dpdk-1.6.0r2/x86_64-default-linuxapp-gcc/lib/librte_power.a(rte_power.o)
 .bss           0x00000000006ddb80        0x0 /home/vadim/projects/ipaugenblick/dpdk-1.6.0r2/x86_64-default-linuxapp-gcc/lib/librte_meter.a(rte_meter.o)
 .bss           0x00000000006ddb80        0x0 /home/vadim/projects/ipaugenblick/dpdk-1.6.0r2/x86_64-default-linuxapp-gcc/lib/librte_sched.a(rte_sched.o)
 .bss           0x00000000006ddb80       0x14 /home/vadim/projects/ipaugenblick/dpdk-1.6.0r2/x86_64-default-linuxapp-gcc/lib/librte_sched.a(rte_red.o)
                0x00000000006ddb80                rte_red_rand_seed
                0x00000000006ddb84                rte_red_rand_val
 .bss           0x00000000006ddb94        0x0 /home/vadim/projects/ipaugenblick/dpdk-1.6.0r2/x86_64-default-linuxapp-gcc/lib/librte_sched.a(rte_approx.o)
 .bss           0x00000000006ddb94        0x0 /home/vadim/projects/ipaugenblick/dpdk-1.6.0r2/x86_64-default-linuxapp-gcc/lib/librte_kvargs.a(rte_kvargs.o)
 .bss           0x00000000006ddb94        0x0 /home/vadim/projects/ipaugenblick/dpdk-1.6.0r2/x86_64-default-linuxapp-gcc/lib/librte_mbuf.a(rte_mbuf.o)
 *fill*         0x00000000006ddb94        0xc 00
 .bss           0x00000000006ddba0       0x24 /home/vadim/projects/ipaugenblick/dpdk-1.6.0r2/x86_64-default-linuxapp-gcc/lib/libethdev.a(rte_ethdev.o)
 .bss           0x00000000006ddbc4        0x6 /home/vadim/projects/ipaugenblick/dpdk-1.6.0r2/x86_64-default-linuxapp-gcc/lib/librte_pmd_ring.a(rte_eth_ring.o)
 *fill*         0x00000000006ddbca        0x2 00
 .bss           0x00000000006ddbcc        0x0 /home/vadim/projects/ipaugenblick/dpdk-1.6.0r2/x86_64-default-linuxapp-gcc/lib/librte_malloc.a(rte_malloc.o)
 .bss           0x00000000006ddbcc        0x0 /home/vadim/projects/ipaugenblick/dpdk-1.6.0r2/x86_64-default-linuxapp-gcc/lib/librte_malloc.a(malloc_elem.o)
 .bss           0x00000000006ddbcc        0x0 /home/vadim/projects/ipaugenblick/dpdk-1.6.0r2/x86_64-default-linuxapp-gcc/lib/librte_malloc.a(malloc_heap.o)
 .bss           0x00000000006ddbcc        0x0 /home/vadim/projects/ipaugenblick/dpdk-1.6.0r2/x86_64-default-linuxapp-gcc/lib/librte_mempool.a(rte_mempool.o)
 .bss           0x00000000006ddbcc        0x0 /home/vadim/projects/ipaugenblick/dpdk-1.6.0r2/x86_64-default-linuxapp-gcc/lib/librte_ring.a(rte_ring.o)
 *fill*         0x00000000006ddbcc       0x14 00
 .bss           0x00000000006ddbe0    0x36440 /home/vadim/projects/ipaugenblick/dpdk-1.6.0r2/x86_64-default-linuxapp-gcc/lib/librte_eal.a(eal.o)
 .bss           0x0000000000714020        0x8 /home/vadim/projects/ipaugenblick/dpdk-1.6.0r2/x86_64-default-linuxapp-gcc/lib/librte_eal.a(eal_hugepage_info.o)
 *fill*         0x0000000000714028       0x18 00
 .bss           0x0000000000714040     0x1020 /home/vadim/projects/ipaugenblick/dpdk-1.6.0r2/x86_64-default-linuxapp-gcc/lib/librte_eal.a(eal_memory.o)
 .bss           0x0000000000715060        0x0 /home/vadim/projects/ipaugenblick/dpdk-1.6.0r2/x86_64-default-linuxapp-gcc/lib/librte_eal.a(eal_thread.o)
 .bss           0x0000000000715060        0x8 /home/vadim/projects/ipaugenblick/dpdk-1.6.0r2/x86_64-default-linuxapp-gcc/lib/librte_eal.a(eal_log.o)
 *fill*         0x0000000000715068        0x8 00
 .bss           0x0000000000715070        0x8 /home/vadim/projects/ipaugenblick/dpdk-1.6.0r2/x86_64-default-linuxapp-gcc/lib/librte_eal.a(eal_pci.o)
 .bss           0x0000000000715078        0x0 /home/vadim/projects/ipaugenblick/dpdk-1.6.0r2/x86_64-default-linuxapp-gcc/lib/librte_eal.a(eal_debug.o)
 .bss           0x0000000000715078        0x0 /home/vadim/projects/ipaugenblick/dpdk-1.6.0r2/x86_64-default-linuxapp-gcc/lib/librte_eal.a(eal_lcore.o)
 *fill*         0x0000000000715078        0x8 00
 .bss           0x0000000000715080        0x8 /home/vadim/projects/ipaugenblick/dpdk-1.6.0r2/x86_64-default-linuxapp-gcc/lib/librte_eal.a(eal_timer.o)
 *fill*         0x0000000000715088        0x8 00
 .bss           0x0000000000715090       0x30 /home/vadim/projects/ipaugenblick/dpdk-1.6.0r2/x86_64-default-linuxapp-gcc/lib/librte_eal.a(eal_interrupts.o)
 .bss           0x00000000007150c0       0x18 /home/vadim/projects/ipaugenblick/dpdk-1.6.0r2/x86_64-default-linuxapp-gcc/lib/librte_eal.a(eal_alarm.o)
 *fill*         0x00000000007150d8        0x8 00
 .bss           0x00000000007150e0        0x8 /home/vadim/projects/ipaugenblick/dpdk-1.6.0r2/x86_64-default-linuxapp-gcc/lib/librte_eal.a(eal_common_memzone.o)
 *fill*         0x00000000007150e8       0x18 00
 .bss           0x0000000000715100     0x1044 /home/vadim/projects/ipaugenblick/dpdk-1.6.0r2/x86_64-default-linuxapp-gcc/lib/librte_eal.a(eal_common_log.o)
 .bss           0x0000000000716144        0x0 /home/vadim/projects/ipaugenblick/dpdk-1.6.0r2/x86_64-default-linuxapp-gcc/lib/librte_eal.a(eal_common_launch.o)
 .bss           0x0000000000716144        0x0 /home/vadim/projects/ipaugenblick/dpdk-1.6.0r2/x86_64-default-linuxapp-gcc/lib/librte_eal.a(eal_common_pci.o)
 .bss           0x0000000000716144        0x0 /home/vadim/projects/ipaugenblick/dpdk-1.6.0r2/x86_64-default-linuxapp-gcc/lib/librte_eal.a(eal_common_memory.o)
 .bss           0x0000000000716144        0x0 /home/vadim/projects/ipaugenblick/dpdk-1.6.0r2/x86_64-default-linuxapp-gcc/lib/librte_eal.a(eal_common_tailqs.o)
 .bss           0x0000000000716144        0x0 /home/vadim/projects/ipaugenblick/dpdk-1.6.0r2/x86_64-default-linuxapp-gcc/lib/librte_eal.a(eal_common_errno.o)
 .bss           0x0000000000716144        0x0 /home/vadim/projects/ipaugenblick/dpdk-1.6.0r2/x86_64-default-linuxapp-gcc/lib/librte_eal.a(eal_common_cpuflags.o)
 .bss           0x0000000000716144        0x0 /home/vadim/projects/ipaugenblick/dpdk-1.6.0r2/x86_64-default-linuxapp-gcc/lib/librte_eal.a(eal_common_hexdump.o)
 .bss           0x0000000000716144        0x0 /home/vadim/projects/ipaugenblick/dpdk-1.6.0r2/x86_64-default-linuxapp-gcc/lib/librte_eal.a(eal_common_devargs.o)
 .bss           0x0000000000716144        0x0 /home/vadim/projects/ipaugenblick/dpdk-1.6.0r2/x86_64-default-linuxapp-gcc/lib/librte_eal.a(eal_common_vdev.o)
 .bss           0x0000000000716144        0x0 /home/vadim/projects/ipaugenblick/dpdk-1.6.0r2/x86_64-default-linuxapp-gcc/lib/librte_cmdline.a(cmdline.o)
 .bss           0x0000000000716144        0x0 /home/vadim/projects/ipaugenblick/dpdk-1.6.0r2/x86_64-default-linuxapp-gcc/lib/librte_cmdline.a(cmdline_cirbuf.o)
 .bss           0x0000000000716144        0x0 /home/vadim/projects/ipaugenblick/dpdk-1.6.0r2/x86_64-default-linuxapp-gcc/lib/librte_cmdline.a(cmdline_parse.o)
 *fill*         0x0000000000716144        0xc 00
 .bss           0x0000000000716150        0x6 /home/vadim/projects/ipaugenblick/dpdk-1.6.0r2/x86_64-default-linuxapp-gcc/lib/librte_cmdline.a(cmdline_parse_etheraddr.o)
 *fill*         0x0000000000716156        0x2 00
 .bss           0x0000000000716158        0x0 /home/vadim/projects/ipaugenblick/dpdk-1.6.0r2/x86_64-default-linuxapp-gcc/lib/librte_cmdline.a(cmdline_parse_ipaddr.o)
 .bss           0x0000000000716158        0x0 /home/vadim/projects/ipaugenblick/dpdk-1.6.0r2/x86_64-default-linuxapp-gcc/lib/librte_cmdline.a(cmdline_parse_num.o)
 .bss           0x0000000000716158        0x0 /home/vadim/projects/ipaugenblick/dpdk-1.6.0r2/x86_64-default-linuxapp-gcc/lib/librte_cmdline.a(cmdline_parse_string.o)
 .bss           0x0000000000716158        0x0 /home/vadim/projects/ipaugenblick/dpdk-1.6.0r2/x86_64-default-linuxapp-gcc/lib/librte_cmdline.a(cmdline_rdline.o)
 .bss           0x0000000000716158        0x0 /home/vadim/projects/ipaugenblick/dpdk-1.6.0r2/x86_64-default-linuxapp-gcc/lib/librte_cmdline.a(cmdline_vt100.o)
 .bss           0x0000000000716158        0x0 /home/vadim/projects/ipaugenblick/dpdk-1.6.0r2/x86_64-default-linuxapp-gcc/lib/librte_cmdline.a(cmdline_socket.o)
 .bss           0x0000000000716158        0x0 /home/vadim/projects/ipaugenblick/dpdk-1.6.0r2/x86_64-default-linuxapp-gcc/lib/librte_cmdline.a(cmdline_parse_portlist.o)
 .bss           0x0000000000716158        0x0 /usr/lib/x86_64-linux-gnu/libc_nonshared.a(elf-init.oS)
 .bss           0x0000000000716158        0x0 /usr/lib/gcc/x86_64-linux-gnu/4.6/crtend.o
 .bss           0x0000000000716158        0x0 /usr/lib/gcc/x86_64-linux-gnu/4.6/../../../x86_64-linux-gnu/crtn.o
 *(COMMON)
 *fill*         0x0000000000716158       0x28 00
 COMMON         0x0000000000716180    0x50321 testpmd.o
                0x0000000000716180                tx_queue_stats_mappings_array
                0x0000000000726180                nb_ports
                0x00000000007261a0                fwd_ports_ids
                0x00000000007261c0                nb_cfg_ports
                0x00000000007261e0                fwd_lcores_cpuids
                0x00000000007262e0                rxring_numa
                0x0000000000726300                nb_fwd_lcores
                0x0000000000726320                txring_numa
                0x0000000000726340                port_numa
                0x0000000000726360                ports
                0x0000000000726380                rx_queue_stats_mappings_array
                0x0000000000766380                nb_fwd_ports
                0x0000000000766390                fwd_streams
                0x00000000007663a0                nb_fwd_streams
                0x00000000007663b0                cur_fwd_config
                0x00000000007663c0                peer_eth_addrs
                0x0000000000766480                nb_lcores
                0x0000000000766490                fwd_lcores
                0x00000000007664a0                nb_cfg_lcores
 *fill*         0x00000000007664a1       0x1f 00
 COMMON         0x00000000007664c0      0x138 /home/vadim/projects/ipaugenblick/dpdk-1.6.0r2/x86_64-default-linuxapp-gcc/lib/librte_power.a(rte_power.o)
                0x00000000007664c0                __rte_cache_aligned
 *fill*         0x00000000007665f8        0x8 00
 COMMON         0x0000000000766600       0x38 /home/vadim/projects/ipaugenblick/dpdk-1.6.0r2/x86_64-default-linuxapp-gcc/lib/librte_sched.a(rte_red.o)
                0x0000000000766600                rte_red_pow2_frac_inv
                0x0000000000766620                rte_red_log2_1_minus_Wq
 *fill*         0x0000000000766638        0x8 00
 COMMON         0x0000000000766640      0x800 /home/vadim/projects/ipaugenblick/dpdk-1.6.0r2/x86_64-default-linuxapp-gcc/lib/libethdev.a(rte_ethdev.o)
                0x0000000000766640                rte_eth_devices
 COMMON         0x0000000000766e40     0x1180 /home/vadim/projects/ipaugenblick/dpdk-1.6.0r2/x86_64-default-linuxapp-gcc/lib/librte_eal.a(eal.o)
                0x0000000000766e40                rte_cycles_vmware_tsc_map
                0x0000000000766e60                internal_config
                0x0000000000766fc0                lcore_config
 COMMON         0x0000000000767fc0       0x20 /home/vadim/projects/ipaugenblick/dpdk-1.6.0r2/x86_64-default-linuxapp-gcc/lib/librte_eal.a(eal_common_pci.o)
                0x0000000000767fc0                pci_device_list
                0x0000000000767fd0                pci_driver_list
                0x0000000000767fe0                . = ALIGN ((. != 0x0)?0x8:0x1)

.lbss
 *(.dynlbss)
 *(.lbss .lbss.* .gnu.linkonce.lb.*)
 *(LARGE_COMMON)
                0x0000000000767fe0                . = ALIGN (0x8)

.lrodata
 *(.lrodata .lrodata.* .gnu.linkonce.lr.*)

.ldata          0x0000000000b67fe0        0x0
 *(.ldata .ldata.* .gnu.linkonce.l.*)
                0x0000000000b67fe0                . = ALIGN ((. != 0x0)?0x8:0x1)
                0x0000000000b67fe0                . = ALIGN (0x8)
                0x0000000000b67fe0                _end = .
                0x0000000000b67fe0                PROVIDE (end, .)
                0x0000000000b67fe0                . = DATA_SEGMENT_END (.)

.stab
 *(.stab)

.stabstr
 *(.stabstr)

.stab.excl
 *(.stab.excl)

.stab.exclstr
 *(.stab.exclstr)

.stab.index
 *(.stab.index)

.stab.indexstr
 *(.stab.indexstr)

.comment        0x0000000000000000      0x4f1
 *(.comment)
 .comment       0x0000000000000000       0x2a /usr/lib/gcc/x86_64-linux-gnu/4.6/crtbegin.o
                                         0x2b (size before relaxing)
 .comment       0x0000000000000000       0x2b testpmd.o
 .comment       0x0000000000000000       0x2b parameters.o
 .comment       0x0000000000000000       0x2b cmdline.o
 .comment       0x0000000000000000       0x2b config.o
 .comment       0x0000000000000000       0x2b iofwd.o
 .comment       0x0000000000000000       0x2b macfwd.o
 .comment       0x0000000000000000       0x2b macfwd-retry.o
 .comment       0x0000000000000000       0x2b rxonly.o
 .comment       0x0000000000000000       0x2b txonly.o
 .comment       0x0000000000000000       0x2b csumonly.o
 .comment       0x0000000000000000       0x2b mempool_anon.o
 .comment       0x0000000000000000       0x2b /home/vadim/projects/ipaugenblick/dpdk-1.6.0r2/x86_64-default-linuxapp-gcc/lib/librte_kni.a(rte_kni.o)
 .comment       0x0000000000000000       0x2b /home/vadim/projects/ipaugenblick/dpdk-1.6.0r2/x86_64-default-linuxapp-gcc/lib/librte_pmd_e1000.a(e1000_80003es2lan.o)
 .comment       0x0000000000000000       0x2b /home/vadim/projects/ipaugenblick/dpdk-1.6.0r2/x86_64-default-linuxapp-gcc/lib/librte_pmd_e1000.a(e1000_82540.o)
 .comment       0x0000000000000000       0x2b /home/vadim/projects/ipaugenblick/dpdk-1.6.0r2/x86_64-default-linuxapp-gcc/lib/librte_pmd_e1000.a(e1000_82541.o)
 .comment       0x0000000000000000       0x2b /home/vadim/projects/ipaugenblick/dpdk-1.6.0r2/x86_64-default-linuxapp-gcc/lib/librte_pmd_e1000.a(e1000_82542.o)
 .comment       0x0000000000000000       0x2b /home/vadim/projects/ipaugenblick/dpdk-1.6.0r2/x86_64-default-linuxapp-gcc/lib/librte_pmd_e1000.a(e1000_82543.o)
 .comment       0x0000000000000000       0x2b /home/vadim/projects/ipaugenblick/dpdk-1.6.0r2/x86_64-default-linuxapp-gcc/lib/librte_pmd_e1000.a(e1000_82571.o)
 .comment       0x0000000000000000       0x2b /home/vadim/projects/ipaugenblick/dpdk-1.6.0r2/x86_64-default-linuxapp-gcc/lib/librte_pmd_e1000.a(e1000_82575.o)
 .comment       0x0000000000000000       0x2b /home/vadim/projects/ipaugenblick/dpdk-1.6.0r2/x86_64-default-linuxapp-gcc/lib/librte_pmd_e1000.a(e1000_i210.o)
 .comment       0x0000000000000000       0x2b /home/vadim/projects/ipaugenblick/dpdk-1.6.0r2/x86_64-default-linuxapp-gcc/lib/librte_pmd_e1000.a(e1000_api.o)
 .comment       0x0000000000000000       0x2b /home/vadim/projects/ipaugenblick/dpdk-1.6.0r2/x86_64-default-linuxapp-gcc/lib/librte_pmd_e1000.a(e1000_ich8lan.o)
 .comment       0x0000000000000000       0x2b /home/vadim/projects/ipaugenblick/dpdk-1.6.0r2/x86_64-default-linuxapp-gcc/lib/librte_pmd_e1000.a(e1000_mac.o)
 .comment       0x0000000000000000       0x2b /home/vadim/projects/ipaugenblick/dpdk-1.6.0r2/x86_64-default-linuxapp-gcc/lib/librte_pmd_e1000.a(e1000_manage.o)
 .comment       0x0000000000000000       0x2b /home/vadim/projects/ipaugenblick/dpdk-1.6.0r2/x86_64-default-linuxapp-gcc/lib/librte_pmd_e1000.a(e1000_mbx.o)
 .comment       0x0000000000000000       0x2b /home/vadim/projects/ipaugenblick/dpdk-1.6.0r2/x86_64-default-linuxapp-gcc/lib/librte_pmd_e1000.a(e1000_nvm.o)
 .comment       0x0000000000000000       0x2b /home/vadim/projects/ipaugenblick/dpdk-1.6.0r2/x86_64-default-linuxapp-gcc/lib/librte_pmd_e1000.a(e1000_osdep.o)
 .comment       0x0000000000000000       0x2b /home/vadim/projects/ipaugenblick/dpdk-1.6.0r2/x86_64-default-linuxapp-gcc/lib/librte_pmd_e1000.a(e1000_phy.o)
 .comment       0x0000000000000000       0x2b /home/vadim/projects/ipaugenblick/dpdk-1.6.0r2/x86_64-default-linuxapp-gcc/lib/librte_pmd_e1000.a(e1000_vf.o)
 .comment       0x0000000000000000       0x2b /home/vadim/projects/ipaugenblick/dpdk-1.6.0r2/x86_64-default-linuxapp-gcc/lib/librte_pmd_e1000.a(igb_ethdev.o)
 .comment       0x0000000000000000       0x2b /home/vadim/projects/ipaugenblick/dpdk-1.6.0r2/x86_64-default-linuxapp-gcc/lib/librte_pmd_e1000.a(igb_rxtx.o)
 .comment       0x0000000000000000       0x2b /home/vadim/projects/ipaugenblick/dpdk-1.6.0r2/x86_64-default-linuxapp-gcc/lib/librte_pmd_e1000.a(igb_pf.o)
 .comment       0x0000000000000000       0x2b /home/vadim/projects/ipaugenblick/dpdk-1.6.0r2/x86_64-default-linuxapp-gcc/lib/librte_pmd_e1000.a(em_ethdev.o)
 .comment       0x0000000000000000       0x2b /home/vadim/projects/ipaugenblick/dpdk-1.6.0r2/x86_64-default-linuxapp-gcc/lib/librte_pmd_e1000.a(em_rxtx.o)
 .comment       0x000000000000002a      0x132 /home/vadim/projects/ipaugenblick/dpdk-1.6.0r2/x86_64-default-linuxapp-gcc/lib/librte_pmd_ixgbe.a(ixgbe_common.o)
                                        0x15d (size before relaxing)
 .comment       0x000000000000015c       0x7a /home/vadim/projects/ipaugenblick/dpdk-1.6.0r2/x86_64-default-linuxapp-gcc/lib/librte_pmd_ixgbe.a(ixgbe_82598.o)
                                        0x198 (size before relaxing)
 .comment       0x00000000000001d6       0x7a /home/vadim/projects/ipaugenblick/dpdk-1.6.0r2/x86_64-default-linuxapp-gcc/lib/librte_pmd_ixgbe.a(ixgbe_82599.o)
                                        0x198 (size before relaxing)
 .comment       0x0000000000000250       0x3b /home/vadim/projects/ipaugenblick/dpdk-1.6.0r2/x86_64-default-linuxapp-gcc/lib/librte_pmd_ixgbe.a(ixgbe_x540.o)
                                        0x159 (size before relaxing)
 .comment       0x000000000000028b       0x3c /home/vadim/projects/ipaugenblick/dpdk-1.6.0r2/x86_64-default-linuxapp-gcc/lib/librte_pmd_ixgbe.a(ixgbe_phy.o)
                                        0x15a (size before relaxing)
 .comment       0x00000000000002c7       0x3c /home/vadim/projects/ipaugenblick/dpdk-1.6.0r2/x86_64-default-linuxapp-gcc/lib/librte_pmd_ixgbe.a(ixgbe_api.o)
                                        0x11f (size before relaxing)
 .comment       0x0000000000000303       0x74 /home/vadim/projects/ipaugenblick/dpdk-1.6.0r2/x86_64-default-linuxapp-gcc/lib/librte_pmd_ixgbe.a(ixgbe_vf.o)
                                        0x118 (size before relaxing)
 .comment       0x0000000000000377       0xf8 /home/vadim/projects/ipaugenblick/dpdk-1.6.0r2/x86_64-default-linuxapp-gcc/lib/librte_pmd_ixgbe.a(ixgbe_dcb.o)
                                        0x160 (size before relaxing)
 .comment       0x000000000000046f       0x41 /home/vadim/projects/ipaugenblick/dpdk-1.6.0r2/x86_64-default-linuxapp-gcc/lib/librte_pmd_ixgbe.a(ixgbe_dcb_82599.o)
                                        0x125 (size before relaxing)
 .comment       0x00000000000004b0       0x41 /home/vadim/projects/ipaugenblick/dpdk-1.6.0r2/x86_64-default-linuxapp-gcc/lib/librte_pmd_ixgbe.a(ixgbe_dcb_82598.o)
                                        0x125 (size before relaxing)
 .comment       0x0000000000000000       0x68 /home/vadim/projects/ipaugenblick/dpdk-1.6.0r2/x86_64-default-linuxapp-gcc/lib/librte_pmd_ixgbe.a(ixgbe_mbx.o)
 .comment       0x0000000000000000      0x1da /home/vadim/projects/ipaugenblick/dpdk-1.6.0r2/x86_64-default-linuxapp-gcc/lib/librte_pmd_ixgbe.a(ixgbe_rxtx.o)
 .comment       0x0000000000000000      0x1da /home/vadim/projects/ipaugenblick/dpdk-1.6.0r2/x86_64-default-linuxapp-gcc/lib/librte_pmd_ixgbe.a(ixgbe_ethdev.o)
 .comment       0x0000000000000000      0x1a0 /home/vadim/projects/ipaugenblick/dpdk-1.6.0r2/x86_64-default-linuxapp-gcc/lib/librte_pmd_ixgbe.a(ixgbe_fdir.o)
 .comment       0x0000000000000000      0x164 /home/vadim/projects/ipaugenblick/dpdk-1.6.0r2/x86_64-default-linuxapp-gcc/lib/librte_pmd_ixgbe.a(ixgbe_pf.o)
 .comment       0x0000000000000000       0x2b /home/vadim/projects/ipaugenblick/dpdk-1.6.0r2/x86_64-default-linuxapp-gcc/lib/librte_pmd_virtio_uio.a(virtqueue.o)
 .comment       0x0000000000000000       0x2b /home/vadim/projects/ipaugenblick/dpdk-1.6.0r2/x86_64-default-linuxapp-gcc/lib/librte_pmd_virtio_uio.a(virtio_pci.o)
 .comment       0x0000000000000000       0x2b /home/vadim/projects/ipaugenblick/dpdk-1.6.0r2/x86_64-default-linuxapp-gcc/lib/librte_pmd_virtio_uio.a(virtio_rxtx.o)
 .comment       0x0000000000000000       0x2b /home/vadim/projects/ipaugenblick/dpdk-1.6.0r2/x86_64-default-linuxapp-gcc/lib/librte_pmd_virtio_uio.a(virtio_ethdev.o)
 .comment       0x0000000000000000       0x2b /home/vadim/projects/ipaugenblick/dpdk-1.6.0r2/x86_64-default-linuxapp-gcc/lib/librte_pmd_vmxnet3_uio.a(vmxnet3_rxtx.o)
 .comment       0x0000000000000000       0x2b /home/vadim/projects/ipaugenblick/dpdk-1.6.0r2/x86_64-default-linuxapp-gcc/lib/librte_pmd_vmxnet3_uio.a(vmxnet3_ethdev.o)
 .comment       0x0000000000000000       0x2b /home/vadim/projects/ipaugenblick/dpdk-1.6.0r2/x86_64-default-linuxapp-gcc/lib/librte_timer.a(rte_timer.o)
 .comment       0x0000000000000000       0x2b /home/vadim/projects/ipaugenblick/dpdk-1.6.0r2/x86_64-default-linuxapp-gcc/lib/librte_hash.a(rte_hash.o)
 .comment       0x0000000000000000       0x2b /home/vadim/projects/ipaugenblick/dpdk-1.6.0r2/x86_64-default-linuxapp-gcc/lib/librte_hash.a(rte_fbk_hash.o)
 .comment       0x0000000000000000       0x2b /home/vadim/projects/ipaugenblick/dpdk-1.6.0r2/x86_64-default-linuxapp-gcc/lib/librte_lpm.a(rte_lpm.o)
 .comment       0x0000000000000000       0x2b /home/vadim/projects/ipaugenblick/dpdk-1.6.0r2/x86_64-default-linuxapp-gcc/lib/librte_lpm.a(rte_lpm6.o)
 .comment       0x0000000000000000       0x2b /home/vadim/projects/ipaugenblick/dpdk-1.6.0r2/x86_64-default-linuxapp-gcc/lib/librte_power.a(rte_power.o)
 .comment       0x0000000000000000       0x2b /home/vadim/projects/ipaugenblick/dpdk-1.6.0r2/x86_64-default-linuxapp-gcc/lib/librte_meter.a(rte_meter.o)
 .comment       0x0000000000000000       0x2b /home/vadim/projects/ipaugenblick/dpdk-1.6.0r2/x86_64-default-linuxapp-gcc/lib/librte_sched.a(rte_sched.o)
 .comment       0x0000000000000000       0x2b /home/vadim/projects/ipaugenblick/dpdk-1.6.0r2/x86_64-default-linuxapp-gcc/lib/librte_sched.a(rte_red.o)
 .comment       0x0000000000000000       0x2b /home/vadim/projects/ipaugenblick/dpdk-1.6.0r2/x86_64-default-linuxapp-gcc/lib/librte_sched.a(rte_approx.o)
 .comment       0x0000000000000000       0x2b /home/vadim/projects/ipaugenblick/dpdk-1.6.0r2/x86_64-default-linuxapp-gcc/lib/librte_kvargs.a(rte_kvargs.o)
 .comment       0x0000000000000000       0x2b /home/vadim/projects/ipaugenblick/dpdk-1.6.0r2/x86_64-default-linuxapp-gcc/lib/librte_mbuf.a(rte_mbuf.o)
 .comment       0x0000000000000000       0x2b /home/vadim/projects/ipaugenblick/dpdk-1.6.0r2/x86_64-default-linuxapp-gcc/lib/libethdev.a(rte_ethdev.o)
 .comment       0x0000000000000000       0x2b /home/vadim/projects/ipaugenblick/dpdk-1.6.0r2/x86_64-default-linuxapp-gcc/lib/librte_pmd_ring.a(rte_eth_ring.o)
 .comment       0x0000000000000000       0x2b /home/vadim/projects/ipaugenblick/dpdk-1.6.0r2/x86_64-default-linuxapp-gcc/lib/librte_malloc.a(rte_malloc.o)
 .comment       0x0000000000000000       0x2b /home/vadim/projects/ipaugenblick/dpdk-1.6.0r2/x86_64-default-linuxapp-gcc/lib/librte_malloc.a(malloc_elem.o)
 .comment       0x0000000000000000       0x2b /home/vadim/projects/ipaugenblick/dpdk-1.6.0r2/x86_64-default-linuxapp-gcc/lib/librte_malloc.a(malloc_heap.o)
 .comment       0x0000000000000000       0x2b /home/vadim/projects/ipaugenblick/dpdk-1.6.0r2/x86_64-default-linuxapp-gcc/lib/librte_mempool.a(rte_mempool.o)
 .comment       0x0000000000000000       0x2b /home/vadim/projects/ipaugenblick/dpdk-1.6.0r2/x86_64-default-linuxapp-gcc/lib/librte_ring.a(rte_ring.o)
 .comment       0x0000000000000000       0x2b /home/vadim/projects/ipaugenblick/dpdk-1.6.0r2/x86_64-default-linuxapp-gcc/lib/librte_eal.a(eal.o)
 .comment       0x0000000000000000       0x2b /home/vadim/projects/ipaugenblick/dpdk-1.6.0r2/x86_64-default-linuxapp-gcc/lib/librte_eal.a(eal_hugepage_info.o)
 .comment       0x0000000000000000       0x2b /home/vadim/projects/ipaugenblick/dpdk-1.6.0r2/x86_64-default-linuxapp-gcc/lib/librte_eal.a(eal_memory.o)
 .comment       0x0000000000000000       0x2b /home/vadim/projects/ipaugenblick/dpdk-1.6.0r2/x86_64-default-linuxapp-gcc/lib/librte_eal.a(eal_thread.o)
 .comment       0x0000000000000000       0x2b /home/vadim/projects/ipaugenblick/dpdk-1.6.0r2/x86_64-default-linuxapp-gcc/lib/librte_eal.a(eal_log.o)
 .comment       0x0000000000000000       0x2b /home/vadim/projects/ipaugenblick/dpdk-1.6.0r2/x86_64-default-linuxapp-gcc/lib/librte_eal.a(eal_pci.o)
 .comment       0x0000000000000000       0x2b /home/vadim/projects/ipaugenblick/dpdk-1.6.0r2/x86_64-default-linuxapp-gcc/lib/librte_eal.a(eal_debug.o)
 .comment       0x0000000000000000       0x2b /home/vadim/projects/ipaugenblick/dpdk-1.6.0r2/x86_64-default-linuxapp-gcc/lib/librte_eal.a(eal_lcore.o)
 .comment       0x0000000000000000       0x2b /home/vadim/projects/ipaugenblick/dpdk-1.6.0r2/x86_64-default-linuxapp-gcc/lib/librte_eal.a(eal_timer.o)
 .comment       0x0000000000000000       0x2b /home/vadim/projects/ipaugenblick/dpdk-1.6.0r2/x86_64-default-linuxapp-gcc/lib/librte_eal.a(eal_interrupts.o)
 .comment       0x0000000000000000       0x2b /home/vadim/projects/ipaugenblick/dpdk-1.6.0r2/x86_64-default-linuxapp-gcc/lib/librte_eal.a(eal_alarm.o)
 .comment       0x0000000000000000       0x2b /home/vadim/projects/ipaugenblick/dpdk-1.6.0r2/x86_64-default-linuxapp-gcc/lib/librte_eal.a(eal_common_memzone.o)
 .comment       0x0000000000000000       0x2b /home/vadim/projects/ipaugenblick/dpdk-1.6.0r2/x86_64-default-linuxapp-gcc/lib/librte_eal.a(eal_common_log.o)
 .comment       0x0000000000000000       0x2b /home/vadim/projects/ipaugenblick/dpdk-1.6.0r2/x86_64-default-linuxapp-gcc/lib/librte_eal.a(eal_common_launch.o)
 .comment       0x0000000000000000       0x2b /home/vadim/projects/ipaugenblick/dpdk-1.6.0r2/x86_64-default-linuxapp-gcc/lib/librte_eal.a(eal_common_pci.o)
 .comment       0x0000000000000000       0x2b /home/vadim/projects/ipaugenblick/dpdk-1.6.0r2/x86_64-default-linuxapp-gcc/lib/librte_eal.a(eal_common_memory.o)
 .comment       0x0000000000000000       0x2b /home/vadim/projects/ipaugenblick/dpdk-1.6.0r2/x86_64-default-linuxapp-gcc/lib/librte_eal.a(eal_common_tailqs.o)
 .comment       0x0000000000000000       0x2b /home/vadim/projects/ipaugenblick/dpdk-1.6.0r2/x86_64-default-linuxapp-gcc/lib/librte_eal.a(eal_common_errno.o)
 .comment       0x0000000000000000       0x2b /home/vadim/projects/ipaugenblick/dpdk-1.6.0r2/x86_64-default-linuxapp-gcc/lib/librte_eal.a(eal_common_cpuflags.o)
 .comment       0x0000000000000000       0x2b /home/vadim/projects/ipaugenblick/dpdk-1.6.0r2/x86_64-default-linuxapp-gcc/lib/librte_eal.a(eal_common_hexdump.o)
 .comment       0x0000000000000000       0x2b /home/vadim/projects/ipaugenblick/dpdk-1.6.0r2/x86_64-default-linuxapp-gcc/lib/librte_eal.a(eal_common_devargs.o)
 .comment       0x0000000000000000       0x2b /home/vadim/projects/ipaugenblick/dpdk-1.6.0r2/x86_64-default-linuxapp-gcc/lib/librte_eal.a(eal_common_vdev.o)
 .comment       0x0000000000000000       0x2b /home/vadim/projects/ipaugenblick/dpdk-1.6.0r2/x86_64-default-linuxapp-gcc/lib/librte_cmdline.a(cmdline.o)
 .comment       0x0000000000000000       0x2b /home/vadim/projects/ipaugenblick/dpdk-1.6.0r2/x86_64-default-linuxapp-gcc/lib/librte_cmdline.a(cmdline_cirbuf.o)
 .comment       0x0000000000000000       0x2b /home/vadim/projects/ipaugenblick/dpdk-1.6.0r2/x86_64-default-linuxapp-gcc/lib/librte_cmdline.a(cmdline_parse.o)
 .comment       0x0000000000000000       0x2b /home/vadim/projects/ipaugenblick/dpdk-1.6.0r2/x86_64-default-linuxapp-gcc/lib/librte_cmdline.a(cmdline_parse_etheraddr.o)
 .comment       0x0000000000000000       0x2b /home/vadim/projects/ipaugenblick/dpdk-1.6.0r2/x86_64-default-linuxapp-gcc/lib/librte_cmdline.a(cmdline_parse_ipaddr.o)
 .comment       0x0000000000000000       0x2b /home/vadim/projects/ipaugenblick/dpdk-1.6.0r2/x86_64-default-linuxapp-gcc/lib/librte_cmdline.a(cmdline_parse_num.o)
 .comment       0x0000000000000000       0x2b /home/vadim/projects/ipaugenblick/dpdk-1.6.0r2/x86_64-default-linuxapp-gcc/lib/librte_cmdline.a(cmdline_parse_string.o)
 .comment       0x0000000000000000       0x2b /home/vadim/projects/ipaugenblick/dpdk-1.6.0r2/x86_64-default-linuxapp-gcc/lib/librte_cmdline.a(cmdline_rdline.o)
 .comment       0x0000000000000000       0x2b /home/vadim/projects/ipaugenblick/dpdk-1.6.0r2/x86_64-default-linuxapp-gcc/lib/librte_cmdline.a(cmdline_vt100.o)
 .comment       0x0000000000000000       0x2b /home/vadim/projects/ipaugenblick/dpdk-1.6.0r2/x86_64-default-linuxapp-gcc/lib/librte_cmdline.a(cmdline_socket.o)
 .comment       0x0000000000000000       0x2b /home/vadim/projects/ipaugenblick/dpdk-1.6.0r2/x86_64-default-linuxapp-gcc/lib/librte_cmdline.a(cmdline_parse_portlist.o)
 .comment       0x0000000000000000       0x2b /usr/lib/x86_64-linux-gnu/libc_nonshared.a(elf-init.oS)
 .comment       0x0000000000000000       0x2b /usr/lib/gcc/x86_64-linux-gnu/4.6/crtend.o

.debug
 *(.debug)

.line
 *(.line)

.debug_srcinfo
 *(.debug_srcinfo)

.debug_sfnames
 *(.debug_sfnames)

.debug_aranges
 *(.debug_aranges)

.debug_pubnames
 *(.debug_pubnames)

.debug_info
 *(.debug_info .gnu.linkonce.wi.*)

.debug_abbrev
 *(.debug_abbrev)

.debug_line
 *(.debug_line)

.debug_frame
 *(.debug_frame)

.debug_str
 *(.debug_str)

.debug_loc
 *(.debug_loc)

.debug_macinfo
 *(.debug_macinfo)

.debug_weaknames
 *(.debug_weaknames)

.debug_funcnames
 *(.debug_funcnames)

.debug_typenames
 *(.debug_typenames)

.debug_varnames
 *(.debug_varnames)

.debug_pubtypes
 *(.debug_pubtypes)

.debug_ranges
 *(.debug_ranges)

.gnu.attributes
 *(.gnu.attributes)

/DISCARD/
 *(.note.GNU-stack)
 *(.gnu_debuglink)
 *(.gnu.lto_*)
OUTPUT(testpmd elf64-x86-64)

Cross Reference Table

Symbol                                            File
GLIBC_2.10                                        /lib/x86_64-linux-gnu/libc.so.6
GLIBC_2.11                                        /lib/x86_64-linux-gnu/libpthread.so.0
                                                  /lib/x86_64-linux-gnu/libc.so.6
GLIBC_2.12                                        /lib/x86_64-linux-gnu/libpthread.so.0
                                                  /lib/x86_64-linux-gnu/libc.so.6
GLIBC_2.13                                        /lib/x86_64-linux-gnu/libc.so.6
GLIBC_2.14                                        /lib/x86_64-linux-gnu/libc.so.6
GLIBC_2.15                                        /lib/x86_64-linux-gnu/libc.so.6
GLIBC_2.2.5                                       /usr/lib/gcc/x86_64-linux-gnu/4.6/../../../x86_64-linux-gnu/librt.so
                                                  /lib/x86_64-linux-gnu/ld-linux-x86-64.so.2
                                                  /lib/x86_64-linux-gnu/libc.so.6
                                                  /lib/x86_64-linux-gnu/libpthread.so.0
                                                  /usr/lib/gcc/x86_64-linux-gnu/4.6/../../../x86_64-linux-gnu/libdl.so
GLIBC_2.2.6                                       /lib/x86_64-linux-gnu/libpthread.so.0
                                                  /lib/x86_64-linux-gnu/libc.so.6
GLIBC_2.3                                         /lib/x86_64-linux-gnu/libc.so.6
                                                  /lib/x86_64-linux-gnu/ld-linux-x86-64.so.2
GLIBC_2.3.2                                       /lib/x86_64-linux-gnu/libpthread.so.0
                                                  /lib/x86_64-linux-gnu/libc.so.6
GLIBC_2.3.3                                       /usr/lib/gcc/x86_64-linux-gnu/4.6/../../../x86_64-linux-gnu/librt.so
                                                  /lib/x86_64-linux-gnu/libc.so.6
                                                  /lib/x86_64-linux-gnu/libpthread.so.0
                                                  /usr/lib/gcc/x86_64-linux-gnu/4.6/../../../x86_64-linux-gnu/libdl.so
GLIBC_2.3.4                                       /usr/lib/gcc/x86_64-linux-gnu/4.6/../../../x86_64-linux-gnu/librt.so
                                                  /lib/x86_64-linux-gnu/libc.so.6
                                                  /lib/x86_64-linux-gnu/libpthread.so.0
                                                  /usr/lib/gcc/x86_64-linux-gnu/4.6/../../../x86_64-linux-gnu/libdl.so
GLIBC_2.4                                         /usr/lib/gcc/x86_64-linux-gnu/4.6/../../../x86_64-linux-gnu/librt.so
                                                  /lib/x86_64-linux-gnu/ld-linux-x86-64.so.2
                                                  /lib/x86_64-linux-gnu/libc.so.6
                                                  /lib/x86_64-linux-gnu/libpthread.so.0
GLIBC_2.5                                         /lib/x86_64-linux-gnu/libc.so.6
GLIBC_2.6                                         /lib/x86_64-linux-gnu/libc.so.6
GLIBC_2.7                                         /usr/lib/gcc/x86_64-linux-gnu/4.6/../../../x86_64-linux-gnu/librt.so
                                                  /lib/x86_64-linux-gnu/libc.so.6
GLIBC_2.8                                         /lib/x86_64-linux-gnu/libc.so.6
GLIBC_2.9                                         /lib/x86_64-linux-gnu/libc.so.6
GLIBC_PRIVATE                                     /usr/lib/gcc/x86_64-linux-gnu/4.6/../../../x86_64-linux-gnu/libdl.so
                                                  /lib/x86_64-linux-gnu/ld-linux-x86-64.so.2
                                                  /lib/x86_64-linux-gnu/libc.so.6
                                                  /lib/x86_64-linux-gnu/libpthread.so.0
_DYNAMIC                                          /usr/lib/gcc/x86_64-linux-gnu/4.6/../../../x86_64-linux-gnu/crt1.o
_Exit                                             /lib/x86_64-linux-gnu/libc.so.6
_Exit@@GLIBC_2.2.5                                /lib/x86_64-linux-gnu/libc.so.6
_Exit@GLIBC_2.2.5                                 /lib/x86_64-linux-gnu/libc.so.6
_GLOBAL_OFFSET_TABLE_                             /usr/lib/gcc/x86_64-linux-gnu/4.6/../../../x86_64-linux-gnu/crt1.o
                                                  /usr/lib/x86_64-linux-gnu/libc_nonshared.a(elf-init.oS)
                                                  /home/vadim/projects/ipaugenblick/dpdk-1.6.0r2/x86_64-default-linuxapp-gcc/lib/librte_eal.a(eal_common_errno.o)
                                                  /home/vadim/projects/ipaugenblick/dpdk-1.6.0r2/x86_64-default-linuxapp-gcc/lib/librte_eal.a(eal_common_log.o)
                                                  /home/vadim/projects/ipaugenblick/dpdk-1.6.0r2/x86_64-default-linuxapp-gcc/lib/librte_eal.a(eal_common_memzone.o)
                                                  /home/vadim/projects/ipaugenblick/dpdk-1.6.0r2/x86_64-default-linuxapp-gcc/lib/librte_eal.a(eal_alarm.o)
                                                  /home/vadim/projects/ipaugenblick/dpdk-1.6.0r2/x86_64-default-linuxapp-gcc/lib/librte_eal.a(eal_thread.o)
                                                  /home/vadim/projects/ipaugenblick/dpdk-1.6.0r2/x86_64-default-linuxapp-gcc/lib/librte_ring.a(rte_ring.o)
                                                  /home/vadim/projects/ipaugenblick/dpdk-1.6.0r2/x86_64-default-linuxapp-gcc/lib/librte_mempool.a(rte_mempool.o)
                                                  /home/vadim/projects/ipaugenblick/dpdk-1.6.0r2/x86_64-default-linuxapp-gcc/lib/librte_malloc.a(rte_malloc.o)
                                                  /home/vadim/projects/ipaugenblick/dpdk-1.6.0r2/x86_64-default-linuxapp-gcc/lib/librte_pmd_ring.a(rte_eth_ring.o)
                                                  /home/vadim/projects/ipaugenblick/dpdk-1.6.0r2/x86_64-default-linuxapp-gcc/lib/libethdev.a(rte_ethdev.o)
                                                  /home/vadim/projects/ipaugenblick/dpdk-1.6.0r2/x86_64-default-linuxapp-gcc/lib/librte_sched.a(rte_sched.o)
                                                  /home/vadim/projects/ipaugenblick/dpdk-1.6.0r2/x86_64-default-linuxapp-gcc/lib/librte_lpm.a(rte_lpm6.o)
                                                  /home/vadim/projects/ipaugenblick/dpdk-1.6.0r2/x86_64-default-linuxapp-gcc/lib/librte_lpm.a(rte_lpm.o)
                                                  /home/vadim/projects/ipaugenblick/dpdk-1.6.0r2/x86_64-default-linuxapp-gcc/lib/librte_hash.a(rte_fbk_hash.o)
                                                  /home/vadim/projects/ipaugenblick/dpdk-1.6.0r2/x86_64-default-linuxapp-gcc/lib/librte_hash.a(rte_hash.o)
                                                  /home/vadim/projects/ipaugenblick/dpdk-1.6.0r2/x86_64-default-linuxapp-gcc/lib/librte_timer.a(rte_timer.o)
                                                  /home/vadim/projects/ipaugenblick/dpdk-1.6.0r2/x86_64-default-linuxapp-gcc/lib/librte_pmd_vmxnet3_uio.a(vmxnet3_ethdev.o)
                                                  /home/vadim/projects/ipaugenblick/dpdk-1.6.0r2/x86_64-default-linuxapp-gcc/lib/librte_pmd_vmxnet3_uio.a(vmxnet3_rxtx.o)
                                                  /home/vadim/projects/ipaugenblick/dpdk-1.6.0r2/x86_64-default-linuxapp-gcc/lib/librte_pmd_virtio_uio.a(virtio_ethdev.o)
                                                  /home/vadim/projects/ipaugenblick/dpdk-1.6.0r2/x86_64-default-linuxapp-gcc/lib/librte_pmd_virtio_uio.a(virtio_rxtx.o)
                                                  /home/vadim/projects/ipaugenblick/dpdk-1.6.0r2/x86_64-default-linuxapp-gcc/lib/librte_pmd_ixgbe.a(ixgbe_rxtx.o)
                                                  /home/vadim/projects/ipaugenblick/dpdk-1.6.0r2/x86_64-default-linuxapp-gcc/lib/librte_pmd_e1000.a(em_rxtx.o)
                                                  /home/vadim/projects/ipaugenblick/dpdk-1.6.0r2/x86_64-default-linuxapp-gcc/lib/librte_pmd_e1000.a(igb_rxtx.o)
                                                  /home/vadim/projects/ipaugenblick/dpdk-1.6.0r2/x86_64-default-linuxapp-gcc/lib/librte_kni.a(rte_kni.o)
                                                  mempool_anon.o
                                                  csumonly.o
                                                  txonly.o
                                                  rxonly.o
                                                  macfwd-retry.o
                                                  macfwd.o
                                                  iofwd.o
                                                  testpmd.o
                                                  /usr/lib/gcc/x86_64-linux-gnu/4.6/../../../x86_64-linux-gnu/crti.o
_IO_fprintf                                       /lib/x86_64-linux-gnu/libc.so.6
_IO_fprintf@@GLIBC_2.2.5                          /lib/x86_64-linux-gnu/libc.so.6
_IO_fprintf@GLIBC_2.2.5                           /lib/x86_64-linux-gnu/libc.so.6
_IO_stdin_used                                    /usr/lib/gcc/x86_64-linux-gnu/4.6/../../../x86_64-linux-gnu/crt1.o
_Jv_RegisterClasses                               /lib/x86_64-linux-gnu/libpthread.so.0
                                                  /usr/lib/gcc/x86_64-linux-gnu/4.6/../../../x86_64-linux-gnu/libdl.so
                                                  /usr/lib/gcc/x86_64-linux-gnu/4.6/../../../x86_64-linux-gnu/librt.so
                                                  /usr/lib/gcc/x86_64-linux-gnu/4.6/crtbegin.o
__DTOR_END__                                      /usr/lib/gcc/x86_64-linux-gnu/4.6/crtend.o
                                                  /usr/lib/gcc/x86_64-linux-gnu/4.6/crtbegin.o
__after_morecore_hook                             /lib/x86_64-linux-gnu/libc.so.6
__after_morecore_hook@@GLIBC_2.2.5                /lib/x86_64-linux-gnu/libc.so.6
__after_morecore_hook@GLIBC_2.2.5                 /lib/x86_64-linux-gnu/libc.so.6
__close                                           /lib/x86_64-linux-gnu/libpthread.so.0
__close@@GLIBC_2.2.5                              /lib/x86_64-linux-gnu/libpthread.so.0
                                                  /lib/x86_64-linux-gnu/libc.so.6
__close@GLIBC_2.2.5                               /lib/x86_64-linux-gnu/libpthread.so.0
__connect                                         /lib/x86_64-linux-gnu/libpthread.so.0
__connect@@GLIBC_2.2.5                            /lib/x86_64-linux-gnu/libpthread.so.0
                                                  /lib/x86_64-linux-gnu/libc.so.6
__connect@GLIBC_2.2.5                             /lib/x86_64-linux-gnu/libpthread.so.0
__ctype_b_loc                                     /lib/x86_64-linux-gnu/libc.so.6
                                                  /home/vadim/projects/ipaugenblick/dpdk-1.6.0r2/x86_64-default-linuxapp-gcc/lib/librte_cmdline.a(cmdline_rdline.o)
                                                  /home/vadim/projects/ipaugenblick/dpdk-1.6.0r2/x86_64-default-linuxapp-gcc/lib/librte_eal.a(eal_hugepage_info.o)
                                                  /home/vadim/projects/ipaugenblick/dpdk-1.6.0r2/x86_64-default-linuxapp-gcc/lib/librte_eal.a(eal.o)
                                                  /home/vadim/projects/ipaugenblick/dpdk-1.6.0r2/x86_64-default-linuxapp-gcc/lib/librte_malloc.a(malloc_heap.o)
__ctype_b_loc@@GLIBC_2.3                          /lib/x86_64-linux-gnu/libc.so.6
__ctype_b_loc@GLIBC_2.3                           /lib/x86_64-linux-gnu/libc.so.6
__ctype_get_mb_cur_max                            /lib/x86_64-linux-gnu/libc.so.6
__ctype_get_mb_cur_max@@GLIBC_2.2.5               /lib/x86_64-linux-gnu/libc.so.6
__ctype_get_mb_cur_max@GLIBC_2.2.5                /lib/x86_64-linux-gnu/libc.so.6
__data_start                                      /usr/lib/gcc/x86_64-linux-gnu/4.6/../../../x86_64-linux-gnu/crt1.o
__dso_handle                                      /usr/lib/gcc/x86_64-linux-gnu/4.6/crtbegin.o
__errno_location                                  /lib/x86_64-linux-gnu/libpthread.so.0
                                                  /home/vadim/projects/ipaugenblick/dpdk-1.6.0r2/x86_64-default-linuxapp-gcc/lib/librte_cmdline.a(cmdline_parse_portlist.o)
                                                  /home/vadim/projects/ipaugenblick/dpdk-1.6.0r2/x86_64-default-linuxapp-gcc/lib/librte_cmdline.a(cmdline_parse_string.o)
                                                  /home/vadim/projects/ipaugenblick/dpdk-1.6.0r2/x86_64-default-linuxapp-gcc/lib/librte_cmdline.a(cmdline_parse_num.o)
                                                  /home/vadim/projects/ipaugenblick/dpdk-1.6.0r2/x86_64-default-linuxapp-gcc/lib/librte_cmdline.a(cmdline_parse_ipaddr.o)
                                                  /home/vadim/projects/ipaugenblick/dpdk-1.6.0r2/x86_64-default-linuxapp-gcc/lib/librte_cmdline.a(cmdline_parse_etheraddr.o)
                                                  /home/vadim/projects/ipaugenblick/dpdk-1.6.0r2/x86_64-default-linuxapp-gcc/lib/librte_cmdline.a(cmdline_parse.o)
                                                  /home/vadim/projects/ipaugenblick/dpdk-1.6.0r2/x86_64-default-linuxapp-gcc/lib/librte_cmdline.a(cmdline.o)
                                                  /home/vadim/projects/ipaugenblick/dpdk-1.6.0r2/x86_64-default-linuxapp-gcc/lib/librte_eal.a(eal_common_devargs.o)
                                                  /home/vadim/projects/ipaugenblick/dpdk-1.6.0r2/x86_64-default-linuxapp-gcc/lib/librte_eal.a(eal_common_hexdump.o)
                                                  /home/vadim/projects/ipaugenblick/dpdk-1.6.0r2/x86_64-default-linuxapp-gcc/lib/librte_eal.a(eal_common_errno.o)
                                                  /home/vadim/projects/ipaugenblick/dpdk-1.6.0r2/x86_64-default-linuxapp-gcc/lib/librte_eal.a(eal_common_memzone.o)
                                                  /home/vadim/projects/ipaugenblick/dpdk-1.6.0r2/x86_64-default-linuxapp-gcc/lib/librte_eal.a(eal_alarm.o)
                                                  /home/vadim/projects/ipaugenblick/dpdk-1.6.0r2/x86_64-default-linuxapp-gcc/lib/librte_eal.a(eal_interrupts.o)
                                                  /home/vadim/projects/ipaugenblick/dpdk-1.6.0r2/x86_64-default-linuxapp-gcc/lib/librte_eal.a(eal_lcore.o)
                                                  /home/vadim/projects/ipaugenblick/dpdk-1.6.0r2/x86_64-default-linuxapp-gcc/lib/librte_eal.a(eal_pci.o)
                                                  /home/vadim/projects/ipaugenblick/dpdk-1.6.0r2/x86_64-default-linuxapp-gcc/lib/librte_eal.a(eal_thread.o)
                                                  /home/vadim/projects/ipaugenblick/dpdk-1.6.0r2/x86_64-default-linuxapp-gcc/lib/librte_eal.a(eal_memory.o)
                                                  /home/vadim/projects/ipaugenblick/dpdk-1.6.0r2/x86_64-default-linuxapp-gcc/lib/librte_eal.a(eal_hugepage_info.o)
                                                  /home/vadim/projects/ipaugenblick/dpdk-1.6.0r2/x86_64-default-linuxapp-gcc/lib/librte_eal.a(eal.o)
                                                  /home/vadim/projects/ipaugenblick/dpdk-1.6.0r2/x86_64-default-linuxapp-gcc/lib/librte_ring.a(rte_ring.o)
                                                  /home/vadim/projects/ipaugenblick/dpdk-1.6.0r2/x86_64-default-linuxapp-gcc/lib/librte_mempool.a(rte_mempool.o)
                                                  /home/vadim/projects/ipaugenblick/dpdk-1.6.0r2/x86_64-default-linuxapp-gcc/lib/librte_malloc.a(malloc_heap.o)
                                                  /home/vadim/projects/ipaugenblick/dpdk-1.6.0r2/x86_64-default-linuxapp-gcc/lib/librte_pmd_ring.a(rte_eth_ring.o)
                                                  /home/vadim/projects/ipaugenblick/dpdk-1.6.0r2/x86_64-default-linuxapp-gcc/lib/librte_power.a(rte_power.o)
                                                  /home/vadim/projects/ipaugenblick/dpdk-1.6.0r2/x86_64-default-linuxapp-gcc/lib/librte_lpm.a(rte_lpm6.o)
                                                  /home/vadim/projects/ipaugenblick/dpdk-1.6.0r2/x86_64-default-linuxapp-gcc/lib/librte_lpm.a(rte_lpm.o)
                                                  /home/vadim/projects/ipaugenblick/dpdk-1.6.0r2/x86_64-default-linuxapp-gcc/lib/librte_hash.a(rte_fbk_hash.o)
                                                  /home/vadim/projects/ipaugenblick/dpdk-1.6.0r2/x86_64-default-linuxapp-gcc/lib/librte_hash.a(rte_hash.o)
                                                  /home/vadim/projects/ipaugenblick/dpdk-1.6.0r2/x86_64-default-linuxapp-gcc/lib/librte_pmd_vmxnet3_uio.a(vmxnet3_ethdev.o)
                                                  /home/vadim/projects/ipaugenblick/dpdk-1.6.0r2/x86_64-default-linuxapp-gcc/lib/librte_pmd_vmxnet3_uio.a(vmxnet3_rxtx.o)
                                                  /home/vadim/projects/ipaugenblick/dpdk-1.6.0r2/x86_64-default-linuxapp-gcc/lib/librte_pmd_virtio_uio.a(virtio_ethdev.o)
                                                  /home/vadim/projects/ipaugenblick/dpdk-1.6.0r2/x86_64-default-linuxapp-gcc/lib/librte_pmd_virtio_uio.a(virtio_rxtx.o)
                                                  /home/vadim/projects/ipaugenblick/dpdk-1.6.0r2/x86_64-default-linuxapp-gcc/lib/librte_pmd_ixgbe.a(ixgbe_rxtx.o)
                                                  /home/vadim/projects/ipaugenblick/dpdk-1.6.0r2/x86_64-default-linuxapp-gcc/lib/librte_pmd_e1000.a(em_rxtx.o)
                                                  /home/vadim/projects/ipaugenblick/dpdk-1.6.0r2/x86_64-default-linuxapp-gcc/lib/librte_pmd_e1000.a(igb_rxtx.o)
                                                  /home/vadim/projects/ipaugenblick/dpdk-1.6.0r2/x86_64-default-linuxapp-gcc/lib/librte_kni.a(rte_kni.o)
                                                  mempool_anon.o
                                                  config.o
                                                  cmdline.o
                                                  parameters.o
                                                  testpmd.o
__errno_location@@GLIBC_2.2.5                     /lib/x86_64-linux-gnu/libpthread.so.0
                                                  /lib/x86_64-linux-gnu/libc.so.6
__errno_location@GLIBC_2.2.5                      /lib/x86_64-linux-gnu/libpthread.so.0
__fcntl                                           /lib/x86_64-linux-gnu/libpthread.so.0
__fcntl@@GLIBC_2.2.5                              /lib/x86_64-linux-gnu/libpthread.so.0
                                                  /lib/x86_64-linux-gnu/libc.so.6
__fcntl@GLIBC_2.2.5                               /lib/x86_64-linux-gnu/libpthread.so.0
__fprintf_chk                                     /lib/x86_64-linux-gnu/libc.so.6
                                                  /home/vadim/projects/ipaugenblick/dpdk-1.6.0r2/x86_64-default-linuxapp-gcc/lib/librte_eal.a(eal_common_cpuflags.o)
                                                  /home/vadim/projects/ipaugenblick/dpdk-1.6.0r2/x86_64-default-linuxapp-gcc/lib/librte_power.a(rte_power.o)
__fprintf_chk@@GLIBC_2.3.4                        /lib/x86_64-linux-gnu/libc.so.6
__fprintf_chk@GLIBC_2.3.4                         /lib/x86_64-linux-gnu/libc.so.6
__free_hook                                       /lib/x86_64-linux-gnu/libc.so.6
__free_hook@@GLIBC_2.2.5                          /lib/x86_64-linux-gnu/libc.so.6
__free_hook@GLIBC_2.2.5                           /lib/x86_64-linux-gnu/libc.so.6
__fxstat64                                        /lib/x86_64-linux-gnu/libc.so.6
                                                  /home/vadim/projects/ipaugenblick/dpdk-1.6.0r2/x86_64-default-linuxapp-gcc/lib/librte_eal.a(eal_memory.o)
__fxstat64@@GLIBC_2.2.5                           /lib/x86_64-linux-gnu/libc.so.6
__fxstat64@GLIBC_2.2.5                            /lib/x86_64-linux-gnu/libc.so.6
                                                  /lib/x86_64-linux-gnu/libpthread.so.0
__getdelim                                        /lib/x86_64-linux-gnu/libc.so.6
__getdelim@@GLIBC_2.2.5                           /lib/x86_64-linux-gnu/libc.so.6
__getdelim@GLIBC_2.2.5                            /lib/x86_64-linux-gnu/libc.so.6
                                                  /lib/x86_64-linux-gnu/libpthread.so.0
__gmon_start__                                    /usr/lib/gcc/x86_64-linux-gnu/4.6/../../../x86_64-linux-gnu/libdl.so
                                                  /usr/lib/gcc/x86_64-linux-gnu/4.6/../../../x86_64-linux-gnu/librt.so
                                                  /usr/lib/gcc/x86_64-linux-gnu/4.6/../../../x86_64-linux-gnu/crti.o
__init_array_end                                  /usr/lib/x86_64-linux-gnu/libc_nonshared.a(elf-init.oS)
__init_array_start                                /usr/lib/x86_64-linux-gnu/libc_nonshared.a(elf-init.oS)
__isascii_l                                       /lib/x86_64-linux-gnu/libc.so.6
__isascii_l@@GLIBC_2.2.5                          /lib/x86_64-linux-gnu/libc.so.6
__isascii_l@GLIBC_2.2.5                           /lib/x86_64-linux-gnu/libc.so.6
__libc_csu_fini                                   /usr/lib/x86_64-linux-gnu/libc_nonshared.a(elf-init.oS)
                                                  /usr/lib/gcc/x86_64-linux-gnu/4.6/../../../x86_64-linux-gnu/crt1.o
__libc_csu_init                                   /usr/lib/x86_64-linux-gnu/libc_nonshared.a(elf-init.oS)
                                                  /usr/lib/gcc/x86_64-linux-gnu/4.6/../../../x86_64-linux-gnu/crt1.o
__libc_start_main                                 /lib/x86_64-linux-gnu/libc.so.6
                                                  /usr/lib/gcc/x86_64-linux-gnu/4.6/../../../x86_64-linux-gnu/crt1.o
__libc_start_main@@GLIBC_2.2.5                    /lib/x86_64-linux-gnu/libc.so.6
__libc_start_main@GLIBC_2.2.5                     /lib/x86_64-linux-gnu/libc.so.6
__lseek                                           /lib/x86_64-linux-gnu/libpthread.so.0
__lseek@@GLIBC_2.2.5                              /lib/x86_64-linux-gnu/libpthread.so.0
                                                  /lib/x86_64-linux-gnu/libc.so.6
__lseek@GLIBC_2.2.5                               /lib/x86_64-linux-gnu/libpthread.so.0
__malloc_hook                                     /lib/x86_64-linux-gnu/libc.so.6
__malloc_hook@@GLIBC_2.2.5                        /lib/x86_64-linux-gnu/libc.so.6
__malloc_hook@GLIBC_2.2.5                         /lib/x86_64-linux-gnu/libc.so.6
__malloc_initialize_hook                          /lib/x86_64-linux-gnu/libc.so.6
__malloc_initialize_hook@@GLIBC_2.2.5             /lib/x86_64-linux-gnu/libc.so.6
__malloc_initialize_hook@GLIBC_2.2.5              /lib/x86_64-linux-gnu/libc.so.6
__memalign_hook                                   /lib/x86_64-linux-gnu/libc.so.6
__memalign_hook@@GLIBC_2.2.5                      /lib/x86_64-linux-gnu/libc.so.6
__memalign_hook@GLIBC_2.2.5                       /lib/x86_64-linux-gnu/libc.so.6
__memcpy_chk                                      /lib/x86_64-linux-gnu/libc.so.6
                                                  /home/vadim/projects/ipaugenblick/dpdk-1.6.0r2/x86_64-default-linuxapp-gcc/lib/librte_eal.a(eal_log.o)
__memcpy_chk@@GLIBC_2.3.4                         /lib/x86_64-linux-gnu/libc.so.6
__memcpy_chk@GLIBC_2.3.4                          /lib/x86_64-linux-gnu/libc.so.6
__nanosleep                                       /lib/x86_64-linux-gnu/libpthread.so.0
__nanosleep@@GLIBC_2.2.6                          /lib/x86_64-linux-gnu/libpthread.so.0
                                                  /lib/x86_64-linux-gnu/libc.so.6
__nanosleep@GLIBC_2.2.6                           /lib/x86_64-linux-gnu/libpthread.so.0
__open                                            /lib/x86_64-linux-gnu/libpthread.so.0
__open64                                          /lib/x86_64-linux-gnu/libpthread.so.0
__open64@@GLIBC_2.2.5                             /lib/x86_64-linux-gnu/libpthread.so.0
                                                  /lib/x86_64-linux-gnu/libc.so.6
__open64@GLIBC_2.2.5                              /lib/x86_64-linux-gnu/libpthread.so.0
__open@@GLIBC_2.2.5                               /lib/x86_64-linux-gnu/libpthread.so.0
                                                  /lib/x86_64-linux-gnu/libc.so.6
__open@GLIBC_2.2.5                                /lib/x86_64-linux-gnu/libpthread.so.0
__openat64_2                                      /lib/x86_64-linux-gnu/libc.so.6
__openat64_2@@GLIBC_2.7                           /lib/x86_64-linux-gnu/libc.so.6
__openat64_2@GLIBC_2.7                            /lib/x86_64-linux-gnu/libc.so.6
__pread64                                         /lib/x86_64-linux-gnu/libpthread.so.0
__pread64@@GLIBC_2.2.5                            /lib/x86_64-linux-gnu/libpthread.so.0
                                                  /lib/x86_64-linux-gnu/libc.so.6
__pread64@GLIBC_2.2.5                             /lib/x86_64-linux-gnu/libpthread.so.0
__printf_chk                                      /lib/x86_64-linux-gnu/libc.so.6
                                                  /home/vadim/projects/ipaugenblick/dpdk-1.6.0r2/x86_64-default-linuxapp-gcc/lib/librte_eal.a(eal_common_devargs.o)
                                                  /home/vadim/projects/ipaugenblick/dpdk-1.6.0r2/x86_64-default-linuxapp-gcc/lib/librte_eal.a(eal_common_hexdump.o)
                                                  /home/vadim/projects/ipaugenblick/dpdk-1.6.0r2/x86_64-default-linuxapp-gcc/lib/librte_eal.a(eal_common_tailqs.o)
                                                  /home/vadim/projects/ipaugenblick/dpdk-1.6.0r2/x86_64-default-linuxapp-gcc/lib/librte_eal.a(eal_common_memory.o)
                                                  /home/vadim/projects/ipaugenblick/dpdk-1.6.0r2/x86_64-default-linuxapp-gcc/lib/librte_eal.a(eal_common_pci.o)
                                                  /home/vadim/projects/ipaugenblick/dpdk-1.6.0r2/x86_64-default-linuxapp-gcc/lib/librte_eal.a(eal_common_memzone.o)
                                                  /home/vadim/projects/ipaugenblick/dpdk-1.6.0r2/x86_64-default-linuxapp-gcc/lib/librte_eal.a(eal.o)
                                                  /home/vadim/projects/ipaugenblick/dpdk-1.6.0r2/x86_64-default-linuxapp-gcc/lib/librte_ring.a(rte_ring.o)
                                                  /home/vadim/projects/ipaugenblick/dpdk-1.6.0r2/x86_64-default-linuxapp-gcc/lib/librte_mempool.a(rte_mempool.o)
                                                  /home/vadim/projects/ipaugenblick/dpdk-1.6.0r2/x86_64-default-linuxapp-gcc/lib/librte_malloc.a(rte_malloc.o)
                                                  /home/vadim/projects/ipaugenblick/dpdk-1.6.0r2/x86_64-default-linuxapp-gcc/lib/librte_mbuf.a(rte_mbuf.o)
                                                  csumonly.o
                                                  txonly.o
                                                  rxonly.o
                                                  config.o
                                                  cmdline.o
                                                  parameters.o
                                                  testpmd.o
__printf_chk@@GLIBC_2.3.4                         /lib/x86_64-linux-gnu/libc.so.6
__printf_chk@GLIBC_2.3.4                          /lib/x86_64-linux-gnu/libc.so.6
__pwrite64                                        /lib/x86_64-linux-gnu/libpthread.so.0
__pwrite64@@GLIBC_2.2.5                           /lib/x86_64-linux-gnu/libpthread.so.0
                                                  /lib/x86_64-linux-gnu/libc.so.6
__pwrite64@GLIBC_2.2.5                            /lib/x86_64-linux-gnu/libpthread.so.0
__read                                            /lib/x86_64-linux-gnu/libpthread.so.0
__read@@GLIBC_2.2.5                               /lib/x86_64-linux-gnu/libpthread.so.0
                                                  /lib/x86_64-linux-gnu/libc.so.6
__read@GLIBC_2.2.5                                /lib/x86_64-linux-gnu/libpthread.so.0
__read_chk                                        /lib/x86_64-linux-gnu/libc.so.6
                                                  /home/vadim/projects/ipaugenblick/dpdk-1.6.0r2/x86_64-default-linuxapp-gcc/lib/librte_eal.a(eal_interrupts.o)
__read_chk@@GLIBC_2.4                             /lib/x86_64-linux-gnu/libc.so.6
__read_chk@GLIBC_2.4                              /lib/x86_64-linux-gnu/libc.so.6
__realloc_hook                                    /lib/x86_64-linux-gnu/libc.so.6
__realloc_hook@@GLIBC_2.2.5                       /lib/x86_64-linux-gnu/libc.so.6
__realloc_hook@GLIBC_2.2.5                        /lib/x86_64-linux-gnu/libc.so.6
__rte_cache_aligned                               /home/vadim/projects/ipaugenblick/dpdk-1.6.0r2/x86_64-default-linuxapp-gcc/lib/librte_power.a(rte_power.o)
__rte_panic                                       /home/vadim/projects/ipaugenblick/dpdk-1.6.0r2/x86_64-default-linuxapp-gcc/lib/librte_eal.a(eal_debug.o)
                                                  /home/vadim/projects/ipaugenblick/dpdk-1.6.0r2/x86_64-default-linuxapp-gcc/lib/librte_eal.a(eal_common_vdev.o)
                                                  /home/vadim/projects/ipaugenblick/dpdk-1.6.0r2/x86_64-default-linuxapp-gcc/lib/librte_eal.a(eal_interrupts.o)
                                                  /home/vadim/projects/ipaugenblick/dpdk-1.6.0r2/x86_64-default-linuxapp-gcc/lib/librte_eal.a(eal_timer.o)
                                                  /home/vadim/projects/ipaugenblick/dpdk-1.6.0r2/x86_64-default-linuxapp-gcc/lib/librte_eal.a(eal_lcore.o)
                                                  /home/vadim/projects/ipaugenblick/dpdk-1.6.0r2/x86_64-default-linuxapp-gcc/lib/librte_eal.a(eal_thread.o)
                                                  /home/vadim/projects/ipaugenblick/dpdk-1.6.0r2/x86_64-default-linuxapp-gcc/lib/librte_eal.a(eal_hugepage_info.o)
                                                  /home/vadim/projects/ipaugenblick/dpdk-1.6.0r2/x86_64-default-linuxapp-gcc/lib/librte_eal.a(eal.o)
                                                  /home/vadim/projects/ipaugenblick/dpdk-1.6.0r2/x86_64-default-linuxapp-gcc/lib/librte_mempool.a(rte_mempool.o)
                                                  /home/vadim/projects/ipaugenblick/dpdk-1.6.0r2/x86_64-default-linuxapp-gcc/lib/librte_malloc.a(malloc_elem.o)
                                                  /home/vadim/projects/ipaugenblick/dpdk-1.6.0r2/x86_64-default-linuxapp-gcc/lib/librte_malloc.a(rte_malloc.o)
                                                  /home/vadim/projects/ipaugenblick/dpdk-1.6.0r2/x86_64-default-linuxapp-gcc/lib/libethdev.a(rte_ethdev.o)
                                                  /home/vadim/projects/ipaugenblick/dpdk-1.6.0r2/x86_64-default-linuxapp-gcc/lib/librte_mbuf.a(rte_mbuf.o)
                                                  /home/vadim/projects/ipaugenblick/dpdk-1.6.0r2/x86_64-default-linuxapp-gcc/lib/librte_sched.a(rte_sched.o)
                                                  /home/vadim/projects/ipaugenblick/dpdk-1.6.0r2/x86_64-default-linuxapp-gcc/lib/librte_timer.a(rte_timer.o)
                                                  /home/vadim/projects/ipaugenblick/dpdk-1.6.0r2/x86_64-default-linuxapp-gcc/lib/librte_pmd_vmxnet3_uio.a(vmxnet3_rxtx.o)
                                                  /home/vadim/projects/ipaugenblick/dpdk-1.6.0r2/x86_64-default-linuxapp-gcc/lib/librte_pmd_ixgbe.a(ixgbe_pf.o)
                                                  /home/vadim/projects/ipaugenblick/dpdk-1.6.0r2/x86_64-default-linuxapp-gcc/lib/librte_pmd_ixgbe.a(ixgbe_dcb_82599.o)
                                                  /home/vadim/projects/ipaugenblick/dpdk-1.6.0r2/x86_64-default-linuxapp-gcc/lib/librte_pmd_ixgbe.a(ixgbe_vf.o)
                                                  /home/vadim/projects/ipaugenblick/dpdk-1.6.0r2/x86_64-default-linuxapp-gcc/lib/librte_pmd_ixgbe.a(ixgbe_common.o)
                                                  /home/vadim/projects/ipaugenblick/dpdk-1.6.0r2/x86_64-default-linuxapp-gcc/lib/librte_pmd_e1000.a(igb_pf.o)
                                                  /home/vadim/projects/ipaugenblick/dpdk-1.6.0r2/x86_64-default-linuxapp-gcc/lib/librte_pmd_e1000.a(e1000_ich8lan.o)
                                                  /home/vadim/projects/ipaugenblick/dpdk-1.6.0r2/x86_64-default-linuxapp-gcc/lib/librte_kni.a(rte_kni.o)
                                                  mempool_anon.o
                                                  txonly.o
                                                  testpmd.o
__sched_cpualloc                                  /lib/x86_64-linux-gnu/libc.so.6
                                                  /home/vadim/projects/ipaugenblick/dpdk-1.6.0r2/x86_64-default-linuxapp-gcc/lib/librte_eal.a(eal_thread.o)
__sched_cpualloc@@GLIBC_2.7                       /lib/x86_64-linux-gnu/libc.so.6
__sched_cpualloc@GLIBC_2.7                        /lib/x86_64-linux-gnu/libc.so.6
__sched_cpufree                                   /lib/x86_64-linux-gnu/libc.so.6
                                                  /home/vadim/projects/ipaugenblick/dpdk-1.6.0r2/x86_64-default-linuxapp-gcc/lib/librte_eal.a(eal_thread.o)
__sched_cpufree@@GLIBC_2.7                        /lib/x86_64-linux-gnu/libc.so.6
__sched_cpufree@GLIBC_2.7                         /lib/x86_64-linux-gnu/libc.so.6
__send                                            /lib/x86_64-linux-gnu/libpthread.so.0
__send@@GLIBC_2.2.5                               /lib/x86_64-linux-gnu/libpthread.so.0
                                                  /lib/x86_64-linux-gnu/libc.so.6
__send@GLIBC_2.2.5                                /lib/x86_64-linux-gnu/libpthread.so.0
__stack_chk_fail                                  /lib/x86_64-linux-gnu/libc.so.6
                                                  /home/vadim/projects/ipaugenblick/dpdk-1.6.0r2/x86_64-default-linuxapp-gcc/lib/librte_cmdline.a(cmdline_parse_portlist.o)
                                                  /home/vadim/projects/ipaugenblick/dpdk-1.6.0r2/x86_64-default-linuxapp-gcc/lib/librte_cmdline.a(cmdline_socket.o)
                                                  /home/vadim/projects/ipaugenblick/dpdk-1.6.0r2/x86_64-default-linuxapp-gcc/lib/librte_cmdline.a(cmdline_rdline.o)
                                                  /home/vadim/projects/ipaugenblick/dpdk-1.6.0r2/x86_64-default-linuxapp-gcc/lib/librte_cmdline.a(cmdline_parse_ipaddr.o)
                                                  /home/vadim/projects/ipaugenblick/dpdk-1.6.0r2/x86_64-default-linuxapp-gcc/lib/librte_cmdline.a(cmdline_parse_etheraddr.o)
                                                  /home/vadim/projects/ipaugenblick/dpdk-1.6.0r2/x86_64-default-linuxapp-gcc/lib/librte_cmdline.a(cmdline_parse.o)
                                                  /home/vadim/projects/ipaugenblick/dpdk-1.6.0r2/x86_64-default-linuxapp-gcc/lib/librte_eal.a(eal_common_devargs.o)
                                                  /home/vadim/projects/ipaugenblick/dpdk-1.6.0r2/x86_64-default-linuxapp-gcc/lib/librte_eal.a(eal_common_hexdump.o)
                                                  /home/vadim/projects/ipaugenblick/dpdk-1.6.0r2/x86_64-default-linuxapp-gcc/lib/librte_eal.a(eal_interrupts.o)
                                                  /home/vadim/projects/ipaugenblick/dpdk-1.6.0r2/x86_64-default-linuxapp-gcc/lib/librte_eal.a(eal_timer.o)
                                                  /home/vadim/projects/ipaugenblick/dpdk-1.6.0r2/x86_64-default-linuxapp-gcc/lib/librte_eal.a(eal_lcore.o)
                                                  /home/vadim/projects/ipaugenblick/dpdk-1.6.0r2/x86_64-default-linuxapp-gcc/lib/librte_eal.a(eal_pci.o)
                                                  /home/vadim/projects/ipaugenblick/dpdk-1.6.0r2/x86_64-default-linuxapp-gcc/lib/librte_eal.a(eal_log.o)
                                                  /home/vadim/projects/ipaugenblick/dpdk-1.6.0r2/x86_64-default-linuxapp-gcc/lib/librte_eal.a(eal_memory.o)
                                                  /home/vadim/projects/ipaugenblick/dpdk-1.6.0r2/x86_64-default-linuxapp-gcc/lib/librte_eal.a(eal_hugepage_info.o)
                                                  /home/vadim/projects/ipaugenblick/dpdk-1.6.0r2/x86_64-default-linuxapp-gcc/lib/librte_eal.a(eal.o)
                                                  /home/vadim/projects/ipaugenblick/dpdk-1.6.0r2/x86_64-default-linuxapp-gcc/lib/librte_ring.a(rte_ring.o)
                                                  /home/vadim/projects/ipaugenblick/dpdk-1.6.0r2/x86_64-default-linuxapp-gcc/lib/librte_mempool.a(rte_mempool.o)
                                                  /home/vadim/projects/ipaugenblick/dpdk-1.6.0r2/x86_64-default-linuxapp-gcc/lib/librte_malloc.a(malloc_heap.o)
                                                  /home/vadim/projects/ipaugenblick/dpdk-1.6.0r2/x86_64-default-linuxapp-gcc/lib/librte_pmd_ring.a(rte_eth_ring.o)
                                                  /home/vadim/projects/ipaugenblick/dpdk-1.6.0r2/x86_64-default-linuxapp-gcc/lib/libethdev.a(rte_ethdev.o)
                                                  /home/vadim/projects/ipaugenblick/dpdk-1.6.0r2/x86_64-default-linuxapp-gcc/lib/librte_power.a(rte_power.o)
                                                  /home/vadim/projects/ipaugenblick/dpdk-1.6.0r2/x86_64-default-linuxapp-gcc/lib/librte_lpm.a(rte_lpm6.o)
                                                  /home/vadim/projects/ipaugenblick/dpdk-1.6.0r2/x86_64-default-linuxapp-gcc/lib/librte_lpm.a(rte_lpm.o)
                                                  /home/vadim/projects/ipaugenblick/dpdk-1.6.0r2/x86_64-default-linuxapp-gcc/lib/librte_hash.a(rte_fbk_hash.o)
                                                  /home/vadim/projects/ipaugenblick/dpdk-1.6.0r2/x86_64-default-linuxapp-gcc/lib/librte_hash.a(rte_hash.o)
                                                  /home/vadim/projects/ipaugenblick/dpdk-1.6.0r2/x86_64-default-linuxapp-gcc/lib/librte_pmd_vmxnet3_uio.a(vmxnet3_ethdev.o)
                                                  /home/vadim/projects/ipaugenblick/dpdk-1.6.0r2/x86_64-default-linuxapp-gcc/lib/librte_pmd_vmxnet3_uio.a(vmxnet3_rxtx.o)
                                                  /home/vadim/projects/ipaugenblick/dpdk-1.6.0r2/x86_64-default-linuxapp-gcc/lib/librte_pmd_virtio_uio.a(virtio_ethdev.o)
                                                  /home/vadim/projects/ipaugenblick/dpdk-1.6.0r2/x86_64-default-linuxapp-gcc/lib/librte_pmd_virtio_uio.a(virtio_rxtx.o)
                                                  /home/vadim/projects/ipaugenblick/dpdk-1.6.0r2/x86_64-default-linuxapp-gcc/lib/librte_pmd_ixgbe.a(ixgbe_pf.o)
                                                  /home/vadim/projects/ipaugenblick/dpdk-1.6.0r2/x86_64-default-linuxapp-gcc/lib/librte_pmd_ixgbe.a(ixgbe_ethdev.o)
                                                  /home/vadim/projects/ipaugenblick/dpdk-1.6.0r2/x86_64-default-linuxapp-gcc/lib/librte_pmd_ixgbe.a(ixgbe_rxtx.o)
                                                  /home/vadim/projects/ipaugenblick/dpdk-1.6.0r2/x86_64-default-linuxapp-gcc/lib/librte_pmd_ixgbe.a(ixgbe_dcb.o)
                                                  /home/vadim/projects/ipaugenblick/dpdk-1.6.0r2/x86_64-default-linuxapp-gcc/lib/librte_pmd_e1000.a(em_rxtx.o)
                                                  /home/vadim/projects/ipaugenblick/dpdk-1.6.0r2/x86_64-default-linuxapp-gcc/lib/librte_pmd_e1000.a(em_ethdev.o)
                                                  /home/vadim/projects/ipaugenblick/dpdk-1.6.0r2/x86_64-default-linuxapp-gcc/lib/librte_pmd_e1000.a(igb_pf.o)
                                                  /home/vadim/projects/ipaugenblick/dpdk-1.6.0r2/x86_64-default-linuxapp-gcc/lib/librte_pmd_e1000.a(igb_rxtx.o)
                                                  /home/vadim/projects/ipaugenblick/dpdk-1.6.0r2/x86_64-default-linuxapp-gcc/lib/librte_pmd_e1000.a(igb_ethdev.o)
                                                  /home/vadim/projects/ipaugenblick/dpdk-1.6.0r2/x86_64-default-linuxapp-gcc/lib/librte_pmd_e1000.a(e1000_mac.o)
                                                  /home/vadim/projects/ipaugenblick/dpdk-1.6.0r2/x86_64-default-linuxapp-gcc/lib/librte_kni.a(rte_kni.o)
                                                  csumonly.o
                                                  txonly.o
                                                  config.o
                                                  cmdline.o
                                                  parameters.o
                                                  testpmd.o
__stack_chk_fail@@GLIBC_2.4                       /lib/x86_64-linux-gnu/libc.so.6
__stack_chk_fail@GLIBC_2.4                        /lib/x86_64-linux-gnu/libc.so.6
__strdup                                          /lib/x86_64-linux-gnu/libc.so.6
                                                  /home/vadim/projects/ipaugenblick/dpdk-1.6.0r2/x86_64-default-linuxapp-gcc/lib/librte_eal.a(eal_hugepage_info.o)
                                                  /home/vadim/projects/ipaugenblick/dpdk-1.6.0r2/x86_64-default-linuxapp-gcc/lib/librte_eal.a(eal.o)
                                                  /home/vadim/projects/ipaugenblick/dpdk-1.6.0r2/x86_64-default-linuxapp-gcc/lib/librte_kvargs.a(rte_kvargs.o)
__strdup@@GLIBC_2.2.5                             /lib/x86_64-linux-gnu/libc.so.6
__strdup@GLIBC_2.2.5                              /lib/x86_64-linux-gnu/libc.so.6
__strndup                                         /lib/x86_64-linux-gnu/libc.so.6
                                                  /home/vadim/projects/ipaugenblick/dpdk-1.6.0r2/x86_64-default-linuxapp-gcc/lib/librte_eal.a(eal_pci.o)
__strndup@@GLIBC_2.2.5                            /lib/x86_64-linux-gnu/libc.so.6
__strndup@GLIBC_2.2.5                             /lib/x86_64-linux-gnu/libc.so.6
__strtoll_l                                       /lib/x86_64-linux-gnu/libc.so.6
__strtoll_l@@GLIBC_2.2.5                          /lib/x86_64-linux-gnu/libc.so.6
__strtoll_l@GLIBC_2.2.5                           /lib/x86_64-linux-gnu/libc.so.6
__strtoull_l                                      /lib/x86_64-linux-gnu/libc.so.6
__strtoull_l@@GLIBC_2.2.5                         /lib/x86_64-linux-gnu/libc.so.6
__strtoull_l@GLIBC_2.2.5                          /lib/x86_64-linux-gnu/libc.so.6
__syslog_chk                                      /lib/x86_64-linux-gnu/libc.so.6
                                                  /home/vadim/projects/ipaugenblick/dpdk-1.6.0r2/x86_64-default-linuxapp-gcc/lib/librte_eal.a(eal_log.o)
__syslog_chk@@GLIBC_2.4                           /lib/x86_64-linux-gnu/libc.so.6
__syslog_chk@GLIBC_2.4                            /lib/x86_64-linux-gnu/libc.so.6
__toascii_l                                       /lib/x86_64-linux-gnu/libc.so.6
__toascii_l@@GLIBC_2.2.5                          /lib/x86_64-linux-gnu/libc.so.6
__toascii_l@GLIBC_2.2.5                           /lib/x86_64-linux-gnu/libc.so.6
__vdprintf_chk                                    /lib/x86_64-linux-gnu/libc.so.6
                                                  /home/vadim/projects/ipaugenblick/dpdk-1.6.0r2/x86_64-default-linuxapp-gcc/lib/librte_cmdline.a(cmdline.o)
__vdprintf_chk@@GLIBC_2.8                         /lib/x86_64-linux-gnu/libc.so.6
__vdprintf_chk@GLIBC_2.8                          /lib/x86_64-linux-gnu/libc.so.6
__vfprintf_chk                                    /lib/x86_64-linux-gnu/libc.so.6
                                                  /home/vadim/projects/ipaugenblick/dpdk-1.6.0r2/x86_64-default-linuxapp-gcc/lib/librte_eal.a(eal_common_log.o)
__vfprintf_chk@@GLIBC_2.3.4                       /lib/x86_64-linux-gnu/libc.so.6
__vfprintf_chk@GLIBC_2.3.4                        /lib/x86_64-linux-gnu/libc.so.6
__vsnprintf                                       /lib/x86_64-linux-gnu/libc.so.6
__vsnprintf@@GLIBC_2.2.5                          /lib/x86_64-linux-gnu/libc.so.6
__vsnprintf@GLIBC_2.2.5                           /lib/x86_64-linux-gnu/libc.so.6
__vsnprintf_chk                                   /lib/x86_64-linux-gnu/libc.so.6
                                                  /home/vadim/projects/ipaugenblick/dpdk-1.6.0r2/x86_64-default-linuxapp-gcc/lib/librte_cmdline.a(cmdline_parse_portlist.o)
                                                  /home/vadim/projects/ipaugenblick/dpdk-1.6.0r2/x86_64-default-linuxapp-gcc/lib/librte_cmdline.a(cmdline_parse_string.o)
                                                  /home/vadim/projects/ipaugenblick/dpdk-1.6.0r2/x86_64-default-linuxapp-gcc/lib/librte_cmdline.a(cmdline_parse_num.o)
                                                  /home/vadim/projects/ipaugenblick/dpdk-1.6.0r2/x86_64-default-linuxapp-gcc/lib/librte_cmdline.a(cmdline_parse_ipaddr.o)
                                                  /home/vadim/projects/ipaugenblick/dpdk-1.6.0r2/x86_64-default-linuxapp-gcc/lib/librte_cmdline.a(cmdline_parse_etheraddr.o)
                                                  /home/vadim/projects/ipaugenblick/dpdk-1.6.0r2/x86_64-default-linuxapp-gcc/lib/librte_cmdline.a(cmdline_parse.o)
                                                  /home/vadim/projects/ipaugenblick/dpdk-1.6.0r2/x86_64-default-linuxapp-gcc/lib/librte_cmdline.a(cmdline.o)
                                                  /home/vadim/projects/ipaugenblick/dpdk-1.6.0r2/x86_64-default-linuxapp-gcc/lib/librte_eal.a(eal_common_hexdump.o)
                                                  /home/vadim/projects/ipaugenblick/dpdk-1.6.0r2/x86_64-default-linuxapp-gcc/lib/librte_eal.a(eal_common_errno.o)
                                                  /home/vadim/projects/ipaugenblick/dpdk-1.6.0r2/x86_64-default-linuxapp-gcc/lib/librte_eal.a(eal_common_memzone.o)
                                                  /home/vadim/projects/ipaugenblick/dpdk-1.6.0r2/x86_64-default-linuxapp-gcc/lib/librte_eal.a(eal_lcore.o)
                                                  /home/vadim/projects/ipaugenblick/dpdk-1.6.0r2/x86_64-default-linuxapp-gcc/lib/librte_eal.a(eal_pci.o)
                                                  /home/vadim/projects/ipaugenblick/dpdk-1.6.0r2/x86_64-default-linuxapp-gcc/lib/librte_eal.a(eal_memory.o)
                                                  /home/vadim/projects/ipaugenblick/dpdk-1.6.0r2/x86_64-default-linuxapp-gcc/lib/librte_eal.a(eal_hugepage_info.o)
                                                  /home/vadim/projects/ipaugenblick/dpdk-1.6.0r2/x86_64-default-linuxapp-gcc/lib/librte_eal.a(eal.o)
                                                  /home/vadim/projects/ipaugenblick/dpdk-1.6.0r2/x86_64-default-linuxapp-gcc/lib/librte_ring.a(rte_ring.o)
                                                  /home/vadim/projects/ipaugenblick/dpdk-1.6.0r2/x86_64-default-linuxapp-gcc/lib/librte_mempool.a(rte_mempool.o)
                                                  /home/vadim/projects/ipaugenblick/dpdk-1.6.0r2/x86_64-default-linuxapp-gcc/lib/librte_malloc.a(malloc_heap.o)
                                                  /home/vadim/projects/ipaugenblick/dpdk-1.6.0r2/x86_64-default-linuxapp-gcc/lib/librte_pmd_ring.a(rte_eth_ring.o)
                                                  /home/vadim/projects/ipaugenblick/dpdk-1.6.0r2/x86_64-default-linuxapp-gcc/lib/librte_power.a(rte_power.o)
                                                  /home/vadim/projects/ipaugenblick/dpdk-1.6.0r2/x86_64-default-linuxapp-gcc/lib/librte_lpm.a(rte_lpm6.o)
                                                  /home/vadim/projects/ipaugenblick/dpdk-1.6.0r2/x86_64-default-linuxapp-gcc/lib/librte_lpm.a(rte_lpm.o)
                                                  /home/vadim/projects/ipaugenblick/dpdk-1.6.0r2/x86_64-default-linuxapp-gcc/lib/librte_hash.a(rte_fbk_hash.o)
                                                  /home/vadim/projects/ipaugenblick/dpdk-1.6.0r2/x86_64-default-linuxapp-gcc/lib/librte_hash.a(rte_hash.o)
                                                  /home/vadim/projects/ipaugenblick/dpdk-1.6.0r2/x86_64-default-linuxapp-gcc/lib/librte_pmd_vmxnet3_uio.a(vmxnet3_ethdev.o)
                                                  /home/vadim/projects/ipaugenblick/dpdk-1.6.0r2/x86_64-default-linuxapp-gcc/lib/librte_pmd_vmxnet3_uio.a(vmxnet3_rxtx.o)
                                                  /home/vadim/projects/ipaugenblick/dpdk-1.6.0r2/x86_64-default-linuxapp-gcc/lib/librte_pmd_virtio_uio.a(virtio_ethdev.o)
                                                  /home/vadim/projects/ipaugenblick/dpdk-1.6.0r2/x86_64-default-linuxapp-gcc/lib/librte_pmd_virtio_uio.a(virtio_rxtx.o)
                                                  /home/vadim/projects/ipaugenblick/dpdk-1.6.0r2/x86_64-default-linuxapp-gcc/lib/librte_pmd_ixgbe.a(ixgbe_rxtx.o)
                                                  /home/vadim/projects/ipaugenblick/dpdk-1.6.0r2/x86_64-default-linuxapp-gcc/lib/librte_pmd_e1000.a(em_rxtx.o)
                                                  /home/vadim/projects/ipaugenblick/dpdk-1.6.0r2/x86_64-default-linuxapp-gcc/lib/librte_pmd_e1000.a(igb_rxtx.o)
                                                  /home/vadim/projects/ipaugenblick/dpdk-1.6.0r2/x86_64-default-linuxapp-gcc/lib/librte_kni.a(rte_kni.o)
                                                  config.o
                                                  cmdline.o
                                                  parameters.o
                                                  testpmd.o
__vsnprintf_chk@@GLIBC_2.3.4                      /lib/x86_64-linux-gnu/libc.so.6
__vsnprintf_chk@GLIBC_2.3.4                       /lib/x86_64-linux-gnu/libc.so.6
__vsscanf                                         /lib/x86_64-linux-gnu/libc.so.6
__vsscanf@@GLIBC_2.2.5                            /lib/x86_64-linux-gnu/libc.so.6
__vsscanf@GLIBC_2.2.5                             /lib/x86_64-linux-gnu/libc.so.6
__wait                                            /lib/x86_64-linux-gnu/libpthread.so.0
__wait@@GLIBC_2.2.5                               /lib/x86_64-linux-gnu/libpthread.so.0
                                                  /lib/x86_64-linux-gnu/libc.so.6
__wait@GLIBC_2.2.5                                /lib/x86_64-linux-gnu/libpthread.so.0
__waitpid                                         /lib/x86_64-linux-gnu/libc.so.6
__waitpid@@GLIBC_2.2.5                            /lib/x86_64-linux-gnu/libc.so.6
__waitpid@GLIBC_2.2.5                             /lib/x86_64-linux-gnu/libc.so.6
__wcstoll_l                                       /lib/x86_64-linux-gnu/libc.so.6
__wcstoll_l@@GLIBC_2.2.5                          /lib/x86_64-linux-gnu/libc.so.6
__wcstoll_l@GLIBC_2.2.5                           /lib/x86_64-linux-gnu/libc.so.6
__wcstoull_l                                      /lib/x86_64-linux-gnu/libc.so.6
__wcstoull_l@@GLIBC_2.2.5                         /lib/x86_64-linux-gnu/libc.so.6
__wcstoull_l@GLIBC_2.2.5                          /lib/x86_64-linux-gnu/libc.so.6
__write                                           /lib/x86_64-linux-gnu/libpthread.so.0
__write@@GLIBC_2.2.5                              /lib/x86_64-linux-gnu/libpthread.so.0
                                                  /lib/x86_64-linux-gnu/libc.so.6
__write@GLIBC_2.2.5                               /lib/x86_64-linux-gnu/libpthread.so.0
__xmknod                                          /lib/x86_64-linux-gnu/libc.so.6
                                                  /home/vadim/projects/ipaugenblick/dpdk-1.6.0r2/x86_64-default-linuxapp-gcc/lib/librte_eal.a(eal_pci.o)
__xmknod@@GLIBC_2.2.5                             /lib/x86_64-linux-gnu/libc.so.6
__xmknod@GLIBC_2.2.5                              /lib/x86_64-linux-gnu/libc.so.6
__xpg_sigpause                                    /lib/x86_64-linux-gnu/libc.so.6
__xpg_sigpause@@GLIBC_2.2.5                       /lib/x86_64-linux-gnu/libc.so.6
__xpg_sigpause@GLIBC_2.2.5                        /lib/x86_64-linux-gnu/libc.so.6
__xpg_strerror_r                                  /lib/x86_64-linux-gnu/libc.so.6
                                                  /home/vadim/projects/ipaugenblick/dpdk-1.6.0r2/x86_64-default-linuxapp-gcc/lib/librte_eal.a(eal_common_errno.o)
__xpg_strerror_r@@GLIBC_2.3.4                     /lib/x86_64-linux-gnu/libc.so.6
__xpg_strerror_r@GLIBC_2.3.4                      /lib/x86_64-linux-gnu/libc.so.6
_dl_starting_up                                   /lib/x86_64-linux-gnu/libc.so.6
_environ                                          /lib/x86_64-linux-gnu/libc.so.6
_environ@@GLIBC_2.2.5                             /lib/x86_64-linux-gnu/libc.so.6
_environ@GLIBC_2.2.5                              /lib/x86_64-linux-gnu/libc.so.6
                                                  /usr/lib/gcc/x86_64-linux-gnu/4.6/../../../x86_64-linux-gnu/libdl.so
_fini                                             /usr/lib/gcc/x86_64-linux-gnu/4.6/../../../x86_64-linux-gnu/crti.o
_flushlbf                                         /lib/x86_64-linux-gnu/libc.so.6
_flushlbf@@GLIBC_2.2.5                            /lib/x86_64-linux-gnu/libc.so.6
_flushlbf@GLIBC_2.2.5                             /lib/x86_64-linux-gnu/libc.so.6
_init                                             /usr/lib/gcc/x86_64-linux-gnu/4.6/../../../x86_64-linux-gnu/crti.o
                                                  /usr/lib/x86_64-linux-gnu/libc_nonshared.a(elf-init.oS)
_longjmp                                          /lib/x86_64-linux-gnu/libc.so.6
_longjmp@@GLIBC_2.2.5                             /lib/x86_64-linux-gnu/libc.so.6
_longjmp@GLIBC_2.2.5                              /lib/x86_64-linux-gnu/libc.so.6
_rte_eth_dev_callback_process                     /home/vadim/projects/ipaugenblick/dpdk-1.6.0r2/x86_64-default-linuxapp-gcc/lib/libethdev.a(rte_ethdev.o)
                                                  /home/vadim/projects/ipaugenblick/dpdk-1.6.0r2/x86_64-default-linuxapp-gcc/lib/librte_pmd_ixgbe.a(ixgbe_ethdev.o)
                                                  /home/vadim/projects/ipaugenblick/dpdk-1.6.0r2/x86_64-default-linuxapp-gcc/lib/librte_pmd_e1000.a(em_ethdev.o)
                                                  /home/vadim/projects/ipaugenblick/dpdk-1.6.0r2/x86_64-default-linuxapp-gcc/lib/librte_pmd_e1000.a(igb_ethdev.o)
_start                                            /usr/lib/gcc/x86_64-linux-gnu/4.6/../../../x86_64-linux-gnu/crt1.o
abort                                             /lib/x86_64-linux-gnu/libc.so.6
                                                  /home/vadim/projects/ipaugenblick/dpdk-1.6.0r2/x86_64-default-linuxapp-gcc/lib/librte_eal.a(eal_debug.o)
abort@@GLIBC_2.2.5                                /lib/x86_64-linux-gnu/libc.so.6
abort@GLIBC_2.2.5                                 /lib/x86_64-linux-gnu/libc.so.6
                                                  /lib/x86_64-linux-gnu/libpthread.so.0
accept                                            /lib/x86_64-linux-gnu/libpthread.so.0
accept@@GLIBC_2.2.5                               /lib/x86_64-linux-gnu/libpthread.so.0
                                                  /lib/x86_64-linux-gnu/libc.so.6
accept@GLIBC_2.2.5                                /lib/x86_64-linux-gnu/libpthread.so.0
access                                            /lib/x86_64-linux-gnu/libc.so.6
                                                  /home/vadim/projects/ipaugenblick/dpdk-1.6.0r2/x86_64-default-linuxapp-gcc/lib/librte_eal.a(eal_lcore.o)
                                                  /home/vadim/projects/ipaugenblick/dpdk-1.6.0r2/x86_64-default-linuxapp-gcc/lib/librte_eal.a(eal_pci.o)
access@@GLIBC_2.2.5                               /lib/x86_64-linux-gnu/libc.so.6
access@GLIBC_2.2.5                                /lib/x86_64-linux-gnu/libc.so.6
addmntent                                         /lib/x86_64-linux-gnu/libc.so.6
addmntent@@GLIBC_2.2.5                            /lib/x86_64-linux-gnu/libc.so.6
addmntent@GLIBC_2.2.5                             /lib/x86_64-linux-gnu/libc.so.6
adjtime                                           /lib/x86_64-linux-gnu/libc.so.6
adjtime@@GLIBC_2.2.5                              /lib/x86_64-linux-gnu/libc.so.6
adjtime@GLIBC_2.2.5                               /lib/x86_64-linux-gnu/libc.so.6
adjtimex                                          /lib/x86_64-linux-gnu/libc.so.6
adjtimex@@GLIBC_2.2.5                             /lib/x86_64-linux-gnu/libc.so.6
adjtimex@GLIBC_2.2.5                              /lib/x86_64-linux-gnu/libc.so.6
advance                                           /lib/x86_64-linux-gnu/libc.so.6
advance@@GLIBC_2.2.5                              /lib/x86_64-linux-gnu/libc.so.6
advance@GLIBC_2.2.5                               /lib/x86_64-linux-gnu/libc.so.6
aio_cancel64                                      /usr/lib/gcc/x86_64-linux-gnu/4.6/../../../x86_64-linux-gnu/librt.so
aio_cancel64@@GLIBC_2.2.5                         /usr/lib/gcc/x86_64-linux-gnu/4.6/../../../x86_64-linux-gnu/librt.so
aio_cancel64@GLIBC_2.2.5                          /usr/lib/gcc/x86_64-linux-gnu/4.6/../../../x86_64-linux-gnu/librt.so
aio_error64                                       /usr/lib/gcc/x86_64-linux-gnu/4.6/../../../x86_64-linux-gnu/librt.so
aio_error64@@GLIBC_2.2.5                          /usr/lib/gcc/x86_64-linux-gnu/4.6/../../../x86_64-linux-gnu/librt.so
aio_error64@GLIBC_2.2.5                           /usr/lib/gcc/x86_64-linux-gnu/4.6/../../../x86_64-linux-gnu/librt.so
aio_fsync64                                       /usr/lib/gcc/x86_64-linux-gnu/4.6/../../../x86_64-linux-gnu/librt.so
aio_fsync64@@GLIBC_2.2.5                          /usr/lib/gcc/x86_64-linux-gnu/4.6/../../../x86_64-linux-gnu/librt.so
aio_fsync64@GLIBC_2.2.5                           /usr/lib/gcc/x86_64-linux-gnu/4.6/../../../x86_64-linux-gnu/librt.so
aio_init                                          /usr/lib/gcc/x86_64-linux-gnu/4.6/../../../x86_64-linux-gnu/librt.so
aio_init@@GLIBC_2.2.5                             /usr/lib/gcc/x86_64-linux-gnu/4.6/../../../x86_64-linux-gnu/librt.so
aio_init@GLIBC_2.2.5                              /usr/lib/gcc/x86_64-linux-gnu/4.6/../../../x86_64-linux-gnu/librt.so
aio_read64                                        /usr/lib/gcc/x86_64-linux-gnu/4.6/../../../x86_64-linux-gnu/librt.so
aio_read64@@GLIBC_2.2.5                           /usr/lib/gcc/x86_64-linux-gnu/4.6/../../../x86_64-linux-gnu/librt.so
aio_read64@GLIBC_2.2.5                            /usr/lib/gcc/x86_64-linux-gnu/4.6/../../../x86_64-linux-gnu/librt.so
aio_return64                                      /usr/lib/gcc/x86_64-linux-gnu/4.6/../../../x86_64-linux-gnu/librt.so
aio_return64@@GLIBC_2.2.5                         /usr/lib/gcc/x86_64-linux-gnu/4.6/../../../x86_64-linux-gnu/librt.so
aio_return64@GLIBC_2.2.5                          /usr/lib/gcc/x86_64-linux-gnu/4.6/../../../x86_64-linux-gnu/librt.so
aio_suspend64                                     /usr/lib/gcc/x86_64-linux-gnu/4.6/../../../x86_64-linux-gnu/librt.so
aio_suspend64@@GLIBC_2.2.5                        /usr/lib/gcc/x86_64-linux-gnu/4.6/../../../x86_64-linux-gnu/librt.so
aio_suspend64@GLIBC_2.2.5                         /usr/lib/gcc/x86_64-linux-gnu/4.6/../../../x86_64-linux-gnu/librt.so
aio_write64                                       /usr/lib/gcc/x86_64-linux-gnu/4.6/../../../x86_64-linux-gnu/librt.so
aio_write64@@GLIBC_2.2.5                          /usr/lib/gcc/x86_64-linux-gnu/4.6/../../../x86_64-linux-gnu/librt.so
aio_write64@GLIBC_2.2.5                           /usr/lib/gcc/x86_64-linux-gnu/4.6/../../../x86_64-linux-gnu/librt.so
all_ports_stopped                                 testpmd.o
                                                  cmdline.o
alphasort64                                       /lib/x86_64-linux-gnu/libc.so.6
alphasort64@@GLIBC_2.2.5                          /lib/x86_64-linux-gnu/libc.so.6
alphasort64@GLIBC_2.2.5                           /lib/x86_64-linux-gnu/libc.so.6
arch_prctl                                        /lib/x86_64-linux-gnu/libc.so.6
arch_prctl@@GLIBC_2.2.5                           /lib/x86_64-linux-gnu/libc.so.6
arch_prctl@GLIBC_2.2.5                            /lib/x86_64-linux-gnu/libc.so.6
argp_error                                        /lib/x86_64-linux-gnu/libc.so.6
argp_error@@GLIBC_2.2.5                           /lib/x86_64-linux-gnu/libc.so.6
argp_error@GLIBC_2.2.5                            /lib/x86_64-linux-gnu/libc.so.6
argp_failure                                      /lib/x86_64-linux-gnu/libc.so.6
argp_failure@@GLIBC_2.2.5                         /lib/x86_64-linux-gnu/libc.so.6
argp_failure@GLIBC_2.2.5                          /lib/x86_64-linux-gnu/libc.so.6
argp_help                                         /lib/x86_64-linux-gnu/libc.so.6
argp_help@@GLIBC_2.2.5                            /lib/x86_64-linux-gnu/libc.so.6
argp_help@GLIBC_2.2.5                             /lib/x86_64-linux-gnu/libc.so.6
argp_parse                                        /lib/x86_64-linux-gnu/libc.so.6
argp_parse@@GLIBC_2.2.5                           /lib/x86_64-linux-gnu/libc.so.6
argp_parse@GLIBC_2.2.5                            /lib/x86_64-linux-gnu/libc.so.6
argp_state_help                                   /lib/x86_64-linux-gnu/libc.so.6
argp_state_help@@GLIBC_2.2.5                      /lib/x86_64-linux-gnu/libc.so.6
argp_state_help@GLIBC_2.2.5                       /lib/x86_64-linux-gnu/libc.so.6
argp_usage                                        /lib/x86_64-linux-gnu/libc.so.6
argp_usage@@GLIBC_2.2.5                           /lib/x86_64-linux-gnu/libc.so.6
argp_usage@GLIBC_2.2.5                            /lib/x86_64-linux-gnu/libc.so.6
argz_add                                          /lib/x86_64-linux-gnu/libc.so.6
argz_add@@GLIBC_2.2.5                             /lib/x86_64-linux-gnu/libc.so.6
argz_add@GLIBC_2.2.5                              /lib/x86_64-linux-gnu/libc.so.6
argz_add_sep                                      /lib/x86_64-linux-gnu/libc.so.6
argz_add_sep@@GLIBC_2.2.5                         /lib/x86_64-linux-gnu/libc.so.6
argz_add_sep@GLIBC_2.2.5                          /lib/x86_64-linux-gnu/libc.so.6
argz_append                                       /lib/x86_64-linux-gnu/libc.so.6
argz_append@@GLIBC_2.2.5                          /lib/x86_64-linux-gnu/libc.so.6
argz_append@GLIBC_2.2.5                           /lib/x86_64-linux-gnu/libc.so.6
argz_count                                        /lib/x86_64-linux-gnu/libc.so.6
argz_count@@GLIBC_2.2.5                           /lib/x86_64-linux-gnu/libc.so.6
argz_count@GLIBC_2.2.5                            /lib/x86_64-linux-gnu/libc.so.6
argz_create                                       /lib/x86_64-linux-gnu/libc.so.6
argz_create@@GLIBC_2.2.5                          /lib/x86_64-linux-gnu/libc.so.6
argz_create@GLIBC_2.2.5                           /lib/x86_64-linux-gnu/libc.so.6
argz_create_sep                                   /lib/x86_64-linux-gnu/libc.so.6
argz_create_sep@@GLIBC_2.2.5                      /lib/x86_64-linux-gnu/libc.so.6
argz_create_sep@GLIBC_2.2.5                       /lib/x86_64-linux-gnu/libc.so.6
argz_extract                                      /lib/x86_64-linux-gnu/libc.so.6
argz_extract@@GLIBC_2.2.5                         /lib/x86_64-linux-gnu/libc.so.6
argz_extract@GLIBC_2.2.5                          /lib/x86_64-linux-gnu/libc.so.6
argz_insert                                       /lib/x86_64-linux-gnu/libc.so.6
argz_insert@@GLIBC_2.2.5                          /lib/x86_64-linux-gnu/libc.so.6
argz_insert@GLIBC_2.2.5                           /lib/x86_64-linux-gnu/libc.so.6
argz_next                                         /lib/x86_64-linux-gnu/libc.so.6
argz_next@@GLIBC_2.2.5                            /lib/x86_64-linux-gnu/libc.so.6
argz_next@GLIBC_2.2.5                             /lib/x86_64-linux-gnu/libc.so.6
argz_replace                                      /lib/x86_64-linux-gnu/libc.so.6
argz_replace@@GLIBC_2.2.5                         /lib/x86_64-linux-gnu/libc.so.6
argz_replace@GLIBC_2.2.5                          /lib/x86_64-linux-gnu/libc.so.6
argz_stringify                                    /lib/x86_64-linux-gnu/libc.so.6
argz_stringify@@GLIBC_2.2.5                       /lib/x86_64-linux-gnu/libc.so.6
argz_stringify@GLIBC_2.2.5                        /lib/x86_64-linux-gnu/libc.so.6
asctime_r                                         /lib/x86_64-linux-gnu/libc.so.6
asctime_r@@GLIBC_2.2.5                            /lib/x86_64-linux-gnu/libc.so.6
asctime_r@GLIBC_2.2.5                             /lib/x86_64-linux-gnu/libc.so.6
asprintf                                          /lib/x86_64-linux-gnu/libc.so.6
asprintf@@GLIBC_2.2.5                             /lib/x86_64-linux-gnu/libc.so.6
asprintf@GLIBC_2.2.5                              /lib/x86_64-linux-gnu/libc.so.6
backtrace                                         /lib/x86_64-linux-gnu/libc.so.6
                                                  /home/vadim/projects/ipaugenblick/dpdk-1.6.0r2/x86_64-default-linuxapp-gcc/lib/librte_eal.a(eal_debug.o)
backtrace@@GLIBC_2.2.5                            /lib/x86_64-linux-gnu/libc.so.6
backtrace@GLIBC_2.2.5                             /lib/x86_64-linux-gnu/libc.so.6
backtrace_symbols                                 /lib/x86_64-linux-gnu/libc.so.6
                                                  /home/vadim/projects/ipaugenblick/dpdk-1.6.0r2/x86_64-default-linuxapp-gcc/lib/librte_eal.a(eal_debug.o)
backtrace_symbols@@GLIBC_2.2.5                    /lib/x86_64-linux-gnu/libc.so.6
backtrace_symbols@GLIBC_2.2.5                     /lib/x86_64-linux-gnu/libc.so.6
backtrace_symbols_fd                              /lib/x86_64-linux-gnu/libc.so.6
backtrace_symbols_fd@@GLIBC_2.2.5                 /lib/x86_64-linux-gnu/libc.so.6
backtrace_symbols_fd@GLIBC_2.2.5                  /lib/x86_64-linux-gnu/libc.so.6
bcmp                                              /lib/x86_64-linux-gnu/libc.so.6
bcmp@@GLIBC_2.2.5                                 /lib/x86_64-linux-gnu/libc.so.6
bcmp@GLIBC_2.2.5                                  /lib/x86_64-linux-gnu/libc.so.6
bdflush                                           /lib/x86_64-linux-gnu/libc.so.6
bdflush@@GLIBC_2.2.5                              /lib/x86_64-linux-gnu/libc.so.6
bdflush@GLIBC_2.2.5                               /lib/x86_64-linux-gnu/libc.so.6
bind                                              /lib/x86_64-linux-gnu/libc.so.6
bind@@GLIBC_2.2.5                                 /lib/x86_64-linux-gnu/libc.so.6
bind@GLIBC_2.2.5                                  /lib/x86_64-linux-gnu/libc.so.6
bind_textdomain_codeset                           /lib/x86_64-linux-gnu/libc.so.6
bind_textdomain_codeset@@GLIBC_2.2.5              /lib/x86_64-linux-gnu/libc.so.6
bind_textdomain_codeset@GLIBC_2.2.5               /lib/x86_64-linux-gnu/libc.so.6
bindtextdomain                                    /lib/x86_64-linux-gnu/libc.so.6
bindtextdomain@@GLIBC_2.2.5                       /lib/x86_64-linux-gnu/libc.so.6
bindtextdomain@GLIBC_2.2.5                        /lib/x86_64-linux-gnu/libc.so.6
brk                                               /lib/x86_64-linux-gnu/libc.so.6
brk@@GLIBC_2.2.5                                  /lib/x86_64-linux-gnu/libc.so.6
brk@GLIBC_2.2.5                                   /lib/x86_64-linux-gnu/libc.so.6
bsd_signal                                        /lib/x86_64-linux-gnu/libc.so.6
bsd_signal@@GLIBC_2.2.5                           /lib/x86_64-linux-gnu/libc.so.6
bsd_signal@GLIBC_2.2.5                            /lib/x86_64-linux-gnu/libc.so.6
btowc                                             /lib/x86_64-linux-gnu/libc.so.6
btowc@@GLIBC_2.2.5                                /lib/x86_64-linux-gnu/libc.so.6
btowc@GLIBC_2.2.5                                 /lib/x86_64-linux-gnu/libc.so.6
burst_tx_delay_time                               macfwd-retry.o
                                                  config.o
                                                  cmdline.o
burst_tx_retry_num                                macfwd-retry.o
                                                  config.o
                                                  cmdline.o
bzero                                             /lib/x86_64-linux-gnu/libc.so.6
bzero@@GLIBC_2.2.5                                /lib/x86_64-linux-gnu/libc.so.6
bzero@GLIBC_2.2.5                                 /lib/x86_64-linux-gnu/libc.so.6
calloc                                            /lib/x86_64-linux-gnu/libc.so.6
                                                  mempool_anon.o
calloc@@GLIBC_2.2.5                               /lib/x86_64-linux-gnu/libc.so.6
                                                  /lib/x86_64-linux-gnu/ld-linux-x86-64.so.2
calloc@GLIBC_2.2.5                                /lib/x86_64-linux-gnu/libc.so.6
                                                  /lib/x86_64-linux-gnu/libpthread.so.0
                                                  /usr/lib/gcc/x86_64-linux-gnu/4.6/../../../x86_64-linux-gnu/libdl.so
                                                  /usr/lib/gcc/x86_64-linux-gnu/4.6/../../../x86_64-linux-gnu/librt.so
canonicalize_file_name                            /lib/x86_64-linux-gnu/libc.so.6
canonicalize_file_name@@GLIBC_2.2.5               /lib/x86_64-linux-gnu/libc.so.6
canonicalize_file_name@GLIBC_2.2.5                /lib/x86_64-linux-gnu/libc.so.6
cfree                                             /lib/x86_64-linux-gnu/libc.so.6
cfree@@GLIBC_2.2.5                                /lib/x86_64-linux-gnu/libc.so.6
cfree@GLIBC_2.2.5                                 /lib/x86_64-linux-gnu/libc.so.6
chdir                                             /lib/x86_64-linux-gnu/libc.so.6
chdir@@GLIBC_2.2.5                                /lib/x86_64-linux-gnu/libc.so.6
chdir@GLIBC_2.2.5                                 /lib/x86_64-linux-gnu/libc.so.6
chmod                                             /lib/x86_64-linux-gnu/libc.so.6
chmod@@GLIBC_2.2.5                                /lib/x86_64-linux-gnu/libc.so.6
chmod@GLIBC_2.2.5                                 /lib/x86_64-linux-gnu/libc.so.6
chown                                             /lib/x86_64-linux-gnu/libc.so.6
chown@@GLIBC_2.2.5                                /lib/x86_64-linux-gnu/libc.so.6
chown@GLIBC_2.2.5                                 /lib/x86_64-linux-gnu/libc.so.6
cirbuf_add_buf_head                               /home/vadim/projects/ipaugenblick/dpdk-1.6.0r2/x86_64-default-linuxapp-gcc/lib/librte_cmdline.a(cmdline_cirbuf.o)
cirbuf_add_buf_tail                               /home/vadim/projects/ipaugenblick/dpdk-1.6.0r2/x86_64-default-linuxapp-gcc/lib/librte_cmdline.a(cmdline_cirbuf.o)
                                                  /home/vadim/projects/ipaugenblick/dpdk-1.6.0r2/x86_64-default-linuxapp-gcc/lib/librte_cmdline.a(cmdline_rdline.o)
cirbuf_add_head                                   /home/vadim/projects/ipaugenblick/dpdk-1.6.0r2/x86_64-default-linuxapp-gcc/lib/librte_cmdline.a(cmdline_cirbuf.o)
                                                  /home/vadim/projects/ipaugenblick/dpdk-1.6.0r2/x86_64-default-linuxapp-gcc/lib/librte_cmdline.a(cmdline_rdline.o)
cirbuf_add_head_safe                              /home/vadim/projects/ipaugenblick/dpdk-1.6.0r2/x86_64-default-linuxapp-gcc/lib/librte_cmdline.a(cmdline_cirbuf.o)
cirbuf_add_tail                                   /home/vadim/projects/ipaugenblick/dpdk-1.6.0r2/x86_64-default-linuxapp-gcc/lib/librte_cmdline.a(cmdline_cirbuf.o)
                                                  /home/vadim/projects/ipaugenblick/dpdk-1.6.0r2/x86_64-default-linuxapp-gcc/lib/librte_cmdline.a(cmdline_rdline.o)
cirbuf_add_tail_safe                              /home/vadim/projects/ipaugenblick/dpdk-1.6.0r2/x86_64-default-linuxapp-gcc/lib/librte_cmdline.a(cmdline_cirbuf.o)
                                                  /home/vadim/projects/ipaugenblick/dpdk-1.6.0r2/x86_64-default-linuxapp-gcc/lib/librte_cmdline.a(cmdline_rdline.o)
cirbuf_align_left                                 /home/vadim/projects/ipaugenblick/dpdk-1.6.0r2/x86_64-default-linuxapp-gcc/lib/librte_cmdline.a(cmdline_cirbuf.o)
                                                  /home/vadim/projects/ipaugenblick/dpdk-1.6.0r2/x86_64-default-linuxapp-gcc/lib/librte_cmdline.a(cmdline_rdline.o)
cirbuf_align_right                                /home/vadim/projects/ipaugenblick/dpdk-1.6.0r2/x86_64-default-linuxapp-gcc/lib/librte_cmdline.a(cmdline_cirbuf.o)
cirbuf_del_buf_head                               /home/vadim/projects/ipaugenblick/dpdk-1.6.0r2/x86_64-default-linuxapp-gcc/lib/librte_cmdline.a(cmdline_cirbuf.o)
                                                  /home/vadim/projects/ipaugenblick/dpdk-1.6.0r2/x86_64-default-linuxapp-gcc/lib/librte_cmdline.a(cmdline_rdline.o)
cirbuf_del_buf_tail                               /home/vadim/projects/ipaugenblick/dpdk-1.6.0r2/x86_64-default-linuxapp-gcc/lib/librte_cmdline.a(cmdline_cirbuf.o)
cirbuf_del_head                                   /home/vadim/projects/ipaugenblick/dpdk-1.6.0r2/x86_64-default-linuxapp-gcc/lib/librte_cmdline.a(cmdline_cirbuf.o)
                                                  /home/vadim/projects/ipaugenblick/dpdk-1.6.0r2/x86_64-default-linuxapp-gcc/lib/librte_cmdline.a(cmdline_rdline.o)
cirbuf_del_head_safe                              /home/vadim/projects/ipaugenblick/dpdk-1.6.0r2/x86_64-default-linuxapp-gcc/lib/librte_cmdline.a(cmdline_cirbuf.o)
                                                  /home/vadim/projects/ipaugenblick/dpdk-1.6.0r2/x86_64-default-linuxapp-gcc/lib/librte_cmdline.a(cmdline_rdline.o)
cirbuf_del_tail                                   /home/vadim/projects/ipaugenblick/dpdk-1.6.0r2/x86_64-default-linuxapp-gcc/lib/librte_cmdline.a(cmdline_cirbuf.o)
                                                  /home/vadim/projects/ipaugenblick/dpdk-1.6.0r2/x86_64-default-linuxapp-gcc/lib/librte_cmdline.a(cmdline_rdline.o)
cirbuf_del_tail_safe                              /home/vadim/projects/ipaugenblick/dpdk-1.6.0r2/x86_64-default-linuxapp-gcc/lib/librte_cmdline.a(cmdline_cirbuf.o)
                                                  /home/vadim/projects/ipaugenblick/dpdk-1.6.0r2/x86_64-default-linuxapp-gcc/lib/librte_cmdline.a(cmdline_rdline.o)
cirbuf_get_buf_head                               /home/vadim/projects/ipaugenblick/dpdk-1.6.0r2/x86_64-default-linuxapp-gcc/lib/librte_cmdline.a(cmdline_cirbuf.o)
                                                  /home/vadim/projects/ipaugenblick/dpdk-1.6.0r2/x86_64-default-linuxapp-gcc/lib/librte_cmdline.a(cmdline_rdline.o)
cirbuf_get_buf_tail                               /home/vadim/projects/ipaugenblick/dpdk-1.6.0r2/x86_64-default-linuxapp-gcc/lib/librte_cmdline.a(cmdline_cirbuf.o)
cirbuf_get_head                                   /home/vadim/projects/ipaugenblick/dpdk-1.6.0r2/x86_64-default-linuxapp-gcc/lib/librte_cmdline.a(cmdline_cirbuf.o)
                                                  /home/vadim/projects/ipaugenblick/dpdk-1.6.0r2/x86_64-default-linuxapp-gcc/lib/librte_cmdline.a(cmdline_rdline.o)
cirbuf_get_tail                                   /home/vadim/projects/ipaugenblick/dpdk-1.6.0r2/x86_64-default-linuxapp-gcc/lib/librte_cmdline.a(cmdline_cirbuf.o)
                                                  /home/vadim/projects/ipaugenblick/dpdk-1.6.0r2/x86_64-default-linuxapp-gcc/lib/librte_cmdline.a(cmdline_rdline.o)
cirbuf_init                                       /home/vadim/projects/ipaugenblick/dpdk-1.6.0r2/x86_64-default-linuxapp-gcc/lib/librte_cmdline.a(cmdline_cirbuf.o)
                                                  /home/vadim/projects/ipaugenblick/dpdk-1.6.0r2/x86_64-default-linuxapp-gcc/lib/librte_cmdline.a(cmdline_rdline.o)
clearenv                                          /lib/x86_64-linux-gnu/libc.so.6
clearenv@@GLIBC_2.2.5                             /lib/x86_64-linux-gnu/libc.so.6
clearenv@GLIBC_2.2.5                              /lib/x86_64-linux-gnu/libc.so.6
clock_gettime                                     /usr/lib/gcc/x86_64-linux-gnu/4.6/../../../x86_64-linux-gnu/librt.so
                                                  /home/vadim/projects/ipaugenblick/dpdk-1.6.0r2/x86_64-default-linuxapp-gcc/lib/librte_eal.a(eal_timer.o)
clock_gettime@@GLIBC_2.2.5                        /usr/lib/gcc/x86_64-linux-gnu/4.6/../../../x86_64-linux-gnu/librt.so
clock_gettime@GLIBC_2.2.5                         /usr/lib/gcc/x86_64-linux-gnu/4.6/../../../x86_64-linux-gnu/librt.so
clone                                             /lib/x86_64-linux-gnu/libc.so.6
clone@@GLIBC_2.2.5                                /lib/x86_64-linux-gnu/libc.so.6
clone@GLIBC_2.2.5                                 /lib/x86_64-linux-gnu/libc.so.6
close                                             /lib/x86_64-linux-gnu/libpthread.so.0
                                                  /home/vadim/projects/ipaugenblick/dpdk-1.6.0r2/x86_64-default-linuxapp-gcc/lib/librte_cmdline.a(cmdline.o)
                                                  /home/vadim/projects/ipaugenblick/dpdk-1.6.0r2/x86_64-default-linuxapp-gcc/lib/librte_eal.a(eal_interrupts.o)
                                                  /home/vadim/projects/ipaugenblick/dpdk-1.6.0r2/x86_64-default-linuxapp-gcc/lib/librte_eal.a(eal_pci.o)
                                                  /home/vadim/projects/ipaugenblick/dpdk-1.6.0r2/x86_64-default-linuxapp-gcc/lib/librte_eal.a(eal_memory.o)
                                                  /home/vadim/projects/ipaugenblick/dpdk-1.6.0r2/x86_64-default-linuxapp-gcc/lib/librte_eal.a(eal_hugepage_info.o)
                                                  /home/vadim/projects/ipaugenblick/dpdk-1.6.0r2/x86_64-default-linuxapp-gcc/lib/librte_eal.a(eal.o)
                                                  /home/vadim/projects/ipaugenblick/dpdk-1.6.0r2/x86_64-default-linuxapp-gcc/lib/librte_kni.a(rte_kni.o)
                                                  mempool_anon.o
close@@GLIBC_2.2.5                                /lib/x86_64-linux-gnu/libpthread.so.0
                                                  /lib/x86_64-linux-gnu/libc.so.6
close@GLIBC_2.2.5                                 /lib/x86_64-linux-gnu/libpthread.so.0
                                                  /usr/lib/gcc/x86_64-linux-gnu/4.6/../../../x86_64-linux-gnu/librt.so
close_port                                        testpmd.o
                                                  cmdline.o
closedir                                          /lib/x86_64-linux-gnu/libc.so.6
                                                  /home/vadim/projects/ipaugenblick/dpdk-1.6.0r2/x86_64-default-linuxapp-gcc/lib/librte_eal.a(eal_lcore.o)
                                                  /home/vadim/projects/ipaugenblick/dpdk-1.6.0r2/x86_64-default-linuxapp-gcc/lib/librte_eal.a(eal_pci.o)
                                                  /home/vadim/projects/ipaugenblick/dpdk-1.6.0r2/x86_64-default-linuxapp-gcc/lib/librte_eal.a(eal_hugepage_info.o)
closedir@@GLIBC_2.2.5                             /lib/x86_64-linux-gnu/libc.so.6
closedir@GLIBC_2.2.5                              /lib/x86_64-linux-gnu/libc.so.6
cmd_add_perfect_filter                            cmdline.o
cmd_add_signature_filter                          cmdline.o
cmd_config_burst                                  cmdline.o
cmd_config_burst_all                              cmdline.o
cmd_config_burst_keyword                          cmdline.o
cmd_config_burst_name                             cmdline.o
cmd_config_burst_port                             cmdline.o
cmd_config_burst_value                            cmdline.o
cmd_config_dcb                                    cmdline.o
cmd_config_dcb_config                             cmdline.o
cmd_config_dcb_dcb                                cmdline.o
cmd_config_dcb_num_tcs                            cmdline.o
cmd_config_dcb_pfc                                cmdline.o
cmd_config_dcb_pfc_en                             cmdline.o
cmd_config_dcb_port                               cmdline.o
cmd_config_dcb_port_id                            cmdline.o
cmd_config_dcb_vt                                 cmdline.o
cmd_config_dcb_vt_en                              cmdline.o
cmd_config_max_pkt_len                            cmdline.o
cmd_config_max_pkt_len_all                        cmdline.o
cmd_config_max_pkt_len_keyword                    cmdline.o
cmd_config_max_pkt_len_name                       cmdline.o
cmd_config_max_pkt_len_port                       cmdline.o
cmd_config_max_pkt_len_value                      cmdline.o
cmd_config_rss                                    cmdline.o
cmd_config_rss_all                                cmdline.o
cmd_config_rss_keyword                            cmdline.o
cmd_config_rss_name                               cmdline.o
cmd_config_rss_port                               cmdline.o
cmd_config_rss_reta                               cmdline.o
cmd_config_rss_reta_keyword                       cmdline.o
cmd_config_rss_reta_list_name                     cmdline.o
cmd_config_rss_reta_list_of_items                 cmdline.o
cmd_config_rss_reta_name                          cmdline.o
cmd_config_rss_reta_port                          cmdline.o
cmd_config_rss_reta_port_id                       cmdline.o
cmd_config_rss_value                              cmdline.o
cmd_config_rx_mode_flag                           cmdline.o
cmd_config_rx_mode_flag_all                       cmdline.o
cmd_config_rx_mode_flag_keyword                   cmdline.o
cmd_config_rx_mode_flag_name                      cmdline.o
cmd_config_rx_mode_flag_port                      cmdline.o
cmd_config_rx_mode_flag_value                     cmdline.o
cmd_config_rx_tx                                  cmdline.o
cmd_config_rx_tx_all                              cmdline.o
cmd_config_rx_tx_keyword                          cmdline.o
cmd_config_rx_tx_name                             cmdline.o
cmd_config_rx_tx_port                             cmdline.o
cmd_config_rx_tx_value                            cmdline.o
cmd_config_speed_all                              cmdline.o
cmd_config_speed_all_all                          cmdline.o
cmd_config_speed_all_item1                        cmdline.o
cmd_config_speed_all_item2                        cmdline.o
cmd_config_speed_all_keyword                      cmdline.o
cmd_config_speed_all_port                         cmdline.o
cmd_config_speed_all_value1                       cmdline.o
cmd_config_speed_all_value2                       cmdline.o
cmd_config_speed_specific                         cmdline.o
cmd_config_speed_specific_id                      cmdline.o
cmd_config_speed_specific_item1                   cmdline.o
cmd_config_speed_specific_item2                   cmdline.o
cmd_config_speed_specific_keyword                 cmdline.o
cmd_config_speed_specific_port                    cmdline.o
cmd_config_speed_specific_value1                  cmdline.o
cmd_config_speed_specific_value2                  cmdline.o
cmd_config_thresh                                 cmdline.o
cmd_config_thresh_all                             cmdline.o
cmd_config_thresh_keyword                         cmdline.o
cmd_config_thresh_name                            cmdline.o
cmd_config_thresh_port                            cmdline.o
cmd_config_thresh_value                           cmdline.o
cmd_config_threshold                              cmdline.o
cmd_config_threshold_all                          cmdline.o
cmd_config_threshold_keyword                      cmdline.o
cmd_config_threshold_name                         cmdline.o
cmd_config_threshold_port                         cmdline.o
cmd_config_threshold_value                        cmdline.o
cmd_dump                                          cmdline.o
cmd_dump_dump                                     cmdline.o
cmd_dump_one                                      cmdline.o
cmd_dump_one_dump                                 cmdline.o
cmd_dump_one_name                                 cmdline.o
cmd_help_brief                                    cmdline.o
cmd_help_brief_help                               cmdline.o
cmd_help_long                                     cmdline.o
cmd_help_long_help                                cmdline.o
cmd_help_long_section                             cmdline.o
cmd_lfc_set_flow_ctrl                             cmdline.o
cmd_lfc_set_high_water                            cmdline.o
cmd_lfc_set_low_water                             cmdline.o
cmd_lfc_set_mac_ctrl_frame_fwd                    cmdline.o
cmd_lfc_set_mac_ctrl_frame_fwd_mode               cmdline.o
cmd_lfc_set_pause_time                            cmdline.o
cmd_lfc_set_portid                                cmdline.o
cmd_lfc_set_rx                                    cmdline.o
cmd_lfc_set_rx_mode                               cmdline.o
cmd_lfc_set_send_xon                              cmdline.o
cmd_lfc_set_set                                   cmdline.o
cmd_lfc_set_tx                                    cmdline.o
cmd_lfc_set_tx_mode                               cmdline.o
cmd_link_flow_control_set                         cmdline.o
cmd_mac_addr                                      cmdline.o
cmd_mac_addr_addr                                 cmdline.o
cmd_mac_addr_cmd                                  cmdline.o
cmd_mac_addr_portnum                              cmdline.o
cmd_mac_addr_what                                 cmdline.o
cmd_mirror_link_dstpool                           cmdline.o
cmd_mirror_link_mirror                            cmdline.o
cmd_mirror_link_on                                cmdline.o
cmd_mirror_link_poolid                            cmdline.o
cmd_mirror_link_port                              cmdline.o
cmd_mirror_link_portid                            cmdline.o
cmd_mirror_link_ruleid                            cmdline.o
cmd_mirror_link_set                               cmdline.o
cmd_mirror_link_what                              cmdline.o
cmd_mirror_mask_dstpool                           cmdline.o
cmd_mirror_mask_mirror                            cmdline.o
cmd_mirror_mask_on                                cmdline.o
cmd_mirror_mask_poolid                            cmdline.o
cmd_mirror_mask_port                              cmdline.o
cmd_mirror_mask_portid                            cmdline.o
cmd_mirror_mask_ruleid                            cmdline.o
cmd_mirror_mask_set                               cmdline.o
cmd_mirror_mask_value                             cmdline.o
cmd_mirror_mask_what                              cmdline.o
cmd_operate_port                                  cmdline.o
cmd_operate_port_all_all                          cmdline.o
cmd_operate_port_all_cmd                          cmdline.o
cmd_operate_port_all_port                         cmdline.o
cmd_operate_specific_port                         cmdline.o
cmd_operate_specific_port_cmd                     cmdline.o
cmd_operate_specific_port_id                      cmdline.o
cmd_operate_specific_port_port                    cmdline.o
cmd_pfc_set_flow_ctrl                             cmdline.o
cmd_pfc_set_high_water                            cmdline.o
cmd_pfc_set_low_water                             cmdline.o
cmd_pfc_set_pause_time                            cmdline.o
cmd_pfc_set_portid                                cmdline.o
cmd_pfc_set_priority                              cmdline.o
cmd_pfc_set_rx                                    cmdline.o
cmd_pfc_set_rx_mode                               cmdline.o
cmd_pfc_set_set                                   cmdline.o
cmd_pfc_set_tx                                    cmdline.o
cmd_pfc_set_tx_mode                               cmdline.o
cmd_pkt_filter_add_perfect_filter                 cmdline.o
cmd_pkt_filter_add_signature_filter               cmdline.o
cmd_pkt_filter_dst                                cmdline.o
cmd_pkt_filter_flexbytes                          cmdline.o
cmd_pkt_filter_flexbytes_value                    cmdline.o
cmd_pkt_filter_ip_dst                             cmdline.o
cmd_pkt_filter_ip_src                             cmdline.o
cmd_pkt_filter_masks_comp_ipv6_dst                cmdline.o
cmd_pkt_filter_masks_comp_ipv6_dst_value          cmdline.o
cmd_pkt_filter_masks_dst_mask                     cmdline.o
cmd_pkt_filter_masks_dst_mask_ipv6_value          cmdline.o
cmd_pkt_filter_masks_filter_mask                  cmdline.o
cmd_pkt_filter_masks_filter_mask_ipv6             cmdline.o
cmd_pkt_filter_masks_flexbytes                    cmdline.o
cmd_pkt_filter_masks_flexbytes_value              cmdline.o
cmd_pkt_filter_masks_ip_dst_mask                  cmdline.o
cmd_pkt_filter_masks_ip_src_mask                  cmdline.o
cmd_pkt_filter_masks_only_ip_flow                 cmdline.o
cmd_pkt_filter_masks_only_ip_flow_value           cmdline.o
cmd_pkt_filter_masks_port_dst_mask                cmdline.o
cmd_pkt_filter_masks_port_id                      cmdline.o
cmd_pkt_filter_masks_port_src_mask                cmdline.o
cmd_pkt_filter_masks_src_mask                     cmdline.o
cmd_pkt_filter_masks_src_mask_ipv6_value          cmdline.o
cmd_pkt_filter_masks_vlan_id                      cmdline.o
cmd_pkt_filter_masks_vlan_id_value                cmdline.o
cmd_pkt_filter_masks_vlan_prio                    cmdline.o
cmd_pkt_filter_masks_vlan_prio_value              cmdline.o
cmd_pkt_filter_port_dst                           cmdline.o
cmd_pkt_filter_port_id                            cmdline.o
cmd_pkt_filter_port_src                           cmdline.o
cmd_pkt_filter_protocol                           cmdline.o
cmd_pkt_filter_queue                              cmdline.o
cmd_pkt_filter_queue_id                           cmdline.o
cmd_pkt_filter_rm_perfect_filter                  cmdline.o
cmd_pkt_filter_rm_signature_filter                cmdline.o
cmd_pkt_filter_soft                               cmdline.o
cmd_pkt_filter_soft_id                            cmdline.o
cmd_pkt_filter_src                                cmdline.o
cmd_pkt_filter_upd_perfect_filter                 cmdline.o
cmd_pkt_filter_upd_signature_filter               cmdline.o
cmd_pkt_filter_vlan                               cmdline.o
cmd_pkt_filter_vlan_id                            cmdline.o
cmd_priority_flow_control_set                     cmdline.o
cmd_quit                                          cmdline.o
cmd_quit_quit                                     cmdline.o
cmd_read_reg                                      cmdline.o
cmd_read_reg_bit                                  cmdline.o
cmd_read_reg_bit_bit_pos                          cmdline.o
cmd_read_reg_bit_field                            cmdline.o
cmd_read_reg_bit_field_bit1_pos                   cmdline.o
cmd_read_reg_bit_field_bit2_pos                   cmdline.o
cmd_read_reg_bit_field_port_id                    cmdline.o
cmd_read_reg_bit_field_read                       cmdline.o
cmd_read_reg_bit_field_reg_off                    cmdline.o
cmd_read_reg_bit_field_regfield                   cmdline.o
cmd_read_reg_bit_port_id                          cmdline.o
cmd_read_reg_bit_read                             cmdline.o
cmd_read_reg_bit_reg_off                          cmdline.o
cmd_read_reg_bit_regbit                           cmdline.o
cmd_read_reg_port_id                              cmdline.o
cmd_read_reg_read                                 cmdline.o
cmd_read_reg_reg                                  cmdline.o
cmd_read_reg_reg_off                              cmdline.o
cmd_read_rxd_txd                                  cmdline.o
cmd_read_rxd_txd_desc_id                          cmdline.o
cmd_read_rxd_txd_port_id                          cmdline.o
cmd_read_rxd_txd_queue_id                         cmdline.o
cmd_read_rxd_txd_read                             cmdline.o
cmd_read_rxd_txd_rxd_txd                          cmdline.o
cmd_reset                                         cmdline.o
cmd_reset_def                                     cmdline.o
cmd_reset_mirror_rule                             cmdline.o
cmd_reset_set                                     cmdline.o
cmd_rm_mirror_rule_mirror                         cmdline.o
cmd_rm_mirror_rule_port                           cmdline.o
cmd_rm_mirror_rule_portid                         cmdline.o
cmd_rm_mirror_rule_reset                          cmdline.o
cmd_rm_mirror_rule_ruleid                         cmdline.o
cmd_rm_perfect_filter                             cmdline.o
cmd_rm_signature_filter                           cmdline.o
cmd_rx_vlan_filter                                cmdline.o
cmd_rx_vlan_filter_all                            cmdline.o
cmd_rx_vlan_filter_all_all                        cmdline.o
cmd_rx_vlan_filter_all_portid                     cmdline.o
cmd_rx_vlan_filter_all_rx_vlan                    cmdline.o
cmd_rx_vlan_filter_all_what                       cmdline.o
cmd_rx_vlan_filter_portid                         cmdline.o
cmd_rx_vlan_filter_rx_vlan                        cmdline.o
cmd_rx_vlan_filter_vlanid                         cmdline.o
cmd_rx_vlan_filter_what                           cmdline.o
cmd_set_allmulti_mode_all                         cmdline.o
cmd_set_allmulti_mode_one                         cmdline.o
cmd_set_burst_tx_retry                            cmdline.o
cmd_set_burst_tx_retry_burst                      cmdline.o
cmd_set_burst_tx_retry_delay                      cmdline.o
cmd_set_burst_tx_retry_retry                      cmdline.o
cmd_set_burst_tx_retry_retry_num                  cmdline.o
cmd_set_burst_tx_retry_set                        cmdline.o
cmd_set_burst_tx_retry_time                       cmdline.o
cmd_set_burst_tx_retry_tx                         cmdline.o
cmd_set_flush_rx                                  cmdline.o
cmd_set_fwd_list                                  cmdline.o
cmd_set_fwd_mask                                  cmdline.o
cmd_set_fwd_mode                                  cmdline.o
cmd_set_ipv6_masks_filter                         cmdline.o
cmd_set_list_keyword                              cmdline.o
cmd_set_list_name                                 cmdline.o
cmd_set_list_of_items                             cmdline.o
cmd_set_masks_filter                              cmdline.o
cmd_set_mirror_link                               cmdline.o
cmd_set_mirror_mask                               cmdline.o
cmd_set_numbers                                   cmdline.o
cmd_set_promisc_mode_all                          cmdline.o
cmd_set_promisc_mode_one                          cmdline.o
cmd_set_qmap                                      cmdline.o
cmd_set_set                                       cmdline.o
cmd_set_txpkts                                    cmdline.o
cmd_set_txpkts_keyword                            cmdline.o
cmd_set_txpkts_lengths                            cmdline.o
cmd_set_txpkts_name                               cmdline.o
cmd_set_uc_all_hash_filter                        cmdline.o
cmd_set_uc_all_hash_mode                          cmdline.o
cmd_set_uc_all_hash_port                          cmdline.o
cmd_set_uc_all_hash_portid                        cmdline.o
cmd_set_uc_all_hash_set                           cmdline.o
cmd_set_uc_all_hash_value                         cmdline.o
cmd_set_uc_all_hash_what                          cmdline.o
cmd_set_uc_hash_filter                            cmdline.o
cmd_set_uc_hash_mac                               cmdline.o
cmd_set_uc_hash_mode                              cmdline.o
cmd_set_uc_hash_port                              cmdline.o
cmd_set_uc_hash_portid                            cmdline.o
cmd_set_uc_hash_set                               cmdline.o
cmd_set_uc_hash_what                              cmdline.o
cmd_set_value                                     cmdline.o
cmd_set_vf_rxmode                                 cmdline.o
cmd_set_vf_rxmode_mode                            cmdline.o
cmd_set_vf_rxmode_on                              cmdline.o
cmd_set_vf_rxmode_port                            cmdline.o
cmd_set_vf_rxmode_portid                          cmdline.o
cmd_set_vf_rxmode_set                             cmdline.o
cmd_set_vf_rxmode_vf                              cmdline.o
cmd_set_vf_rxmode_vfid                            cmdline.o
cmd_set_vf_rxmode_what                            cmdline.o
cmd_set_vf_traffic                                cmdline.o
cmd_set_what                                      cmdline.o
cmd_setallmulti_allmulti                          cmdline.o
cmd_setallmulti_mode                              cmdline.o
cmd_setallmulti_portall                           cmdline.o
cmd_setallmulti_portnum                           cmdline.o
cmd_setallmulti_set                               cmdline.o
cmd_setflushrx_flush_rx                           cmdline.o
cmd_setflushrx_mode                               cmdline.o
cmd_setflushrx_set                                cmdline.o
cmd_setfwd_fwd                                    cmdline.o
cmd_setfwd_mode                                   cmdline.o
cmd_setfwd_set                                    cmdline.o
cmd_setmask_mask                                  cmdline.o
cmd_setmask_set                                   cmdline.o
cmd_setmask_value                                 cmdline.o
cmd_setpromisc_mode                               cmdline.o
cmd_setpromisc_portall                            cmdline.o
cmd_setpromisc_portnum                            cmdline.o
cmd_setpromisc_promisc                            cmdline.o
cmd_setpromisc_set                                cmdline.o
cmd_setqmap_mapvalue                              cmdline.o
cmd_setqmap_portid                                cmdline.o
cmd_setqmap_qmap                                  cmdline.o
cmd_setqmap_queueid                               cmdline.o
cmd_setqmap_set                                   cmdline.o
cmd_setqmap_what                                  cmdline.o
cmd_setvf_traffic_mode                            cmdline.o
cmd_setvf_traffic_port                            cmdline.o
cmd_setvf_traffic_portid                          cmdline.o
cmd_setvf_traffic_set                             cmdline.o
cmd_setvf_traffic_vf                              cmdline.o
cmd_setvf_traffic_vfid                            cmdline.o
cmd_setvf_traffic_what                            cmdline.o
cmd_showcfg                                       cmdline.o
cmd_showcfg_port                                  cmdline.o
cmd_showcfg_show                                  cmdline.o
cmd_showcfg_what                                  cmdline.o
cmd_showport                                      cmdline.o
cmd_showport_port                                 cmdline.o
cmd_showport_portnum                              cmdline.o
cmd_showport_reta                                 cmdline.o
cmd_showport_reta_mask_hi                         cmdline.o
cmd_showport_reta_mask_lo                         cmdline.o
cmd_showport_reta_port                            cmdline.o
cmd_showport_reta_port_id                         cmdline.o
cmd_showport_reta_reta                            cmdline.o
cmd_showport_reta_rss                             cmdline.o
cmd_showport_reta_show                            cmdline.o
cmd_showport_show                                 cmdline.o
cmd_showport_what                                 cmdline.o
cmd_showportall                                   cmdline.o
cmd_showportall_all                               cmdline.o
cmd_showportall_port                              cmdline.o
cmd_showportall_show                              cmdline.o
cmd_showportall_what                              cmdline.o
cmd_start                                         cmdline.o
cmd_start_start                                   cmdline.o
cmd_start_tx_first                                cmdline.o
cmd_start_tx_first_start                          cmdline.o
cmd_start_tx_first_tx_first                       cmdline.o
cmd_stop                                          cmdline.o
cmd_stop_stop                                     cmdline.o
cmd_tx_cksum_set                                  cmdline.o
cmd_tx_cksum_set_cksum_mask                       cmdline.o
cmd_tx_cksum_set_portid                           cmdline.o
cmd_tx_cksum_set_set                              cmdline.o
cmd_tx_cksum_set_tx_cksum                         cmdline.o
cmd_tx_vlan_reset                                 cmdline.o
cmd_tx_vlan_reset_portid                          cmdline.o
cmd_tx_vlan_reset_reset                           cmdline.o
cmd_tx_vlan_reset_tx_vlan                         cmdline.o
cmd_tx_vlan_set                                   cmdline.o
cmd_tx_vlan_set_portid                            cmdline.o
cmd_tx_vlan_set_set                               cmdline.o
cmd_tx_vlan_set_tx_vlan                           cmdline.o
cmd_tx_vlan_set_vlanid                            cmdline.o
cmd_upd_perfect_filter                            cmdline.o
cmd_upd_signature_filter                          cmdline.o
cmd_vf_mac_addr_addr                              cmdline.o
cmd_vf_mac_addr_cmd                               cmdline.o
cmd_vf_mac_addr_filter                            cmdline.o
cmd_vf_mac_addr_port                              cmdline.o
cmd_vf_mac_addr_portnum                           cmdline.o
cmd_vf_mac_addr_vf                                cmdline.o
cmd_vf_mac_addr_vfnum                             cmdline.o
cmd_vf_mac_addr_what                              cmdline.o
cmd_vf_rx_vlan_filter_port                        cmdline.o
cmd_vf_rx_vlan_filter_portid                      cmdline.o
cmd_vf_rx_vlan_filter_rx_vlan                     cmdline.o
cmd_vf_rx_vlan_filter_vf                          cmdline.o
cmd_vf_rx_vlan_filter_vf_mask                     cmdline.o
cmd_vf_rx_vlan_filter_vlanid                      cmdline.o
cmd_vf_rx_vlan_filter_what                        cmdline.o
cmd_vf_rxvlan_filter                              cmdline.o
cmd_vlan_offload                                  cmdline.o
cmd_vlan_offload_on                               cmdline.o
cmd_vlan_offload_portid                           cmdline.o
cmd_vlan_offload_set                              cmdline.o
cmd_vlan_offload_vlan                             cmdline.o
cmd_vlan_offload_what                             cmdline.o
cmd_vlan_tpid                                     cmdline.o
cmd_vlan_tpid_portid                              cmdline.o
cmd_vlan_tpid_set                                 cmdline.o
cmd_vlan_tpid_tpid                                cmdline.o
cmd_vlan_tpid_vlan                                cmdline.o
cmd_vlan_tpid_what                                cmdline.o
cmd_write_reg                                     cmdline.o
cmd_write_reg_bit                                 cmdline.o
cmd_write_reg_bit_bit_pos                         cmdline.o
cmd_write_reg_bit_field                           cmdline.o
cmd_write_reg_bit_field_bit1_pos                  cmdline.o
cmd_write_reg_bit_field_bit2_pos                  cmdline.o
cmd_write_reg_bit_field_port_id                   cmdline.o
cmd_write_reg_bit_field_reg_off                   cmdline.o
cmd_write_reg_bit_field_regfield                  cmdline.o
cmd_write_reg_bit_field_value                     cmdline.o
cmd_write_reg_bit_field_write                     cmdline.o
cmd_write_reg_bit_port_id                         cmdline.o
cmd_write_reg_bit_reg_off                         cmdline.o
cmd_write_reg_bit_regbit                          cmdline.o
cmd_write_reg_bit_value                           cmdline.o
cmd_write_reg_bit_write                           cmdline.o
cmd_write_reg_port_id                             cmdline.o
cmd_write_reg_reg                                 cmdline.o
cmd_write_reg_reg_off                             cmdline.o
cmd_write_reg_value                               cmdline.o
cmd_write_reg_write                               cmdline.o
cmdline_complete                                  /home/vadim/projects/ipaugenblick/dpdk-1.6.0r2/x86_64-default-linuxapp-gcc/lib/librte_cmdline.a(cmdline_parse.o)
                                                  /home/vadim/projects/ipaugenblick/dpdk-1.6.0r2/x86_64-default-linuxapp-gcc/lib/librte_cmdline.a(cmdline.o)
cmdline_complete_get_elt_string                   /home/vadim/projects/ipaugenblick/dpdk-1.6.0r2/x86_64-default-linuxapp-gcc/lib/librte_cmdline.a(cmdline_parse_string.o)
cmdline_complete_get_nb_string                    /home/vadim/projects/ipaugenblick/dpdk-1.6.0r2/x86_64-default-linuxapp-gcc/lib/librte_cmdline.a(cmdline_parse_string.o)
cmdline_file_new                                  /home/vadim/projects/ipaugenblick/dpdk-1.6.0r2/x86_64-default-linuxapp-gcc/lib/librte_cmdline.a(cmdline_socket.o)
cmdline_free                                      /home/vadim/projects/ipaugenblick/dpdk-1.6.0r2/x86_64-default-linuxapp-gcc/lib/librte_cmdline.a(cmdline.o)
cmdline_get_help_etheraddr                        /home/vadim/projects/ipaugenblick/dpdk-1.6.0r2/x86_64-default-linuxapp-gcc/lib/librte_cmdline.a(cmdline_parse_etheraddr.o)
cmdline_get_help_ipaddr                           /home/vadim/projects/ipaugenblick/dpdk-1.6.0r2/x86_64-default-linuxapp-gcc/lib/librte_cmdline.a(cmdline_parse_ipaddr.o)
cmdline_get_help_num                              /home/vadim/projects/ipaugenblick/dpdk-1.6.0r2/x86_64-default-linuxapp-gcc/lib/librte_cmdline.a(cmdline_parse_num.o)
cmdline_get_help_portlist                         /home/vadim/projects/ipaugenblick/dpdk-1.6.0r2/x86_64-default-linuxapp-gcc/lib/librte_cmdline.a(cmdline_parse_portlist.o)
cmdline_get_help_string                           /home/vadim/projects/ipaugenblick/dpdk-1.6.0r2/x86_64-default-linuxapp-gcc/lib/librte_cmdline.a(cmdline_parse_string.o)
cmdline_in                                        /home/vadim/projects/ipaugenblick/dpdk-1.6.0r2/x86_64-default-linuxapp-gcc/lib/librte_cmdline.a(cmdline.o)
cmdline_interact                                  /home/vadim/projects/ipaugenblick/dpdk-1.6.0r2/x86_64-default-linuxapp-gcc/lib/librte_cmdline.a(cmdline.o)
                                                  cmdline.o
cmdline_isendoftoken                              /home/vadim/projects/ipaugenblick/dpdk-1.6.0r2/x86_64-default-linuxapp-gcc/lib/librte_cmdline.a(cmdline_parse.o)
                                                  /home/vadim/projects/ipaugenblick/dpdk-1.6.0r2/x86_64-default-linuxapp-gcc/lib/librte_cmdline.a(cmdline_parse_portlist.o)
                                                  /home/vadim/projects/ipaugenblick/dpdk-1.6.0r2/x86_64-default-linuxapp-gcc/lib/librte_cmdline.a(cmdline_parse_string.o)
                                                  /home/vadim/projects/ipaugenblick/dpdk-1.6.0r2/x86_64-default-linuxapp-gcc/lib/librte_cmdline.a(cmdline_parse_num.o)
                                                  /home/vadim/projects/ipaugenblick/dpdk-1.6.0r2/x86_64-default-linuxapp-gcc/lib/librte_cmdline.a(cmdline_parse_ipaddr.o)
                                                  /home/vadim/projects/ipaugenblick/dpdk-1.6.0r2/x86_64-default-linuxapp-gcc/lib/librte_cmdline.a(cmdline_parse_etheraddr.o)
cmdline_new                                       /home/vadim/projects/ipaugenblick/dpdk-1.6.0r2/x86_64-default-linuxapp-gcc/lib/librte_cmdline.a(cmdline.o)
                                                  /home/vadim/projects/ipaugenblick/dpdk-1.6.0r2/x86_64-default-linuxapp-gcc/lib/librte_cmdline.a(cmdline_socket.o)
cmdline_parse                                     /home/vadim/projects/ipaugenblick/dpdk-1.6.0r2/x86_64-default-linuxapp-gcc/lib/librte_cmdline.a(cmdline_parse.o)
                                                  /home/vadim/projects/ipaugenblick/dpdk-1.6.0r2/x86_64-default-linuxapp-gcc/lib/librte_cmdline.a(cmdline.o)
cmdline_parse_etheraddr                           /home/vadim/projects/ipaugenblick/dpdk-1.6.0r2/x86_64-default-linuxapp-gcc/lib/librte_cmdline.a(cmdline_parse_etheraddr.o)
                                                  parameters.o
cmdline_parse_ipaddr                              /home/vadim/projects/ipaugenblick/dpdk-1.6.0r2/x86_64-default-linuxapp-gcc/lib/librte_cmdline.a(cmdline_parse_ipaddr.o)
cmdline_parse_num                                 /home/vadim/projects/ipaugenblick/dpdk-1.6.0r2/x86_64-default-linuxapp-gcc/lib/librte_cmdline.a(cmdline_parse_num.o)
cmdline_parse_portlist                            /home/vadim/projects/ipaugenblick/dpdk-1.6.0r2/x86_64-default-linuxapp-gcc/lib/librte_cmdline.a(cmdline_parse_portlist.o)
cmdline_parse_string                              /home/vadim/projects/ipaugenblick/dpdk-1.6.0r2/x86_64-default-linuxapp-gcc/lib/librte_cmdline.a(cmdline_parse_string.o)
cmdline_printf                                    /home/vadim/projects/ipaugenblick/dpdk-1.6.0r2/x86_64-default-linuxapp-gcc/lib/librte_cmdline.a(cmdline.o)
                                                  cmdline.o
cmdline_quit                                      /home/vadim/projects/ipaugenblick/dpdk-1.6.0r2/x86_64-default-linuxapp-gcc/lib/librte_cmdline.a(cmdline.o)
                                                  cmdline.o
cmdline_set_prompt                                /home/vadim/projects/ipaugenblick/dpdk-1.6.0r2/x86_64-default-linuxapp-gcc/lib/librte_cmdline.a(cmdline.o)
cmdline_stdin_exit                                /home/vadim/projects/ipaugenblick/dpdk-1.6.0r2/x86_64-default-linuxapp-gcc/lib/librte_cmdline.a(cmdline_socket.o)
                                                  cmdline.o
cmdline_stdin_new                                 /home/vadim/projects/ipaugenblick/dpdk-1.6.0r2/x86_64-default-linuxapp-gcc/lib/librte_cmdline.a(cmdline_socket.o)
                                                  cmdline.o
cmdline_token_etheraddr_ops                       /home/vadim/projects/ipaugenblick/dpdk-1.6.0r2/x86_64-default-linuxapp-gcc/lib/librte_cmdline.a(cmdline_parse_etheraddr.o)
                                                  cmdline.o
cmdline_token_ipaddr_ops                          /home/vadim/projects/ipaugenblick/dpdk-1.6.0r2/x86_64-default-linuxapp-gcc/lib/librte_cmdline.a(cmdline_parse_ipaddr.o)
                                                  cmdline.o
cmdline_token_num_ops                             /home/vadim/projects/ipaugenblick/dpdk-1.6.0r2/x86_64-default-linuxapp-gcc/lib/librte_cmdline.a(cmdline_parse_num.o)
                                                  cmdline.o
cmdline_token_portlist_ops                        /home/vadim/projects/ipaugenblick/dpdk-1.6.0r2/x86_64-default-linuxapp-gcc/lib/librte_cmdline.a(cmdline_parse_portlist.o)
cmdline_token_string_ops                          /home/vadim/projects/ipaugenblick/dpdk-1.6.0r2/x86_64-default-linuxapp-gcc/lib/librte_cmdline.a(cmdline_parse_string.o)
                                                  cmdline.o
cmdline_vt100_commands                            /home/vadim/projects/ipaugenblick/dpdk-1.6.0r2/x86_64-default-linuxapp-gcc/lib/librte_cmdline.a(cmdline_vt100.o)
cmdline_write_char                                /home/vadim/projects/ipaugenblick/dpdk-1.6.0r2/x86_64-default-linuxapp-gcc/lib/librte_cmdline.a(cmdline.o)
connect                                           /lib/x86_64-linux-gnu/libpthread.so.0
connect@@GLIBC_2.2.5                              /lib/x86_64-linux-gnu/libpthread.so.0
                                                  /lib/x86_64-linux-gnu/libc.so.6
connect@GLIBC_2.2.5                               /lib/x86_64-linux-gnu/libpthread.so.0
copysign                                          /lib/x86_64-linux-gnu/libc.so.6
copysign@@GLIBC_2.2.5                             /lib/x86_64-linux-gnu/libc.so.6
copysign@GLIBC_2.2.5                              /lib/x86_64-linux-gnu/libc.so.6
copysignf                                         /lib/x86_64-linux-gnu/libc.so.6
copysignf@@GLIBC_2.2.5                            /lib/x86_64-linux-gnu/libc.so.6
copysignf@GLIBC_2.2.5                             /lib/x86_64-linux-gnu/libc.so.6
copysignl                                         /lib/x86_64-linux-gnu/libc.so.6
copysignl@@GLIBC_2.2.5                            /lib/x86_64-linux-gnu/libc.so.6
copysignl@GLIBC_2.2.5                             /lib/x86_64-linux-gnu/libc.so.6
creat                                             /lib/x86_64-linux-gnu/libc.so.6
creat64                                           /lib/x86_64-linux-gnu/libc.so.6
creat64@@GLIBC_2.2.5                              /lib/x86_64-linux-gnu/libc.so.6
creat64@GLIBC_2.2.5                               /lib/x86_64-linux-gnu/libc.so.6
creat@@GLIBC_2.2.5                                /lib/x86_64-linux-gnu/libc.so.6
creat@GLIBC_2.2.5                                 /lib/x86_64-linux-gnu/libc.so.6
csum_fwd_engine                                   csumonly.o
                                                  testpmd.o
cur_fwd_config                                    config.o
                                                  testpmd.o
cur_fwd_eng                                       testpmd.o
                                                  config.o
data_start                                        /usr/lib/gcc/x86_64-linux-gnu/4.6/../../../x86_64-linux-gnu/crt1.o
daylight                                          /lib/x86_64-linux-gnu/libc.so.6
daylight@@GLIBC_2.2.5                             /lib/x86_64-linux-gnu/libc.so.6
daylight@GLIBC_2.2.5                              /lib/x86_64-linux-gnu/libc.so.6
dcb_config                                        testpmd.o
                                                  config.o
dcb_q_mapping                                     testpmd.o
                                                  config.o
dcb_test                                          testpmd.o
dcgettext                                         /lib/x86_64-linux-gnu/libc.so.6
dcgettext@@GLIBC_2.2.5                            /lib/x86_64-linux-gnu/libc.so.6
dcgettext@GLIBC_2.2.5                             /lib/x86_64-linux-gnu/libc.so.6
dcngettext                                        /lib/x86_64-linux-gnu/libc.so.6
dcngettext@@GLIBC_2.2.5                           /lib/x86_64-linux-gnu/libc.so.6
dcngettext@GLIBC_2.2.5                            /lib/x86_64-linux-gnu/libc.so.6
devargs_list                                      /home/vadim/projects/ipaugenblick/dpdk-1.6.0r2/x86_64-default-linuxapp-gcc/lib/librte_eal.a(eal_common_devargs.o)
                                                  /home/vadim/projects/ipaugenblick/dpdk-1.6.0r2/x86_64-default-linuxapp-gcc/lib/librte_eal.a(eal_common_vdev.o)
                                                  /home/vadim/projects/ipaugenblick/dpdk-1.6.0r2/x86_64-default-linuxapp-gcc/lib/librte_eal.a(eal_common_pci.o)
dgettext                                          /lib/x86_64-linux-gnu/libc.so.6
dgettext@@GLIBC_2.2.5                             /lib/x86_64-linux-gnu/libc.so.6
dgettext@GLIBC_2.2.5                              /lib/x86_64-linux-gnu/libc.so.6
dirfd                                             /lib/x86_64-linux-gnu/libc.so.6
                                                  /home/vadim/projects/ipaugenblick/dpdk-1.6.0r2/x86_64-default-linuxapp-gcc/lib/librte_eal.a(eal_hugepage_info.o)
dirfd@@GLIBC_2.2.5                                /lib/x86_64-linux-gnu/libc.so.6
dirfd@GLIBC_2.2.5                                 /lib/x86_64-linux-gnu/libc.so.6
dl_iterate_phdr                                   /lib/x86_64-linux-gnu/libc.so.6
dl_iterate_phdr@@GLIBC_2.2.5                      /lib/x86_64-linux-gnu/libc.so.6
dl_iterate_phdr@GLIBC_2.2.5                       /lib/x86_64-linux-gnu/libc.so.6
dlerror                                           /usr/lib/gcc/x86_64-linux-gnu/4.6/../../../x86_64-linux-gnu/libdl.so
                                                  /home/vadim/projects/ipaugenblick/dpdk-1.6.0r2/x86_64-default-linuxapp-gcc/lib/librte_eal.a(eal.o)
dlerror@@GLIBC_2.2.5                              /usr/lib/gcc/x86_64-linux-gnu/4.6/../../../x86_64-linux-gnu/libdl.so
dlerror@GLIBC_2.2.5                               /usr/lib/gcc/x86_64-linux-gnu/4.6/../../../x86_64-linux-gnu/libdl.so
dlopen                                            /usr/lib/gcc/x86_64-linux-gnu/4.6/../../../x86_64-linux-gnu/libdl.so
                                                  /home/vadim/projects/ipaugenblick/dpdk-1.6.0r2/x86_64-default-linuxapp-gcc/lib/librte_eal.a(eal.o)
dlopen@@GLIBC_2.2.5                               /usr/lib/gcc/x86_64-linux-gnu/4.6/../../../x86_64-linux-gnu/libdl.so
dlopen@GLIBC_2.2.5                                /usr/lib/gcc/x86_64-linux-gnu/4.6/../../../x86_64-linux-gnu/libdl.so
dlvsym                                            /usr/lib/gcc/x86_64-linux-gnu/4.6/../../../x86_64-linux-gnu/libdl.so
dlvsym@@GLIBC_2.2.5                               /usr/lib/gcc/x86_64-linux-gnu/4.6/../../../x86_64-linux-gnu/libdl.so
dlvsym@GLIBC_2.2.5                                /usr/lib/gcc/x86_64-linux-gnu/4.6/../../../x86_64-linux-gnu/libdl.so
dngettext                                         /lib/x86_64-linux-gnu/libc.so.6
dngettext@@GLIBC_2.2.5                            /lib/x86_64-linux-gnu/libc.so.6
dngettext@GLIBC_2.2.5                             /lib/x86_64-linux-gnu/libc.so.6
dup                                               /lib/x86_64-linux-gnu/libc.so.6
dup2                                              /lib/x86_64-linux-gnu/libc.so.6
dup2@@GLIBC_2.2.5                                 /lib/x86_64-linux-gnu/libc.so.6
dup2@GLIBC_2.2.5                                  /lib/x86_64-linux-gnu/libc.so.6
dup@@GLIBC_2.2.5                                  /lib/x86_64-linux-gnu/libc.so.6
dup@GLIBC_2.2.5                                   /lib/x86_64-linux-gnu/libc.so.6
duplocale                                         /lib/x86_64-linux-gnu/libc.so.6
duplocale@@GLIBC_2.3                              /lib/x86_64-linux-gnu/libc.so.6
duplocale@GLIBC_2.3                               /lib/x86_64-linux-gnu/libc.so.6
e1000_acquire_nvm_generic                         /home/vadim/projects/ipaugenblick/dpdk-1.6.0r2/x86_64-default-linuxapp-gcc/lib/librte_pmd_e1000.a(e1000_nvm.o)
                                                  /home/vadim/projects/ipaugenblick/dpdk-1.6.0r2/x86_64-default-linuxapp-gcc/lib/librte_pmd_e1000.a(e1000_82575.o)
                                                  /home/vadim/projects/ipaugenblick/dpdk-1.6.0r2/x86_64-default-linuxapp-gcc/lib/librte_pmd_e1000.a(e1000_82571.o)
                                                  /home/vadim/projects/ipaugenblick/dpdk-1.6.0r2/x86_64-default-linuxapp-gcc/lib/librte_pmd_e1000.a(e1000_82541.o)
                                                  /home/vadim/projects/ipaugenblick/dpdk-1.6.0r2/x86_64-default-linuxapp-gcc/lib/librte_pmd_e1000.a(e1000_82540.o)
                                                  /home/vadim/projects/ipaugenblick/dpdk-1.6.0r2/x86_64-default-linuxapp-gcc/lib/librte_pmd_e1000.a(e1000_80003es2lan.o)
e1000_acquire_phy                                 /home/vadim/projects/ipaugenblick/dpdk-1.6.0r2/x86_64-default-linuxapp-gcc/lib/librte_pmd_e1000.a(e1000_api.o)
e1000_acquire_swfw_sync_i210                      /home/vadim/projects/ipaugenblick/dpdk-1.6.0r2/x86_64-default-linuxapp-gcc/lib/librte_pmd_e1000.a(e1000_i210.o)
                                                  /home/vadim/projects/ipaugenblick/dpdk-1.6.0r2/x86_64-default-linuxapp-gcc/lib/librte_pmd_e1000.a(e1000_82575.o)
e1000_blink_led                                   /home/vadim/projects/ipaugenblick/dpdk-1.6.0r2/x86_64-default-linuxapp-gcc/lib/librte_pmd_e1000.a(e1000_api.o)
e1000_blink_led_generic                           /home/vadim/projects/ipaugenblick/dpdk-1.6.0r2/x86_64-default-linuxapp-gcc/lib/librte_pmd_e1000.a(e1000_mac.o)
                                                  /home/vadim/projects/ipaugenblick/dpdk-1.6.0r2/x86_64-default-linuxapp-gcc/lib/librte_pmd_e1000.a(e1000_ich8lan.o)
                                                  /home/vadim/projects/ipaugenblick/dpdk-1.6.0r2/x86_64-default-linuxapp-gcc/lib/librte_pmd_e1000.a(e1000_82575.o)
                                                  /home/vadim/projects/ipaugenblick/dpdk-1.6.0r2/x86_64-default-linuxapp-gcc/lib/librte_pmd_e1000.a(e1000_82571.o)
                                                  /home/vadim/projects/ipaugenblick/dpdk-1.6.0r2/x86_64-default-linuxapp-gcc/lib/librte_pmd_e1000.a(e1000_80003es2lan.o)
e1000_calculate_checksum                          /home/vadim/projects/ipaugenblick/dpdk-1.6.0r2/x86_64-default-linuxapp-gcc/lib/librte_pmd_e1000.a(e1000_manage.o)
e1000_cfg_on_link_up                              /home/vadim/projects/ipaugenblick/dpdk-1.6.0r2/x86_64-default-linuxapp-gcc/lib/librte_pmd_e1000.a(e1000_api.o)
e1000_check_alt_mac_addr_generic                  /home/vadim/projects/ipaugenblick/dpdk-1.6.0r2/x86_64-default-linuxapp-gcc/lib/librte_pmd_e1000.a(e1000_mac.o)
                                                  /home/vadim/projects/ipaugenblick/dpdk-1.6.0r2/x86_64-default-linuxapp-gcc/lib/librte_pmd_e1000.a(e1000_82575.o)
                                                  /home/vadim/projects/ipaugenblick/dpdk-1.6.0r2/x86_64-default-linuxapp-gcc/lib/librte_pmd_e1000.a(e1000_82571.o)
                                                  /home/vadim/projects/ipaugenblick/dpdk-1.6.0r2/x86_64-default-linuxapp-gcc/lib/librte_pmd_e1000.a(e1000_80003es2lan.o)
e1000_check_downshift_generic                     /home/vadim/projects/ipaugenblick/dpdk-1.6.0r2/x86_64-default-linuxapp-gcc/lib/librte_pmd_e1000.a(e1000_phy.o)
                                                  /home/vadim/projects/ipaugenblick/dpdk-1.6.0r2/x86_64-default-linuxapp-gcc/lib/librte_pmd_e1000.a(e1000_mac.o)
                                                  /home/vadim/projects/ipaugenblick/dpdk-1.6.0r2/x86_64-default-linuxapp-gcc/lib/librte_pmd_e1000.a(e1000_ich8lan.o)
                                                  /home/vadim/projects/ipaugenblick/dpdk-1.6.0r2/x86_64-default-linuxapp-gcc/lib/librte_pmd_e1000.a(e1000_82543.o)
                                                  /home/vadim/projects/ipaugenblick/dpdk-1.6.0r2/x86_64-default-linuxapp-gcc/lib/librte_pmd_e1000.a(e1000_82541.o)
e1000_check_for_ack                               /home/vadim/projects/ipaugenblick/dpdk-1.6.0r2/x86_64-default-linuxapp-gcc/lib/librte_pmd_e1000.a(e1000_mbx.o)
                                                  /home/vadim/projects/ipaugenblick/dpdk-1.6.0r2/x86_64-default-linuxapp-gcc/lib/librte_pmd_e1000.a(igb_pf.o)
e1000_check_for_copper_link_generic               /home/vadim/projects/ipaugenblick/dpdk-1.6.0r2/x86_64-default-linuxapp-gcc/lib/librte_pmd_e1000.a(e1000_mac.o)
                                                  /home/vadim/projects/ipaugenblick/dpdk-1.6.0r2/x86_64-default-linuxapp-gcc/lib/librte_pmd_e1000.a(e1000_82575.o)
                                                  /home/vadim/projects/ipaugenblick/dpdk-1.6.0r2/x86_64-default-linuxapp-gcc/lib/librte_pmd_e1000.a(e1000_82571.o)
                                                  /home/vadim/projects/ipaugenblick/dpdk-1.6.0r2/x86_64-default-linuxapp-gcc/lib/librte_pmd_e1000.a(e1000_82540.o)
                                                  /home/vadim/projects/ipaugenblick/dpdk-1.6.0r2/x86_64-default-linuxapp-gcc/lib/librte_pmd_e1000.a(e1000_80003es2lan.o)
e1000_check_for_fiber_link_generic                /home/vadim/projects/ipaugenblick/dpdk-1.6.0r2/x86_64-default-linuxapp-gcc/lib/librte_pmd_e1000.a(e1000_mac.o)
                                                  /home/vadim/projects/ipaugenblick/dpdk-1.6.0r2/x86_64-default-linuxapp-gcc/lib/librte_pmd_e1000.a(e1000_82571.o)
                                                  /home/vadim/projects/ipaugenblick/dpdk-1.6.0r2/x86_64-default-linuxapp-gcc/lib/librte_pmd_e1000.a(e1000_82542.o)
                                                  /home/vadim/projects/ipaugenblick/dpdk-1.6.0r2/x86_64-default-linuxapp-gcc/lib/librte_pmd_e1000.a(e1000_82540.o)
e1000_check_for_link                              /home/vadim/projects/ipaugenblick/dpdk-1.6.0r2/x86_64-default-linuxapp-gcc/lib/librte_pmd_e1000.a(e1000_api.o)
                                                  /home/vadim/projects/ipaugenblick/dpdk-1.6.0r2/x86_64-default-linuxapp-gcc/lib/librte_pmd_e1000.a(em_ethdev.o)
                                                  /home/vadim/projects/ipaugenblick/dpdk-1.6.0r2/x86_64-default-linuxapp-gcc/lib/librte_pmd_e1000.a(igb_ethdev.o)
e1000_check_for_msg                               /home/vadim/projects/ipaugenblick/dpdk-1.6.0r2/x86_64-default-linuxapp-gcc/lib/librte_pmd_e1000.a(e1000_mbx.o)
                                                  /home/vadim/projects/ipaugenblick/dpdk-1.6.0r2/x86_64-default-linuxapp-gcc/lib/librte_pmd_e1000.a(igb_pf.o)
e1000_check_for_rst                               /home/vadim/projects/ipaugenblick/dpdk-1.6.0r2/x86_64-default-linuxapp-gcc/lib/librte_pmd_e1000.a(e1000_mbx.o)
                                                  /home/vadim/projects/ipaugenblick/dpdk-1.6.0r2/x86_64-default-linuxapp-gcc/lib/librte_pmd_e1000.a(igb_pf.o)
                                                  /home/vadim/projects/ipaugenblick/dpdk-1.6.0r2/x86_64-default-linuxapp-gcc/lib/librte_pmd_e1000.a(igb_ethdev.o)
e1000_check_for_serdes_link_generic               /home/vadim/projects/ipaugenblick/dpdk-1.6.0r2/x86_64-default-linuxapp-gcc/lib/librte_pmd_e1000.a(e1000_mac.o)
                                                  /home/vadim/projects/ipaugenblick/dpdk-1.6.0r2/x86_64-default-linuxapp-gcc/lib/librte_pmd_e1000.a(e1000_82540.o)
                                                  /home/vadim/projects/ipaugenblick/dpdk-1.6.0r2/x86_64-default-linuxapp-gcc/lib/librte_pmd_e1000.a(e1000_80003es2lan.o)
e1000_check_mng_mode                              /home/vadim/projects/ipaugenblick/dpdk-1.6.0r2/x86_64-default-linuxapp-gcc/lib/librte_pmd_e1000.a(e1000_api.o)
e1000_check_mng_mode_generic                      /home/vadim/projects/ipaugenblick/dpdk-1.6.0r2/x86_64-default-linuxapp-gcc/lib/librte_pmd_e1000.a(e1000_manage.o)
                                                  /home/vadim/projects/ipaugenblick/dpdk-1.6.0r2/x86_64-default-linuxapp-gcc/lib/librte_pmd_e1000.a(e1000_82571.o)
                                                  /home/vadim/projects/ipaugenblick/dpdk-1.6.0r2/x86_64-default-linuxapp-gcc/lib/librte_pmd_e1000.a(e1000_80003es2lan.o)
e1000_check_phy_82574                             /home/vadim/projects/ipaugenblick/dpdk-1.6.0r2/x86_64-default-linuxapp-gcc/lib/librte_pmd_e1000.a(e1000_82571.o)
e1000_check_polarity_82577                        /home/vadim/projects/ipaugenblick/dpdk-1.6.0r2/x86_64-default-linuxapp-gcc/lib/librte_pmd_e1000.a(e1000_phy.o)
                                                  /home/vadim/projects/ipaugenblick/dpdk-1.6.0r2/x86_64-default-linuxapp-gcc/lib/librte_pmd_e1000.a(e1000_ich8lan.o)
                                                  /home/vadim/projects/ipaugenblick/dpdk-1.6.0r2/x86_64-default-linuxapp-gcc/lib/librte_pmd_e1000.a(e1000_82575.o)
e1000_check_polarity_ife                          /home/vadim/projects/ipaugenblick/dpdk-1.6.0r2/x86_64-default-linuxapp-gcc/lib/librte_pmd_e1000.a(e1000_phy.o)
                                                  /home/vadim/projects/ipaugenblick/dpdk-1.6.0r2/x86_64-default-linuxapp-gcc/lib/librte_pmd_e1000.a(e1000_ich8lan.o)
e1000_check_polarity_igp                          /home/vadim/projects/ipaugenblick/dpdk-1.6.0r2/x86_64-default-linuxapp-gcc/lib/librte_pmd_e1000.a(e1000_phy.o)
                                                  /home/vadim/projects/ipaugenblick/dpdk-1.6.0r2/x86_64-default-linuxapp-gcc/lib/librte_pmd_e1000.a(e1000_ich8lan.o)
                                                  /home/vadim/projects/ipaugenblick/dpdk-1.6.0r2/x86_64-default-linuxapp-gcc/lib/librte_pmd_e1000.a(e1000_82575.o)
                                                  /home/vadim/projects/ipaugenblick/dpdk-1.6.0r2/x86_64-default-linuxapp-gcc/lib/librte_pmd_e1000.a(e1000_82571.o)
                                                  /home/vadim/projects/ipaugenblick/dpdk-1.6.0r2/x86_64-default-linuxapp-gcc/lib/librte_pmd_e1000.a(e1000_82541.o)
e1000_check_polarity_m88                          /home/vadim/projects/ipaugenblick/dpdk-1.6.0r2/x86_64-default-linuxapp-gcc/lib/librte_pmd_e1000.a(e1000_phy.o)
                                                  /home/vadim/projects/ipaugenblick/dpdk-1.6.0r2/x86_64-default-linuxapp-gcc/lib/librte_pmd_e1000.a(e1000_ich8lan.o)
                                                  /home/vadim/projects/ipaugenblick/dpdk-1.6.0r2/x86_64-default-linuxapp-gcc/lib/librte_pmd_e1000.a(e1000_82575.o)
                                                  /home/vadim/projects/ipaugenblick/dpdk-1.6.0r2/x86_64-default-linuxapp-gcc/lib/librte_pmd_e1000.a(e1000_82571.o)
                                                  /home/vadim/projects/ipaugenblick/dpdk-1.6.0r2/x86_64-default-linuxapp-gcc/lib/librte_pmd_e1000.a(e1000_82543.o)
                                                  /home/vadim/projects/ipaugenblick/dpdk-1.6.0r2/x86_64-default-linuxapp-gcc/lib/librte_pmd_e1000.a(e1000_82540.o)
                                                  /home/vadim/projects/ipaugenblick/dpdk-1.6.0r2/x86_64-default-linuxapp-gcc/lib/librte_pmd_e1000.a(e1000_80003es2lan.o)
e1000_check_reset_block                           /home/vadim/projects/ipaugenblick/dpdk-1.6.0r2/x86_64-default-linuxapp-gcc/lib/librte_pmd_e1000.a(e1000_api.o)
                                                  /home/vadim/projects/ipaugenblick/dpdk-1.6.0r2/x86_64-default-linuxapp-gcc/lib/librte_pmd_e1000.a(em_ethdev.o)
                                                  /home/vadim/projects/ipaugenblick/dpdk-1.6.0r2/x86_64-default-linuxapp-gcc/lib/librte_pmd_e1000.a(igb_ethdev.o)
e1000_check_reset_block_generic                   /home/vadim/projects/ipaugenblick/dpdk-1.6.0r2/x86_64-default-linuxapp-gcc/lib/librte_pmd_e1000.a(e1000_phy.o)
                                                  /home/vadim/projects/ipaugenblick/dpdk-1.6.0r2/x86_64-default-linuxapp-gcc/lib/librte_pmd_e1000.a(e1000_82575.o)
                                                  /home/vadim/projects/ipaugenblick/dpdk-1.6.0r2/x86_64-default-linuxapp-gcc/lib/librte_pmd_e1000.a(e1000_82571.o)
                                                  /home/vadim/projects/ipaugenblick/dpdk-1.6.0r2/x86_64-default-linuxapp-gcc/lib/librte_pmd_e1000.a(e1000_80003es2lan.o)
e1000_cleanup_led                                 /home/vadim/projects/ipaugenblick/dpdk-1.6.0r2/x86_64-default-linuxapp-gcc/lib/librte_pmd_e1000.a(e1000_api.o)
e1000_cleanup_led_generic                         /home/vadim/projects/ipaugenblick/dpdk-1.6.0r2/x86_64-default-linuxapp-gcc/lib/librte_pmd_e1000.a(e1000_mac.o)
                                                  /home/vadim/projects/ipaugenblick/dpdk-1.6.0r2/x86_64-default-linuxapp-gcc/lib/librte_pmd_e1000.a(e1000_82575.o)
                                                  /home/vadim/projects/ipaugenblick/dpdk-1.6.0r2/x86_64-default-linuxapp-gcc/lib/librte_pmd_e1000.a(e1000_82571.o)
                                                  /home/vadim/projects/ipaugenblick/dpdk-1.6.0r2/x86_64-default-linuxapp-gcc/lib/librte_pmd_e1000.a(e1000_82540.o)
                                                  /home/vadim/projects/ipaugenblick/dpdk-1.6.0r2/x86_64-default-linuxapp-gcc/lib/librte_pmd_e1000.a(e1000_80003es2lan.o)
e1000_clear_hw_cntrs_base_generic                 /home/vadim/projects/ipaugenblick/dpdk-1.6.0r2/x86_64-default-linuxapp-gcc/lib/librte_pmd_e1000.a(e1000_mac.o)
                                                  /home/vadim/projects/ipaugenblick/dpdk-1.6.0r2/x86_64-default-linuxapp-gcc/lib/librte_pmd_e1000.a(em_ethdev.o)
                                                  /home/vadim/projects/ipaugenblick/dpdk-1.6.0r2/x86_64-default-linuxapp-gcc/lib/librte_pmd_e1000.a(igb_ethdev.o)
                                                  /home/vadim/projects/ipaugenblick/dpdk-1.6.0r2/x86_64-default-linuxapp-gcc/lib/librte_pmd_e1000.a(e1000_ich8lan.o)
                                                  /home/vadim/projects/ipaugenblick/dpdk-1.6.0r2/x86_64-default-linuxapp-gcc/lib/librte_pmd_e1000.a(e1000_82575.o)
                                                  /home/vadim/projects/ipaugenblick/dpdk-1.6.0r2/x86_64-default-linuxapp-gcc/lib/librte_pmd_e1000.a(e1000_82571.o)
                                                  /home/vadim/projects/ipaugenblick/dpdk-1.6.0r2/x86_64-default-linuxapp-gcc/lib/librte_pmd_e1000.a(e1000_82543.o)
                                                  /home/vadim/projects/ipaugenblick/dpdk-1.6.0r2/x86_64-default-linuxapp-gcc/lib/librte_pmd_e1000.a(e1000_82542.o)
                                                  /home/vadim/projects/ipaugenblick/dpdk-1.6.0r2/x86_64-default-linuxapp-gcc/lib/librte_pmd_e1000.a(e1000_82541.o)
                                                  /home/vadim/projects/ipaugenblick/dpdk-1.6.0r2/x86_64-default-linuxapp-gcc/lib/librte_pmd_e1000.a(e1000_82540.o)
                                                  /home/vadim/projects/ipaugenblick/dpdk-1.6.0r2/x86_64-default-linuxapp-gcc/lib/librte_pmd_e1000.a(e1000_80003es2lan.o)
e1000_clear_vfta                                  /home/vadim/projects/ipaugenblick/dpdk-1.6.0r2/x86_64-default-linuxapp-gcc/lib/librte_pmd_e1000.a(e1000_api.o)
e1000_clear_vfta_generic                          /home/vadim/projects/ipaugenblick/dpdk-1.6.0r2/x86_64-default-linuxapp-gcc/lib/librte_pmd_e1000.a(e1000_mac.o)
                                                  /home/vadim/projects/ipaugenblick/dpdk-1.6.0r2/x86_64-default-linuxapp-gcc/lib/librte_pmd_e1000.a(e1000_82575.o)
                                                  /home/vadim/projects/ipaugenblick/dpdk-1.6.0r2/x86_64-default-linuxapp-gcc/lib/librte_pmd_e1000.a(e1000_82543.o)
                                                  /home/vadim/projects/ipaugenblick/dpdk-1.6.0r2/x86_64-default-linuxapp-gcc/lib/librte_pmd_e1000.a(e1000_82542.o)
                                                  /home/vadim/projects/ipaugenblick/dpdk-1.6.0r2/x86_64-default-linuxapp-gcc/lib/librte_pmd_e1000.a(e1000_82541.o)
                                                  /home/vadim/projects/ipaugenblick/dpdk-1.6.0r2/x86_64-default-linuxapp-gcc/lib/librte_pmd_e1000.a(e1000_82540.o)
                                                  /home/vadim/projects/ipaugenblick/dpdk-1.6.0r2/x86_64-default-linuxapp-gcc/lib/librte_pmd_e1000.a(e1000_80003es2lan.o)
e1000_commit_fc_settings_generic                  /home/vadim/projects/ipaugenblick/dpdk-1.6.0r2/x86_64-default-linuxapp-gcc/lib/librte_pmd_e1000.a(e1000_mac.o)
                                                  /home/vadim/projects/ipaugenblick/dpdk-1.6.0r2/x86_64-default-linuxapp-gcc/lib/librte_pmd_e1000.a(e1000_82543.o)
e1000_config_collision_dist                       /home/vadim/projects/ipaugenblick/dpdk-1.6.0r2/x86_64-default-linuxapp-gcc/lib/librte_pmd_e1000.a(e1000_api.o)
                                                  /home/vadim/projects/ipaugenblick/dpdk-1.6.0r2/x86_64-default-linuxapp-gcc/lib/librte_pmd_e1000.a(igb_rxtx.o)
e1000_config_fc_after_link_up_generic             /home/vadim/projects/ipaugenblick/dpdk-1.6.0r2/x86_64-default-linuxapp-gcc/lib/librte_pmd_e1000.a(e1000_mac.o)
                                                  /home/vadim/projects/ipaugenblick/dpdk-1.6.0r2/x86_64-default-linuxapp-gcc/lib/librte_pmd_e1000.a(e1000_phy.o)
                                                  /home/vadim/projects/ipaugenblick/dpdk-1.6.0r2/x86_64-default-linuxapp-gcc/lib/librte_pmd_e1000.a(e1000_ich8lan.o)
                                                  /home/vadim/projects/ipaugenblick/dpdk-1.6.0r2/x86_64-default-linuxapp-gcc/lib/librte_pmd_e1000.a(e1000_82575.o)
                                                  /home/vadim/projects/ipaugenblick/dpdk-1.6.0r2/x86_64-default-linuxapp-gcc/lib/librte_pmd_e1000.a(e1000_82571.o)
                                                  /home/vadim/projects/ipaugenblick/dpdk-1.6.0r2/x86_64-default-linuxapp-gcc/lib/librte_pmd_e1000.a(e1000_82543.o)
                                                  /home/vadim/projects/ipaugenblick/dpdk-1.6.0r2/x86_64-default-linuxapp-gcc/lib/librte_pmd_e1000.a(e1000_82541.o)
e1000_configure_k1_ich8lan                        /home/vadim/projects/ipaugenblick/dpdk-1.6.0r2/x86_64-default-linuxapp-gcc/lib/librte_pmd_e1000.a(e1000_ich8lan.o)
e1000_copper_link_autoneg                         /home/vadim/projects/ipaugenblick/dpdk-1.6.0r2/x86_64-default-linuxapp-gcc/lib/librte_pmd_e1000.a(e1000_phy.o)
                                                  /home/vadim/projects/ipaugenblick/dpdk-1.6.0r2/x86_64-default-linuxapp-gcc/lib/librte_pmd_e1000.a(e1000_82543.o)
e1000_copper_link_setup_82577                     /home/vadim/projects/ipaugenblick/dpdk-1.6.0r2/x86_64-default-linuxapp-gcc/lib/librte_pmd_e1000.a(e1000_phy.o)
                                                  /home/vadim/projects/ipaugenblick/dpdk-1.6.0r2/x86_64-default-linuxapp-gcc/lib/librte_pmd_e1000.a(e1000_ich8lan.o)
                                                  /home/vadim/projects/ipaugenblick/dpdk-1.6.0r2/x86_64-default-linuxapp-gcc/lib/librte_pmd_e1000.a(e1000_82575.o)
e1000_copper_link_setup_igp                       /home/vadim/projects/ipaugenblick/dpdk-1.6.0r2/x86_64-default-linuxapp-gcc/lib/librte_pmd_e1000.a(e1000_phy.o)
                                                  /home/vadim/projects/ipaugenblick/dpdk-1.6.0r2/x86_64-default-linuxapp-gcc/lib/librte_pmd_e1000.a(e1000_ich8lan.o)
                                                  /home/vadim/projects/ipaugenblick/dpdk-1.6.0r2/x86_64-default-linuxapp-gcc/lib/librte_pmd_e1000.a(e1000_82575.o)
                                                  /home/vadim/projects/ipaugenblick/dpdk-1.6.0r2/x86_64-default-linuxapp-gcc/lib/librte_pmd_e1000.a(e1000_82571.o)
                                                  /home/vadim/projects/ipaugenblick/dpdk-1.6.0r2/x86_64-default-linuxapp-gcc/lib/librte_pmd_e1000.a(e1000_82541.o)
e1000_copper_link_setup_m88                       /home/vadim/projects/ipaugenblick/dpdk-1.6.0r2/x86_64-default-linuxapp-gcc/lib/librte_pmd_e1000.a(e1000_phy.o)
                                                  /home/vadim/projects/ipaugenblick/dpdk-1.6.0r2/x86_64-default-linuxapp-gcc/lib/librte_pmd_e1000.a(e1000_ich8lan.o)
                                                  /home/vadim/projects/ipaugenblick/dpdk-1.6.0r2/x86_64-default-linuxapp-gcc/lib/librte_pmd_e1000.a(e1000_82575.o)
                                                  /home/vadim/projects/ipaugenblick/dpdk-1.6.0r2/x86_64-default-linuxapp-gcc/lib/librte_pmd_e1000.a(e1000_82571.o)
                                                  /home/vadim/projects/ipaugenblick/dpdk-1.6.0r2/x86_64-default-linuxapp-gcc/lib/librte_pmd_e1000.a(e1000_82543.o)
                                                  /home/vadim/projects/ipaugenblick/dpdk-1.6.0r2/x86_64-default-linuxapp-gcc/lib/librte_pmd_e1000.a(e1000_82540.o)
e1000_copper_link_setup_m88_gen2                  /home/vadim/projects/ipaugenblick/dpdk-1.6.0r2/x86_64-default-linuxapp-gcc/lib/librte_pmd_e1000.a(e1000_phy.o)
                                                  /home/vadim/projects/ipaugenblick/dpdk-1.6.0r2/x86_64-default-linuxapp-gcc/lib/librte_pmd_e1000.a(e1000_82575.o)
e1000_copy_rx_addrs_to_phy_ich8lan                /home/vadim/projects/ipaugenblick/dpdk-1.6.0r2/x86_64-default-linuxapp-gcc/lib/librte_pmd_e1000.a(e1000_ich8lan.o)
e1000_determine_phy_address                       /home/vadim/projects/ipaugenblick/dpdk-1.6.0r2/x86_64-default-linuxapp-gcc/lib/librte_pmd_e1000.a(e1000_phy.o)
                                                  /home/vadim/projects/ipaugenblick/dpdk-1.6.0r2/x86_64-default-linuxapp-gcc/lib/librte_pmd_e1000.a(e1000_ich8lan.o)
e1000_disable_pcie_master                         /home/vadim/projects/ipaugenblick/dpdk-1.6.0r2/x86_64-default-linuxapp-gcc/lib/librte_pmd_e1000.a(e1000_api.o)
e1000_disable_pcie_master_generic                 /home/vadim/projects/ipaugenblick/dpdk-1.6.0r2/x86_64-default-linuxapp-gcc/lib/librte_pmd_e1000.a(e1000_mac.o)
                                                  /home/vadim/projects/ipaugenblick/dpdk-1.6.0r2/x86_64-default-linuxapp-gcc/lib/librte_pmd_e1000.a(e1000_ich8lan.o)
                                                  /home/vadim/projects/ipaugenblick/dpdk-1.6.0r2/x86_64-default-linuxapp-gcc/lib/librte_pmd_e1000.a(e1000_api.o)
                                                  /home/vadim/projects/ipaugenblick/dpdk-1.6.0r2/x86_64-default-linuxapp-gcc/lib/librte_pmd_e1000.a(e1000_82575.o)
                                                  /home/vadim/projects/ipaugenblick/dpdk-1.6.0r2/x86_64-default-linuxapp-gcc/lib/librte_pmd_e1000.a(e1000_82571.o)
                                                  /home/vadim/projects/ipaugenblick/dpdk-1.6.0r2/x86_64-default-linuxapp-gcc/lib/librte_pmd_e1000.a(e1000_80003es2lan.o)
e1000_disable_phy_wakeup_reg_access_bm            /home/vadim/projects/ipaugenblick/dpdk-1.6.0r2/x86_64-default-linuxapp-gcc/lib/librte_pmd_e1000.a(e1000_phy.o)
                                                  /home/vadim/projects/ipaugenblick/dpdk-1.6.0r2/x86_64-default-linuxapp-gcc/lib/librte_pmd_e1000.a(e1000_ich8lan.o)
e1000_disable_ulp_lpt_lp                          /home/vadim/projects/ipaugenblick/dpdk-1.6.0r2/x86_64-default-linuxapp-gcc/lib/librte_pmd_e1000.a(e1000_ich8lan.o)
e1000_enable_mng_pass_thru                        /home/vadim/projects/ipaugenblick/dpdk-1.6.0r2/x86_64-default-linuxapp-gcc/lib/librte_pmd_e1000.a(e1000_manage.o)
                                                  /home/vadim/projects/ipaugenblick/dpdk-1.6.0r2/x86_64-default-linuxapp-gcc/lib/librte_pmd_e1000.a(em_ethdev.o)
                                                  /home/vadim/projects/ipaugenblick/dpdk-1.6.0r2/x86_64-default-linuxapp-gcc/lib/librte_pmd_e1000.a(igb_ethdev.o)
                                                  /home/vadim/projects/ipaugenblick/dpdk-1.6.0r2/x86_64-default-linuxapp-gcc/lib/librte_pmd_e1000.a(e1000_82575.o)
e1000_enable_phy_wakeup_reg_access_bm             /home/vadim/projects/ipaugenblick/dpdk-1.6.0r2/x86_64-default-linuxapp-gcc/lib/librte_pmd_e1000.a(e1000_phy.o)
                                                  /home/vadim/projects/ipaugenblick/dpdk-1.6.0r2/x86_64-default-linuxapp-gcc/lib/librte_pmd_e1000.a(e1000_ich8lan.o)
e1000_enable_tx_pkt_filtering                     /home/vadim/projects/ipaugenblick/dpdk-1.6.0r2/x86_64-default-linuxapp-gcc/lib/librte_pmd_e1000.a(e1000_api.o)
e1000_enable_tx_pkt_filtering_generic             /home/vadim/projects/ipaugenblick/dpdk-1.6.0r2/x86_64-default-linuxapp-gcc/lib/librte_pmd_e1000.a(e1000_manage.o)
                                                  /home/vadim/projects/ipaugenblick/dpdk-1.6.0r2/x86_64-default-linuxapp-gcc/lib/librte_pmd_e1000.a(e1000_api.o)
                                                  /home/vadim/projects/ipaugenblick/dpdk-1.6.0r2/x86_64-default-linuxapp-gcc/lib/librte_pmd_e1000.a(e1000_82571.o)
e1000_enable_ulp_lpt_lp                           /home/vadim/projects/ipaugenblick/dpdk-1.6.0r2/x86_64-default-linuxapp-gcc/lib/librte_pmd_e1000.a(e1000_ich8lan.o)
e1000_force_mac_fc                                /home/vadim/projects/ipaugenblick/dpdk-1.6.0r2/x86_64-default-linuxapp-gcc/lib/librte_pmd_e1000.a(e1000_api.o)
e1000_force_mac_fc_generic                        /home/vadim/projects/ipaugenblick/dpdk-1.6.0r2/x86_64-default-linuxapp-gcc/lib/librte_pmd_e1000.a(e1000_mac.o)
                                                  /home/vadim/projects/ipaugenblick/dpdk-1.6.0r2/x86_64-default-linuxapp-gcc/lib/librte_pmd_e1000.a(e1000_api.o)
                                                  /home/vadim/projects/ipaugenblick/dpdk-1.6.0r2/x86_64-default-linuxapp-gcc/lib/librte_pmd_e1000.a(e1000_82575.o)
e1000_get_auto_rd_done_generic                    /home/vadim/projects/ipaugenblick/dpdk-1.6.0r2/x86_64-default-linuxapp-gcc/lib/librte_pmd_e1000.a(e1000_mac.o)
                                                  /home/vadim/projects/ipaugenblick/dpdk-1.6.0r2/x86_64-default-linuxapp-gcc/lib/librte_pmd_e1000.a(e1000_ich8lan.o)
                                                  /home/vadim/projects/ipaugenblick/dpdk-1.6.0r2/x86_64-default-linuxapp-gcc/lib/librte_pmd_e1000.a(e1000_82575.o)
                                                  /home/vadim/projects/ipaugenblick/dpdk-1.6.0r2/x86_64-default-linuxapp-gcc/lib/librte_pmd_e1000.a(e1000_82571.o)
                                                  /home/vadim/projects/ipaugenblick/dpdk-1.6.0r2/x86_64-default-linuxapp-gcc/lib/librte_pmd_e1000.a(e1000_80003es2lan.o)
e1000_get_bus_info                                /home/vadim/projects/ipaugenblick/dpdk-1.6.0r2/x86_64-default-linuxapp-gcc/lib/librte_pmd_e1000.a(e1000_api.o)
                                                  /home/vadim/projects/ipaugenblick/dpdk-1.6.0r2/x86_64-default-linuxapp-gcc/lib/librte_pmd_e1000.a(em_ethdev.o)
                                                  /home/vadim/projects/ipaugenblick/dpdk-1.6.0r2/x86_64-default-linuxapp-gcc/lib/librte_pmd_e1000.a(igb_ethdev.o)
e1000_get_bus_info_pci_generic                    /home/vadim/projects/ipaugenblick/dpdk-1.6.0r2/x86_64-default-linuxapp-gcc/lib/librte_pmd_e1000.a(e1000_mac.o)
                                                  /home/vadim/projects/ipaugenblick/dpdk-1.6.0r2/x86_64-default-linuxapp-gcc/lib/librte_pmd_e1000.a(e1000_82543.o)
                                                  /home/vadim/projects/ipaugenblick/dpdk-1.6.0r2/x86_64-default-linuxapp-gcc/lib/librte_pmd_e1000.a(e1000_82541.o)
                                                  /home/vadim/projects/ipaugenblick/dpdk-1.6.0r2/x86_64-default-linuxapp-gcc/lib/librte_pmd_e1000.a(e1000_82540.o)
e1000_get_bus_info_pcie_generic                   /home/vadim/projects/ipaugenblick/dpdk-1.6.0r2/x86_64-default-linuxapp-gcc/lib/librte_pmd_e1000.a(e1000_mac.o)
                                                  /home/vadim/projects/ipaugenblick/dpdk-1.6.0r2/x86_64-default-linuxapp-gcc/lib/librte_pmd_e1000.a(e1000_ich8lan.o)
                                                  /home/vadim/projects/ipaugenblick/dpdk-1.6.0r2/x86_64-default-linuxapp-gcc/lib/librte_pmd_e1000.a(e1000_82575.o)
                                                  /home/vadim/projects/ipaugenblick/dpdk-1.6.0r2/x86_64-default-linuxapp-gcc/lib/librte_pmd_e1000.a(e1000_82571.o)
                                                  /home/vadim/projects/ipaugenblick/dpdk-1.6.0r2/x86_64-default-linuxapp-gcc/lib/librte_pmd_e1000.a(e1000_80003es2lan.o)
e1000_get_cable_length                            /home/vadim/projects/ipaugenblick/dpdk-1.6.0r2/x86_64-default-linuxapp-gcc/lib/librte_pmd_e1000.a(e1000_api.o)
e1000_get_cable_length_82577                      /home/vadim/projects/ipaugenblick/dpdk-1.6.0r2/x86_64-default-linuxapp-gcc/lib/librte_pmd_e1000.a(e1000_phy.o)
                                                  /home/vadim/projects/ipaugenblick/dpdk-1.6.0r2/x86_64-default-linuxapp-gcc/lib/librte_pmd_e1000.a(e1000_ich8lan.o)
                                                  /home/vadim/projects/ipaugenblick/dpdk-1.6.0r2/x86_64-default-linuxapp-gcc/lib/librte_pmd_e1000.a(e1000_82575.o)
e1000_get_cable_length_igp_2                      /home/vadim/projects/ipaugenblick/dpdk-1.6.0r2/x86_64-default-linuxapp-gcc/lib/librte_pmd_e1000.a(e1000_phy.o)
                                                  /home/vadim/projects/ipaugenblick/dpdk-1.6.0r2/x86_64-default-linuxapp-gcc/lib/librte_pmd_e1000.a(e1000_ich8lan.o)
                                                  /home/vadim/projects/ipaugenblick/dpdk-1.6.0r2/x86_64-default-linuxapp-gcc/lib/librte_pmd_e1000.a(e1000_82575.o)
                                                  /home/vadim/projects/ipaugenblick/dpdk-1.6.0r2/x86_64-default-linuxapp-gcc/lib/librte_pmd_e1000.a(e1000_82571.o)
e1000_get_cable_length_m88                        /home/vadim/projects/ipaugenblick/dpdk-1.6.0r2/x86_64-default-linuxapp-gcc/lib/librte_pmd_e1000.a(e1000_phy.o)
                                                  /home/vadim/projects/ipaugenblick/dpdk-1.6.0r2/x86_64-default-linuxapp-gcc/lib/librte_pmd_e1000.a(e1000_ich8lan.o)
                                                  /home/vadim/projects/ipaugenblick/dpdk-1.6.0r2/x86_64-default-linuxapp-gcc/lib/librte_pmd_e1000.a(e1000_82575.o)
                                                  /home/vadim/projects/ipaugenblick/dpdk-1.6.0r2/x86_64-default-linuxapp-gcc/lib/librte_pmd_e1000.a(e1000_82571.o)
                                                  /home/vadim/projects/ipaugenblick/dpdk-1.6.0r2/x86_64-default-linuxapp-gcc/lib/librte_pmd_e1000.a(e1000_82543.o)
                                                  /home/vadim/projects/ipaugenblick/dpdk-1.6.0r2/x86_64-default-linuxapp-gcc/lib/librte_pmd_e1000.a(e1000_82540.o)
e1000_get_cable_length_m88_gen2                   /home/vadim/projects/ipaugenblick/dpdk-1.6.0r2/x86_64-default-linuxapp-gcc/lib/librte_pmd_e1000.a(e1000_phy.o)
                                                  /home/vadim/projects/ipaugenblick/dpdk-1.6.0r2/x86_64-default-linuxapp-gcc/lib/librte_pmd_e1000.a(e1000_82575.o)
e1000_get_cfg_done_generic                        /home/vadim/projects/ipaugenblick/dpdk-1.6.0r2/x86_64-default-linuxapp-gcc/lib/librte_pmd_e1000.a(e1000_phy.o)
                                                  /home/vadim/projects/ipaugenblick/dpdk-1.6.0r2/x86_64-default-linuxapp-gcc/lib/librte_pmd_e1000.a(e1000_ich8lan.o)
                                                  /home/vadim/projects/ipaugenblick/dpdk-1.6.0r2/x86_64-default-linuxapp-gcc/lib/librte_pmd_e1000.a(e1000_82571.o)
                                                  /home/vadim/projects/ipaugenblick/dpdk-1.6.0r2/x86_64-default-linuxapp-gcc/lib/librte_pmd_e1000.a(e1000_82543.o)
                                                  /home/vadim/projects/ipaugenblick/dpdk-1.6.0r2/x86_64-default-linuxapp-gcc/lib/librte_pmd_e1000.a(e1000_82541.o)
                                                  /home/vadim/projects/ipaugenblick/dpdk-1.6.0r2/x86_64-default-linuxapp-gcc/lib/librte_pmd_e1000.a(e1000_82540.o)
e1000_get_eee_status_i354                         /home/vadim/projects/ipaugenblick/dpdk-1.6.0r2/x86_64-default-linuxapp-gcc/lib/librte_pmd_e1000.a(e1000_82575.o)
e1000_get_flash_presence_i210                     /home/vadim/projects/ipaugenblick/dpdk-1.6.0r2/x86_64-default-linuxapp-gcc/lib/librte_pmd_e1000.a(e1000_i210.o)
                                                  /home/vadim/projects/ipaugenblick/dpdk-1.6.0r2/x86_64-default-linuxapp-gcc/lib/librte_pmd_e1000.a(e1000_nvm.o)
e1000_get_fw_version                              /home/vadim/projects/ipaugenblick/dpdk-1.6.0r2/x86_64-default-linuxapp-gcc/lib/librte_pmd_e1000.a(e1000_nvm.o)
e1000_get_hw_semaphore_generic                    /home/vadim/projects/ipaugenblick/dpdk-1.6.0r2/x86_64-default-linuxapp-gcc/lib/librte_pmd_e1000.a(e1000_mac.o)
                                                  /home/vadim/projects/ipaugenblick/dpdk-1.6.0r2/x86_64-default-linuxapp-gcc/lib/librte_pmd_e1000.a(igb_ethdev.o)
                                                  /home/vadim/projects/ipaugenblick/dpdk-1.6.0r2/x86_64-default-linuxapp-gcc/lib/librte_pmd_e1000.a(e1000_82575.o)
                                                  /home/vadim/projects/ipaugenblick/dpdk-1.6.0r2/x86_64-default-linuxapp-gcc/lib/librte_pmd_e1000.a(e1000_80003es2lan.o)
e1000_get_laa_state_82571                         /home/vadim/projects/ipaugenblick/dpdk-1.6.0r2/x86_64-default-linuxapp-gcc/lib/librte_pmd_e1000.a(e1000_82571.o)
e1000_get_pba_block_size                          /home/vadim/projects/ipaugenblick/dpdk-1.6.0r2/x86_64-default-linuxapp-gcc/lib/librte_pmd_e1000.a(e1000_nvm.o)
e1000_get_phy_id                                  /home/vadim/projects/ipaugenblick/dpdk-1.6.0r2/x86_64-default-linuxapp-gcc/lib/librte_pmd_e1000.a(e1000_phy.o)
                                                  /home/vadim/projects/ipaugenblick/dpdk-1.6.0r2/x86_64-default-linuxapp-gcc/lib/librte_pmd_e1000.a(e1000_ich8lan.o)
                                                  /home/vadim/projects/ipaugenblick/dpdk-1.6.0r2/x86_64-default-linuxapp-gcc/lib/librte_pmd_e1000.a(e1000_82575.o)
                                                  /home/vadim/projects/ipaugenblick/dpdk-1.6.0r2/x86_64-default-linuxapp-gcc/lib/librte_pmd_e1000.a(e1000_82571.o)
                                                  /home/vadim/projects/ipaugenblick/dpdk-1.6.0r2/x86_64-default-linuxapp-gcc/lib/librte_pmd_e1000.a(e1000_82543.o)
                                                  /home/vadim/projects/ipaugenblick/dpdk-1.6.0r2/x86_64-default-linuxapp-gcc/lib/librte_pmd_e1000.a(e1000_82541.o)
                                                  /home/vadim/projects/ipaugenblick/dpdk-1.6.0r2/x86_64-default-linuxapp-gcc/lib/librte_pmd_e1000.a(e1000_82540.o)
                                                  /home/vadim/projects/ipaugenblick/dpdk-1.6.0r2/x86_64-default-linuxapp-gcc/lib/librte_pmd_e1000.a(e1000_80003es2lan.o)
e1000_get_phy_info                                /home/vadim/projects/ipaugenblick/dpdk-1.6.0r2/x86_64-default-linuxapp-gcc/lib/librte_pmd_e1000.a(e1000_api.o)
                                                  /home/vadim/projects/ipaugenblick/dpdk-1.6.0r2/x86_64-default-linuxapp-gcc/lib/librte_pmd_e1000.a(igb_ethdev.o)
e1000_get_phy_info_82577                          /home/vadim/projects/ipaugenblick/dpdk-1.6.0r2/x86_64-default-linuxapp-gcc/lib/librte_pmd_e1000.a(e1000_phy.o)
                                                  /home/vadim/projects/ipaugenblick/dpdk-1.6.0r2/x86_64-default-linuxapp-gcc/lib/librte_pmd_e1000.a(e1000_ich8lan.o)
                                                  /home/vadim/projects/ipaugenblick/dpdk-1.6.0r2/x86_64-default-linuxapp-gcc/lib/librte_pmd_e1000.a(e1000_82575.o)
e1000_get_phy_info_ife                            /home/vadim/projects/ipaugenblick/dpdk-1.6.0r2/x86_64-default-linuxapp-gcc/lib/librte_pmd_e1000.a(e1000_phy.o)
                                                  /home/vadim/projects/ipaugenblick/dpdk-1.6.0r2/x86_64-default-linuxapp-gcc/lib/librte_pmd_e1000.a(e1000_ich8lan.o)
e1000_get_phy_info_igp                            /home/vadim/projects/ipaugenblick/dpdk-1.6.0r2/x86_64-default-linuxapp-gcc/lib/librte_pmd_e1000.a(e1000_phy.o)
                                                  /home/vadim/projects/ipaugenblick/dpdk-1.6.0r2/x86_64-default-linuxapp-gcc/lib/librte_pmd_e1000.a(e1000_ich8lan.o)
                                                  /home/vadim/projects/ipaugenblick/dpdk-1.6.0r2/x86_64-default-linuxapp-gcc/lib/librte_pmd_e1000.a(e1000_82575.o)
                                                  /home/vadim/projects/ipaugenblick/dpdk-1.6.0r2/x86_64-default-linuxapp-gcc/lib/librte_pmd_e1000.a(e1000_82571.o)
                                                  /home/vadim/projects/ipaugenblick/dpdk-1.6.0r2/x86_64-default-linuxapp-gcc/lib/librte_pmd_e1000.a(e1000_82541.o)
e1000_get_phy_info_m88                            /home/vadim/projects/ipaugenblick/dpdk-1.6.0r2/x86_64-default-linuxapp-gcc/lib/librte_pmd_e1000.a(e1000_phy.o)
                                                  /home/vadim/projects/ipaugenblick/dpdk-1.6.0r2/x86_64-default-linuxapp-gcc/lib/librte_pmd_e1000.a(e1000_ich8lan.o)
                                                  /home/vadim/projects/ipaugenblick/dpdk-1.6.0r2/x86_64-default-linuxapp-gcc/lib/librte_pmd_e1000.a(e1000_82575.o)
                                                  /home/vadim/projects/ipaugenblick/dpdk-1.6.0r2/x86_64-default-linuxapp-gcc/lib/librte_pmd_e1000.a(e1000_82571.o)
                                                  /home/vadim/projects/ipaugenblick/dpdk-1.6.0r2/x86_64-default-linuxapp-gcc/lib/librte_pmd_e1000.a(e1000_82543.o)
                                                  /home/vadim/projects/ipaugenblick/dpdk-1.6.0r2/x86_64-default-linuxapp-gcc/lib/librte_pmd_e1000.a(e1000_82540.o)
                                                  /home/vadim/projects/ipaugenblick/dpdk-1.6.0r2/x86_64-default-linuxapp-gcc/lib/librte_pmd_e1000.a(e1000_80003es2lan.o)
e1000_get_phy_type_from_id                        /home/vadim/projects/ipaugenblick/dpdk-1.6.0r2/x86_64-default-linuxapp-gcc/lib/librte_pmd_e1000.a(e1000_phy.o)
                                                  /home/vadim/projects/ipaugenblick/dpdk-1.6.0r2/x86_64-default-linuxapp-gcc/lib/librte_pmd_e1000.a(e1000_ich8lan.o)
e1000_get_speed_and_duplex                        /home/vadim/projects/ipaugenblick/dpdk-1.6.0r2/x86_64-default-linuxapp-gcc/lib/librte_pmd_e1000.a(e1000_api.o)
e1000_get_speed_and_duplex_copper_generic         /home/vadim/projects/ipaugenblick/dpdk-1.6.0r2/x86_64-default-linuxapp-gcc/lib/librte_pmd_e1000.a(e1000_mac.o)
                                                  /home/vadim/projects/ipaugenblick/dpdk-1.6.0r2/x86_64-default-linuxapp-gcc/lib/librte_pmd_e1000.a(e1000_ich8lan.o)
                                                  /home/vadim/projects/ipaugenblick/dpdk-1.6.0r2/x86_64-default-linuxapp-gcc/lib/librte_pmd_e1000.a(e1000_82575.o)
                                                  /home/vadim/projects/ipaugenblick/dpdk-1.6.0r2/x86_64-default-linuxapp-gcc/lib/librte_pmd_e1000.a(e1000_82571.o)
                                                  /home/vadim/projects/ipaugenblick/dpdk-1.6.0r2/x86_64-default-linuxapp-gcc/lib/librte_pmd_e1000.a(e1000_82543.o)
                                                  /home/vadim/projects/ipaugenblick/dpdk-1.6.0r2/x86_64-default-linuxapp-gcc/lib/librte_pmd_e1000.a(e1000_82541.o)
                                                  /home/vadim/projects/ipaugenblick/dpdk-1.6.0r2/x86_64-default-linuxapp-gcc/lib/librte_pmd_e1000.a(e1000_82540.o)
                                                  /home/vadim/projects/ipaugenblick/dpdk-1.6.0r2/x86_64-default-linuxapp-gcc/lib/librte_pmd_e1000.a(e1000_80003es2lan.o)
e1000_get_speed_and_duplex_fiber_serdes_generic   /home/vadim/projects/ipaugenblick/dpdk-1.6.0r2/x86_64-default-linuxapp-gcc/lib/librte_pmd_e1000.a(e1000_mac.o)
                                                  /home/vadim/projects/ipaugenblick/dpdk-1.6.0r2/x86_64-default-linuxapp-gcc/lib/librte_pmd_e1000.a(e1000_82571.o)
                                                  /home/vadim/projects/ipaugenblick/dpdk-1.6.0r2/x86_64-default-linuxapp-gcc/lib/librte_pmd_e1000.a(e1000_82543.o)
                                                  /home/vadim/projects/ipaugenblick/dpdk-1.6.0r2/x86_64-default-linuxapp-gcc/lib/librte_pmd_e1000.a(e1000_82542.o)
                                                  /home/vadim/projects/ipaugenblick/dpdk-1.6.0r2/x86_64-default-linuxapp-gcc/lib/librte_pmd_e1000.a(e1000_82540.o)
                                                  /home/vadim/projects/ipaugenblick/dpdk-1.6.0r2/x86_64-default-linuxapp-gcc/lib/librte_pmd_e1000.a(e1000_80003es2lan.o)
e1000_gig_downshift_workaround_ich8lan            /home/vadim/projects/ipaugenblick/dpdk-1.6.0r2/x86_64-default-linuxapp-gcc/lib/librte_pmd_e1000.a(e1000_ich8lan.o)
e1000_hash_mc_addr                                /home/vadim/projects/ipaugenblick/dpdk-1.6.0r2/x86_64-default-linuxapp-gcc/lib/librte_pmd_e1000.a(e1000_api.o)
e1000_hash_mc_addr_generic                        /home/vadim/projects/ipaugenblick/dpdk-1.6.0r2/x86_64-default-linuxapp-gcc/lib/librte_pmd_e1000.a(e1000_mac.o)
                                                  /home/vadim/projects/ipaugenblick/dpdk-1.6.0r2/x86_64-default-linuxapp-gcc/lib/librte_pmd_e1000.a(e1000_api.o)
e1000_host_interface_command                      /home/vadim/projects/ipaugenblick/dpdk-1.6.0r2/x86_64-default-linuxapp-gcc/lib/librte_pmd_e1000.a(e1000_manage.o)
e1000_i2c_bus_clear                               /home/vadim/projects/ipaugenblick/dpdk-1.6.0r2/x86_64-default-linuxapp-gcc/lib/librte_pmd_e1000.a(e1000_82575.o)
e1000_id_led_init                                 /home/vadim/projects/ipaugenblick/dpdk-1.6.0r2/x86_64-default-linuxapp-gcc/lib/librte_pmd_e1000.a(e1000_api.o)
e1000_id_led_init_generic                         /home/vadim/projects/ipaugenblick/dpdk-1.6.0r2/x86_64-default-linuxapp-gcc/lib/librte_pmd_e1000.a(e1000_mac.o)
                                                  /home/vadim/projects/ipaugenblick/dpdk-1.6.0r2/x86_64-default-linuxapp-gcc/lib/librte_pmd_e1000.a(e1000_ich8lan.o)
                                                  /home/vadim/projects/ipaugenblick/dpdk-1.6.0r2/x86_64-default-linuxapp-gcc/lib/librte_pmd_e1000.a(e1000_82575.o)
                                                  /home/vadim/projects/ipaugenblick/dpdk-1.6.0r2/x86_64-default-linuxapp-gcc/lib/librte_pmd_e1000.a(e1000_82571.o)
                                                  /home/vadim/projects/ipaugenblick/dpdk-1.6.0r2/x86_64-default-linuxapp-gcc/lib/librte_pmd_e1000.a(e1000_82541.o)
                                                  /home/vadim/projects/ipaugenblick/dpdk-1.6.0r2/x86_64-default-linuxapp-gcc/lib/librte_pmd_e1000.a(e1000_82540.o)
                                                  /home/vadim/projects/ipaugenblick/dpdk-1.6.0r2/x86_64-default-linuxapp-gcc/lib/librte_pmd_e1000.a(e1000_80003es2lan.o)
e1000_igp3_phy_powerdown_workaround_ich8lan       /home/vadim/projects/ipaugenblick/dpdk-1.6.0r2/x86_64-default-linuxapp-gcc/lib/librte_pmd_e1000.a(e1000_ich8lan.o)
e1000_init_function_pointers_80003es2lan          /home/vadim/projects/ipaugenblick/dpdk-1.6.0r2/x86_64-default-linuxapp-gcc/lib/librte_pmd_e1000.a(e1000_80003es2lan.o)
                                                  /home/vadim/projects/ipaugenblick/dpdk-1.6.0r2/x86_64-default-linuxapp-gcc/lib/librte_pmd_e1000.a(e1000_api.o)
e1000_init_function_pointers_82540                /home/vadim/projects/ipaugenblick/dpdk-1.6.0r2/x86_64-default-linuxapp-gcc/lib/librte_pmd_e1000.a(e1000_82540.o)
                                                  /home/vadim/projects/ipaugenblick/dpdk-1.6.0r2/x86_64-default-linuxapp-gcc/lib/librte_pmd_e1000.a(e1000_api.o)
e1000_init_function_pointers_82541                /home/vadim/projects/ipaugenblick/dpdk-1.6.0r2/x86_64-default-linuxapp-gcc/lib/librte_pmd_e1000.a(e1000_82541.o)
                                                  /home/vadim/projects/ipaugenblick/dpdk-1.6.0r2/x86_64-default-linuxapp-gcc/lib/librte_pmd_e1000.a(e1000_api.o)
e1000_init_function_pointers_82542                /home/vadim/projects/ipaugenblick/dpdk-1.6.0r2/x86_64-default-linuxapp-gcc/lib/librte_pmd_e1000.a(e1000_82542.o)
                                                  /home/vadim/projects/ipaugenblick/dpdk-1.6.0r2/x86_64-default-linuxapp-gcc/lib/librte_pmd_e1000.a(e1000_api.o)
e1000_init_function_pointers_82543                /home/vadim/projects/ipaugenblick/dpdk-1.6.0r2/x86_64-default-linuxapp-gcc/lib/librte_pmd_e1000.a(e1000_82543.o)
                                                  /home/vadim/projects/ipaugenblick/dpdk-1.6.0r2/x86_64-default-linuxapp-gcc/lib/librte_pmd_e1000.a(e1000_api.o)
e1000_init_function_pointers_82571                /home/vadim/projects/ipaugenblick/dpdk-1.6.0r2/x86_64-default-linuxapp-gcc/lib/librte_pmd_e1000.a(e1000_82571.o)
                                                  /home/vadim/projects/ipaugenblick/dpdk-1.6.0r2/x86_64-default-linuxapp-gcc/lib/librte_pmd_e1000.a(e1000_api.o)
e1000_init_function_pointers_82575                /home/vadim/projects/ipaugenblick/dpdk-1.6.0r2/x86_64-default-linuxapp-gcc/lib/librte_pmd_e1000.a(e1000_82575.o)
                                                  /home/vadim/projects/ipaugenblick/dpdk-1.6.0r2/x86_64-default-linuxapp-gcc/lib/librte_pmd_e1000.a(e1000_api.o)
                                                  /home/vadim/projects/ipaugenblick/dpdk-1.6.0r2/x86_64-default-linuxapp-gcc/lib/librte_pmd_e1000.a(e1000_i210.o)
e1000_init_function_pointers_i210                 /home/vadim/projects/ipaugenblick/dpdk-1.6.0r2/x86_64-default-linuxapp-gcc/lib/librte_pmd_e1000.a(e1000_i210.o)
                                                  /home/vadim/projects/ipaugenblick/dpdk-1.6.0r2/x86_64-default-linuxapp-gcc/lib/librte_pmd_e1000.a(e1000_api.o)
e1000_init_function_pointers_ich8lan              /home/vadim/projects/ipaugenblick/dpdk-1.6.0r2/x86_64-default-linuxapp-gcc/lib/librte_pmd_e1000.a(e1000_ich8lan.o)
                                                  /home/vadim/projects/ipaugenblick/dpdk-1.6.0r2/x86_64-default-linuxapp-gcc/lib/librte_pmd_e1000.a(e1000_api.o)
e1000_init_function_pointers_vf                   /home/vadim/projects/ipaugenblick/dpdk-1.6.0r2/x86_64-default-linuxapp-gcc/lib/librte_pmd_e1000.a(e1000_vf.o)
                                                  /home/vadim/projects/ipaugenblick/dpdk-1.6.0r2/x86_64-default-linuxapp-gcc/lib/librte_pmd_e1000.a(e1000_api.o)
e1000_init_hw                                     /home/vadim/projects/ipaugenblick/dpdk-1.6.0r2/x86_64-default-linuxapp-gcc/lib/librte_pmd_e1000.a(e1000_api.o)
                                                  /home/vadim/projects/ipaugenblick/dpdk-1.6.0r2/x86_64-default-linuxapp-gcc/lib/librte_pmd_e1000.a(em_ethdev.o)
                                                  /home/vadim/projects/ipaugenblick/dpdk-1.6.0r2/x86_64-default-linuxapp-gcc/lib/librte_pmd_e1000.a(igb_ethdev.o)
e1000_init_mac_ops_generic                        /home/vadim/projects/ipaugenblick/dpdk-1.6.0r2/x86_64-default-linuxapp-gcc/lib/librte_pmd_e1000.a(e1000_mac.o)
                                                  /home/vadim/projects/ipaugenblick/dpdk-1.6.0r2/x86_64-default-linuxapp-gcc/lib/librte_pmd_e1000.a(e1000_api.o)
e1000_init_mac_params                             /home/vadim/projects/ipaugenblick/dpdk-1.6.0r2/x86_64-default-linuxapp-gcc/lib/librte_pmd_e1000.a(e1000_api.o)
                                                  /home/vadim/projects/ipaugenblick/dpdk-1.6.0r2/x86_64-default-linuxapp-gcc/lib/librte_pmd_e1000.a(igb_ethdev.o)
e1000_init_mbx_ops_generic                        /home/vadim/projects/ipaugenblick/dpdk-1.6.0r2/x86_64-default-linuxapp-gcc/lib/librte_pmd_e1000.a(e1000_mbx.o)
                                                  /home/vadim/projects/ipaugenblick/dpdk-1.6.0r2/x86_64-default-linuxapp-gcc/lib/librte_pmd_e1000.a(e1000_api.o)
e1000_init_mbx_params                             /home/vadim/projects/ipaugenblick/dpdk-1.6.0r2/x86_64-default-linuxapp-gcc/lib/librte_pmd_e1000.a(e1000_api.o)
e1000_init_mbx_params_pf                          /home/vadim/projects/ipaugenblick/dpdk-1.6.0r2/x86_64-default-linuxapp-gcc/lib/librte_pmd_e1000.a(e1000_mbx.o)
                                                  /home/vadim/projects/ipaugenblick/dpdk-1.6.0r2/x86_64-default-linuxapp-gcc/lib/librte_pmd_e1000.a(e1000_82575.o)
e1000_init_mbx_params_vf                          /home/vadim/projects/ipaugenblick/dpdk-1.6.0r2/x86_64-default-linuxapp-gcc/lib/librte_pmd_e1000.a(e1000_mbx.o)
                                                  /home/vadim/projects/ipaugenblick/dpdk-1.6.0r2/x86_64-default-linuxapp-gcc/lib/librte_pmd_e1000.a(e1000_vf.o)
e1000_init_nvm_ops_generic                        /home/vadim/projects/ipaugenblick/dpdk-1.6.0r2/x86_64-default-linuxapp-gcc/lib/librte_pmd_e1000.a(e1000_nvm.o)
                                                  /home/vadim/projects/ipaugenblick/dpdk-1.6.0r2/x86_64-default-linuxapp-gcc/lib/librte_pmd_e1000.a(e1000_api.o)
e1000_init_nvm_params                             /home/vadim/projects/ipaugenblick/dpdk-1.6.0r2/x86_64-default-linuxapp-gcc/lib/librte_pmd_e1000.a(e1000_api.o)
e1000_init_nvm_params_82575                       /home/vadim/projects/ipaugenblick/dpdk-1.6.0r2/x86_64-default-linuxapp-gcc/lib/librte_pmd_e1000.a(e1000_82575.o)
                                                  /home/vadim/projects/ipaugenblick/dpdk-1.6.0r2/x86_64-default-linuxapp-gcc/lib/librte_pmd_e1000.a(e1000_i210.o)
e1000_init_phy_ops_generic                        /home/vadim/projects/ipaugenblick/dpdk-1.6.0r2/x86_64-default-linuxapp-gcc/lib/librte_pmd_e1000.a(e1000_phy.o)
                                                  /home/vadim/projects/ipaugenblick/dpdk-1.6.0r2/x86_64-default-linuxapp-gcc/lib/librte_pmd_e1000.a(e1000_api.o)
e1000_init_phy_params                             /home/vadim/projects/ipaugenblick/dpdk-1.6.0r2/x86_64-default-linuxapp-gcc/lib/librte_pmd_e1000.a(e1000_api.o)
e1000_init_rx_addrs_generic                       /home/vadim/projects/ipaugenblick/dpdk-1.6.0r2/x86_64-default-linuxapp-gcc/lib/librte_pmd_e1000.a(e1000_mac.o)
                                                  /home/vadim/projects/ipaugenblick/dpdk-1.6.0r2/x86_64-default-linuxapp-gcc/lib/librte_pmd_e1000.a(e1000_ich8lan.o)
                                                  /home/vadim/projects/ipaugenblick/dpdk-1.6.0r2/x86_64-default-linuxapp-gcc/lib/librte_pmd_e1000.a(e1000_82575.o)
                                                  /home/vadim/projects/ipaugenblick/dpdk-1.6.0r2/x86_64-default-linuxapp-gcc/lib/librte_pmd_e1000.a(e1000_82571.o)
                                                  /home/vadim/projects/ipaugenblick/dpdk-1.6.0r2/x86_64-default-linuxapp-gcc/lib/librte_pmd_e1000.a(e1000_82543.o)
                                                  /home/vadim/projects/ipaugenblick/dpdk-1.6.0r2/x86_64-default-linuxapp-gcc/lib/librte_pmd_e1000.a(e1000_82542.o)
                                                  /home/vadim/projects/ipaugenblick/dpdk-1.6.0r2/x86_64-default-linuxapp-gcc/lib/librte_pmd_e1000.a(e1000_82541.o)
                                                  /home/vadim/projects/ipaugenblick/dpdk-1.6.0r2/x86_64-default-linuxapp-gcc/lib/librte_pmd_e1000.a(e1000_82540.o)
                                                  /home/vadim/projects/ipaugenblick/dpdk-1.6.0r2/x86_64-default-linuxapp-gcc/lib/librte_pmd_e1000.a(e1000_80003es2lan.o)
e1000_init_script_state_82541                     /home/vadim/projects/ipaugenblick/dpdk-1.6.0r2/x86_64-default-linuxapp-gcc/lib/librte_pmd_e1000.a(e1000_82541.o)
                                                  /home/vadim/projects/ipaugenblick/dpdk-1.6.0r2/x86_64-default-linuxapp-gcc/lib/librte_pmd_e1000.a(em_ethdev.o)
e1000_is_mphy_ready                               /home/vadim/projects/ipaugenblick/dpdk-1.6.0r2/x86_64-default-linuxapp-gcc/lib/librte_pmd_e1000.a(e1000_phy.o)
e1000_led_off                                     /home/vadim/projects/ipaugenblick/dpdk-1.6.0r2/x86_64-default-linuxapp-gcc/lib/librte_pmd_e1000.a(e1000_api.o)
                                                  /home/vadim/projects/ipaugenblick/dpdk-1.6.0r2/x86_64-default-linuxapp-gcc/lib/librte_pmd_e1000.a(em_ethdev.o)
                                                  /home/vadim/projects/ipaugenblick/dpdk-1.6.0r2/x86_64-default-linuxapp-gcc/lib/librte_pmd_e1000.a(igb_ethdev.o)
e1000_led_off_generic                             /home/vadim/projects/ipaugenblick/dpdk-1.6.0r2/x86_64-default-linuxapp-gcc/lib/librte_pmd_e1000.a(e1000_mac.o)
                                                  /home/vadim/projects/ipaugenblick/dpdk-1.6.0r2/x86_64-default-linuxapp-gcc/lib/librte_pmd_e1000.a(e1000_82575.o)
                                                  /home/vadim/projects/ipaugenblick/dpdk-1.6.0r2/x86_64-default-linuxapp-gcc/lib/librte_pmd_e1000.a(e1000_82571.o)
                                                  /home/vadim/projects/ipaugenblick/dpdk-1.6.0r2/x86_64-default-linuxapp-gcc/lib/librte_pmd_e1000.a(e1000_82541.o)
                                                  /home/vadim/projects/ipaugenblick/dpdk-1.6.0r2/x86_64-default-linuxapp-gcc/lib/librte_pmd_e1000.a(e1000_82540.o)
                                                  /home/vadim/projects/ipaugenblick/dpdk-1.6.0r2/x86_64-default-linuxapp-gcc/lib/librte_pmd_e1000.a(e1000_80003es2lan.o)
e1000_led_on                                      /home/vadim/projects/ipaugenblick/dpdk-1.6.0r2/x86_64-default-linuxapp-gcc/lib/librte_pmd_e1000.a(e1000_api.o)
                                                  /home/vadim/projects/ipaugenblick/dpdk-1.6.0r2/x86_64-default-linuxapp-gcc/lib/librte_pmd_e1000.a(em_ethdev.o)
                                                  /home/vadim/projects/ipaugenblick/dpdk-1.6.0r2/x86_64-default-linuxapp-gcc/lib/librte_pmd_e1000.a(igb_ethdev.o)
e1000_led_on_generic                              /home/vadim/projects/ipaugenblick/dpdk-1.6.0r2/x86_64-default-linuxapp-gcc/lib/librte_pmd_e1000.a(e1000_mac.o)
                                                  /home/vadim/projects/ipaugenblick/dpdk-1.6.0r2/x86_64-default-linuxapp-gcc/lib/librte_pmd_e1000.a(e1000_82575.o)
                                                  /home/vadim/projects/ipaugenblick/dpdk-1.6.0r2/x86_64-default-linuxapp-gcc/lib/librte_pmd_e1000.a(e1000_82571.o)
                                                  /home/vadim/projects/ipaugenblick/dpdk-1.6.0r2/x86_64-default-linuxapp-gcc/lib/librte_pmd_e1000.a(e1000_82541.o)
                                                  /home/vadim/projects/ipaugenblick/dpdk-1.6.0r2/x86_64-default-linuxapp-gcc/lib/librte_pmd_e1000.a(e1000_82540.o)
                                                  /home/vadim/projects/ipaugenblick/dpdk-1.6.0r2/x86_64-default-linuxapp-gcc/lib/librte_pmd_e1000.a(e1000_80003es2lan.o)
e1000_link_stall_workaround_hv                    /home/vadim/projects/ipaugenblick/dpdk-1.6.0r2/x86_64-default-linuxapp-gcc/lib/librte_pmd_e1000.a(e1000_phy.o)
                                                  /home/vadim/projects/ipaugenblick/dpdk-1.6.0r2/x86_64-default-linuxapp-gcc/lib/librte_pmd_e1000.a(e1000_ich8lan.o)
e1000_load_firmware                               /home/vadim/projects/ipaugenblick/dpdk-1.6.0r2/x86_64-default-linuxapp-gcc/lib/librte_pmd_e1000.a(e1000_manage.o)
e1000_lv_jumbo_workaround_ich8lan                 /home/vadim/projects/ipaugenblick/dpdk-1.6.0r2/x86_64-default-linuxapp-gcc/lib/librte_pmd_e1000.a(e1000_ich8lan.o)
                                                  /home/vadim/projects/ipaugenblick/dpdk-1.6.0r2/x86_64-default-linuxapp-gcc/lib/librte_pmd_e1000.a(em_rxtx.o)
e1000_mng_enable_host_if                          /home/vadim/projects/ipaugenblick/dpdk-1.6.0r2/x86_64-default-linuxapp-gcc/lib/librte_pmd_e1000.a(e1000_api.o)
e1000_mng_enable_host_if_generic                  /home/vadim/projects/ipaugenblick/dpdk-1.6.0r2/x86_64-default-linuxapp-gcc/lib/librte_pmd_e1000.a(e1000_manage.o)
                                                  /home/vadim/projects/ipaugenblick/dpdk-1.6.0r2/x86_64-default-linuxapp-gcc/lib/librte_pmd_e1000.a(e1000_api.o)
e1000_mng_host_if_write                           /home/vadim/projects/ipaugenblick/dpdk-1.6.0r2/x86_64-default-linuxapp-gcc/lib/librte_pmd_e1000.a(e1000_api.o)
e1000_mng_host_if_write_generic                   /home/vadim/projects/ipaugenblick/dpdk-1.6.0r2/x86_64-default-linuxapp-gcc/lib/librte_pmd_e1000.a(e1000_manage.o)
                                                  /home/vadim/projects/ipaugenblick/dpdk-1.6.0r2/x86_64-default-linuxapp-gcc/lib/librte_pmd_e1000.a(e1000_api.o)
e1000_mng_write_cmd_header                        /home/vadim/projects/ipaugenblick/dpdk-1.6.0r2/x86_64-default-linuxapp-gcc/lib/librte_pmd_e1000.a(e1000_api.o)
e1000_mng_write_cmd_header_generic                /home/vadim/projects/ipaugenblick/dpdk-1.6.0r2/x86_64-default-linuxapp-gcc/lib/librte_pmd_e1000.a(e1000_manage.o)
                                                  /home/vadim/projects/ipaugenblick/dpdk-1.6.0r2/x86_64-default-linuxapp-gcc/lib/librte_pmd_e1000.a(e1000_api.o)
e1000_mng_write_dhcp_info                         /home/vadim/projects/ipaugenblick/dpdk-1.6.0r2/x86_64-default-linuxapp-gcc/lib/librte_pmd_e1000.a(e1000_api.o)
e1000_mng_write_dhcp_info_generic                 /home/vadim/projects/ipaugenblick/dpdk-1.6.0r2/x86_64-default-linuxapp-gcc/lib/librte_pmd_e1000.a(e1000_manage.o)
                                                  /home/vadim/projects/ipaugenblick/dpdk-1.6.0r2/x86_64-default-linuxapp-gcc/lib/librte_pmd_e1000.a(e1000_api.o)
e1000_null_led_default                            /home/vadim/projects/ipaugenblick/dpdk-1.6.0r2/x86_64-default-linuxapp-gcc/lib/librte_pmd_e1000.a(e1000_nvm.o)
e1000_null_link_info                              /home/vadim/projects/ipaugenblick/dpdk-1.6.0r2/x86_64-default-linuxapp-gcc/lib/librte_pmd_e1000.a(e1000_mac.o)
e1000_null_lplu_state                             /home/vadim/projects/ipaugenblick/dpdk-1.6.0r2/x86_64-default-linuxapp-gcc/lib/librte_pmd_e1000.a(e1000_phy.o)
e1000_null_mac_generic                            /home/vadim/projects/ipaugenblick/dpdk-1.6.0r2/x86_64-default-linuxapp-gcc/lib/librte_pmd_e1000.a(e1000_mac.o)
e1000_null_mng_mode                               /home/vadim/projects/ipaugenblick/dpdk-1.6.0r2/x86_64-default-linuxapp-gcc/lib/librte_pmd_e1000.a(e1000_mac.o)
e1000_null_nvm_generic                            /home/vadim/projects/ipaugenblick/dpdk-1.6.0r2/x86_64-default-linuxapp-gcc/lib/librte_pmd_e1000.a(e1000_nvm.o)
e1000_null_ops_generic                            /home/vadim/projects/ipaugenblick/dpdk-1.6.0r2/x86_64-default-linuxapp-gcc/lib/librte_pmd_e1000.a(e1000_mac.o)
                                                  /home/vadim/projects/ipaugenblick/dpdk-1.6.0r2/x86_64-default-linuxapp-gcc/lib/librte_pmd_e1000.a(e1000_phy.o)
                                                  /home/vadim/projects/ipaugenblick/dpdk-1.6.0r2/x86_64-default-linuxapp-gcc/lib/librte_pmd_e1000.a(e1000_nvm.o)
                                                  /home/vadim/projects/ipaugenblick/dpdk-1.6.0r2/x86_64-default-linuxapp-gcc/lib/librte_pmd_e1000.a(e1000_mbx.o)
                                                  /home/vadim/projects/ipaugenblick/dpdk-1.6.0r2/x86_64-default-linuxapp-gcc/lib/librte_pmd_e1000.a(e1000_i210.o)
e1000_null_phy_generic                            /home/vadim/projects/ipaugenblick/dpdk-1.6.0r2/x86_64-default-linuxapp-gcc/lib/librte_pmd_e1000.a(e1000_phy.o)
e1000_null_rar_set                                /home/vadim/projects/ipaugenblick/dpdk-1.6.0r2/x86_64-default-linuxapp-gcc/lib/librte_pmd_e1000.a(e1000_mac.o)
e1000_null_read_nvm                               /home/vadim/projects/ipaugenblick/dpdk-1.6.0r2/x86_64-default-linuxapp-gcc/lib/librte_pmd_e1000.a(e1000_nvm.o)
e1000_null_read_reg                               /home/vadim/projects/ipaugenblick/dpdk-1.6.0r2/x86_64-default-linuxapp-gcc/lib/librte_pmd_e1000.a(e1000_phy.o)
e1000_null_set_page                               /home/vadim/projects/ipaugenblick/dpdk-1.6.0r2/x86_64-default-linuxapp-gcc/lib/librte_pmd_e1000.a(e1000_phy.o)
e1000_null_update_mc                              /home/vadim/projects/ipaugenblick/dpdk-1.6.0r2/x86_64-default-linuxapp-gcc/lib/librte_pmd_e1000.a(e1000_mac.o)
e1000_null_write_nvm                              /home/vadim/projects/ipaugenblick/dpdk-1.6.0r2/x86_64-default-linuxapp-gcc/lib/librte_pmd_e1000.a(e1000_nvm.o)
                                                  /home/vadim/projects/ipaugenblick/dpdk-1.6.0r2/x86_64-default-linuxapp-gcc/lib/librte_pmd_e1000.a(e1000_i210.o)
e1000_null_write_reg                              /home/vadim/projects/ipaugenblick/dpdk-1.6.0r2/x86_64-default-linuxapp-gcc/lib/librte_pmd_e1000.a(e1000_phy.o)
e1000_null_write_vfta                             /home/vadim/projects/ipaugenblick/dpdk-1.6.0r2/x86_64-default-linuxapp-gcc/lib/librte_pmd_e1000.a(e1000_mac.o)
e1000_pci_clear_mwi                               /home/vadim/projects/ipaugenblick/dpdk-1.6.0r2/x86_64-default-linuxapp-gcc/lib/librte_pmd_e1000.a(e1000_osdep.o)
                                                  /home/vadim/projects/ipaugenblick/dpdk-1.6.0r2/x86_64-default-linuxapp-gcc/lib/librte_pmd_e1000.a(e1000_82542.o)
e1000_pci_set_mwi                                 /home/vadim/projects/ipaugenblick/dpdk-1.6.0r2/x86_64-default-linuxapp-gcc/lib/librte_pmd_e1000.a(e1000_osdep.o)
                                                  /home/vadim/projects/ipaugenblick/dpdk-1.6.0r2/x86_64-default-linuxapp-gcc/lib/librte_pmd_e1000.a(e1000_82542.o)
e1000_pcix_mmrbc_workaround_generic               /home/vadim/projects/ipaugenblick/dpdk-1.6.0r2/x86_64-default-linuxapp-gcc/lib/librte_pmd_e1000.a(e1000_mac.o)
                                                  /home/vadim/projects/ipaugenblick/dpdk-1.6.0r2/x86_64-default-linuxapp-gcc/lib/librte_pmd_e1000.a(e1000_82543.o)
                                                  /home/vadim/projects/ipaugenblick/dpdk-1.6.0r2/x86_64-default-linuxapp-gcc/lib/librte_pmd_e1000.a(e1000_82540.o)
e1000_phy_commit                                  /home/vadim/projects/ipaugenblick/dpdk-1.6.0r2/x86_64-default-linuxapp-gcc/lib/librte_pmd_e1000.a(e1000_api.o)
e1000_phy_force_speed_duplex_82577                /home/vadim/projects/ipaugenblick/dpdk-1.6.0r2/x86_64-default-linuxapp-gcc/lib/librte_pmd_e1000.a(e1000_phy.o)
                                                  /home/vadim/projects/ipaugenblick/dpdk-1.6.0r2/x86_64-default-linuxapp-gcc/lib/librte_pmd_e1000.a(e1000_ich8lan.o)
                                                  /home/vadim/projects/ipaugenblick/dpdk-1.6.0r2/x86_64-default-linuxapp-gcc/lib/librte_pmd_e1000.a(e1000_82575.o)
e1000_phy_force_speed_duplex_ife                  /home/vadim/projects/ipaugenblick/dpdk-1.6.0r2/x86_64-default-linuxapp-gcc/lib/librte_pmd_e1000.a(e1000_phy.o)
                                                  /home/vadim/projects/ipaugenblick/dpdk-1.6.0r2/x86_64-default-linuxapp-gcc/lib/librte_pmd_e1000.a(e1000_ich8lan.o)
e1000_phy_force_speed_duplex_igp                  /home/vadim/projects/ipaugenblick/dpdk-1.6.0r2/x86_64-default-linuxapp-gcc/lib/librte_pmd_e1000.a(e1000_phy.o)
                                                  /home/vadim/projects/ipaugenblick/dpdk-1.6.0r2/x86_64-default-linuxapp-gcc/lib/librte_pmd_e1000.a(e1000_ich8lan.o)
                                                  /home/vadim/projects/ipaugenblick/dpdk-1.6.0r2/x86_64-default-linuxapp-gcc/lib/librte_pmd_e1000.a(e1000_82575.o)
                                                  /home/vadim/projects/ipaugenblick/dpdk-1.6.0r2/x86_64-default-linuxapp-gcc/lib/librte_pmd_e1000.a(e1000_82571.o)
                                                  /home/vadim/projects/ipaugenblick/dpdk-1.6.0r2/x86_64-default-linuxapp-gcc/lib/librte_pmd_e1000.a(e1000_82541.o)
e1000_phy_force_speed_duplex_m88                  /home/vadim/projects/ipaugenblick/dpdk-1.6.0r2/x86_64-default-linuxapp-gcc/lib/librte_pmd_e1000.a(e1000_phy.o)
                                                  /home/vadim/projects/ipaugenblick/dpdk-1.6.0r2/x86_64-default-linuxapp-gcc/lib/librte_pmd_e1000.a(e1000_ich8lan.o)
                                                  /home/vadim/projects/ipaugenblick/dpdk-1.6.0r2/x86_64-default-linuxapp-gcc/lib/librte_pmd_e1000.a(e1000_82575.o)
                                                  /home/vadim/projects/ipaugenblick/dpdk-1.6.0r2/x86_64-default-linuxapp-gcc/lib/librte_pmd_e1000.a(e1000_82571.o)
                                                  /home/vadim/projects/ipaugenblick/dpdk-1.6.0r2/x86_64-default-linuxapp-gcc/lib/librte_pmd_e1000.a(e1000_82543.o)
                                                  /home/vadim/projects/ipaugenblick/dpdk-1.6.0r2/x86_64-default-linuxapp-gcc/lib/librte_pmd_e1000.a(e1000_82540.o)
e1000_phy_force_speed_duplex_setup                /home/vadim/projects/ipaugenblick/dpdk-1.6.0r2/x86_64-default-linuxapp-gcc/lib/librte_pmd_e1000.a(e1000_phy.o)
                                                  /home/vadim/projects/ipaugenblick/dpdk-1.6.0r2/x86_64-default-linuxapp-gcc/lib/librte_pmd_e1000.a(e1000_80003es2lan.o)
e1000_phy_has_link_generic                        /home/vadim/projects/ipaugenblick/dpdk-1.6.0r2/x86_64-default-linuxapp-gcc/lib/librte_pmd_e1000.a(e1000_phy.o)
                                                  /home/vadim/projects/ipaugenblick/dpdk-1.6.0r2/x86_64-default-linuxapp-gcc/lib/librte_pmd_e1000.a(e1000_mac.o)
                                                  /home/vadim/projects/ipaugenblick/dpdk-1.6.0r2/x86_64-default-linuxapp-gcc/lib/librte_pmd_e1000.a(e1000_ich8lan.o)
                                                  /home/vadim/projects/ipaugenblick/dpdk-1.6.0r2/x86_64-default-linuxapp-gcc/lib/librte_pmd_e1000.a(e1000_82543.o)
                                                  /home/vadim/projects/ipaugenblick/dpdk-1.6.0r2/x86_64-default-linuxapp-gcc/lib/librte_pmd_e1000.a(e1000_82541.o)
                                                  /home/vadim/projects/ipaugenblick/dpdk-1.6.0r2/x86_64-default-linuxapp-gcc/lib/librte_pmd_e1000.a(e1000_80003es2lan.o)
e1000_phy_hw_reset                                /home/vadim/projects/ipaugenblick/dpdk-1.6.0r2/x86_64-default-linuxapp-gcc/lib/librte_pmd_e1000.a(e1000_api.o)
                                                  /home/vadim/projects/ipaugenblick/dpdk-1.6.0r2/x86_64-default-linuxapp-gcc/lib/librte_pmd_e1000.a(em_ethdev.o)
                                                  /home/vadim/projects/ipaugenblick/dpdk-1.6.0r2/x86_64-default-linuxapp-gcc/lib/librte_pmd_e1000.a(igb_ethdev.o)
e1000_phy_hw_reset_generic                        /home/vadim/projects/ipaugenblick/dpdk-1.6.0r2/x86_64-default-linuxapp-gcc/lib/librte_pmd_e1000.a(e1000_phy.o)
                                                  /home/vadim/projects/ipaugenblick/dpdk-1.6.0r2/x86_64-default-linuxapp-gcc/lib/librte_pmd_e1000.a(e1000_ich8lan.o)
                                                  /home/vadim/projects/ipaugenblick/dpdk-1.6.0r2/x86_64-default-linuxapp-gcc/lib/librte_pmd_e1000.a(e1000_82575.o)
                                                  /home/vadim/projects/ipaugenblick/dpdk-1.6.0r2/x86_64-default-linuxapp-gcc/lib/librte_pmd_e1000.a(e1000_82571.o)
                                                  /home/vadim/projects/ipaugenblick/dpdk-1.6.0r2/x86_64-default-linuxapp-gcc/lib/librte_pmd_e1000.a(e1000_82543.o)
                                                  /home/vadim/projects/ipaugenblick/dpdk-1.6.0r2/x86_64-default-linuxapp-gcc/lib/librte_pmd_e1000.a(e1000_82541.o)
                                                  /home/vadim/projects/ipaugenblick/dpdk-1.6.0r2/x86_64-default-linuxapp-gcc/lib/librte_pmd_e1000.a(e1000_82540.o)
                                                  /home/vadim/projects/ipaugenblick/dpdk-1.6.0r2/x86_64-default-linuxapp-gcc/lib/librte_pmd_e1000.a(e1000_80003es2lan.o)
e1000_phy_init_script_igp3                        /home/vadim/projects/ipaugenblick/dpdk-1.6.0r2/x86_64-default-linuxapp-gcc/lib/librte_pmd_e1000.a(e1000_phy.o)
                                                  /home/vadim/projects/ipaugenblick/dpdk-1.6.0r2/x86_64-default-linuxapp-gcc/lib/librte_pmd_e1000.a(e1000_ich8lan.o)
                                                  /home/vadim/projects/ipaugenblick/dpdk-1.6.0r2/x86_64-default-linuxapp-gcc/lib/librte_pmd_e1000.a(e1000_82575.o)
e1000_phy_reset_dsp_generic                       /home/vadim/projects/ipaugenblick/dpdk-1.6.0r2/x86_64-default-linuxapp-gcc/lib/librte_pmd_e1000.a(e1000_phy.o)
                                                  /home/vadim/projects/ipaugenblick/dpdk-1.6.0r2/x86_64-default-linuxapp-gcc/lib/librte_pmd_e1000.a(e1000_80003es2lan.o)
e1000_phy_setup_autoneg                           /home/vadim/projects/ipaugenblick/dpdk-1.6.0r2/x86_64-default-linuxapp-gcc/lib/librte_pmd_e1000.a(e1000_phy.o)
e1000_phy_sw_reset_generic                        /home/vadim/projects/ipaugenblick/dpdk-1.6.0r2/x86_64-default-linuxapp-gcc/lib/librte_pmd_e1000.a(e1000_phy.o)
                                                  /home/vadim/projects/ipaugenblick/dpdk-1.6.0r2/x86_64-default-linuxapp-gcc/lib/librte_pmd_e1000.a(e1000_ich8lan.o)
                                                  /home/vadim/projects/ipaugenblick/dpdk-1.6.0r2/x86_64-default-linuxapp-gcc/lib/librte_pmd_e1000.a(e1000_82575.o)
                                                  /home/vadim/projects/ipaugenblick/dpdk-1.6.0r2/x86_64-default-linuxapp-gcc/lib/librte_pmd_e1000.a(e1000_82571.o)
                                                  /home/vadim/projects/ipaugenblick/dpdk-1.6.0r2/x86_64-default-linuxapp-gcc/lib/librte_pmd_e1000.a(e1000_82543.o)
                                                  /home/vadim/projects/ipaugenblick/dpdk-1.6.0r2/x86_64-default-linuxapp-gcc/lib/librte_pmd_e1000.a(e1000_82540.o)
                                                  /home/vadim/projects/ipaugenblick/dpdk-1.6.0r2/x86_64-default-linuxapp-gcc/lib/librte_pmd_e1000.a(e1000_80003es2lan.o)
e1000_poll_eerd_eewr_done                         /home/vadim/projects/ipaugenblick/dpdk-1.6.0r2/x86_64-default-linuxapp-gcc/lib/librte_pmd_e1000.a(e1000_nvm.o)
                                                  /home/vadim/projects/ipaugenblick/dpdk-1.6.0r2/x86_64-default-linuxapp-gcc/lib/librte_pmd_e1000.a(e1000_82571.o)
e1000_poll_fiber_serdes_link_generic              /home/vadim/projects/ipaugenblick/dpdk-1.6.0r2/x86_64-default-linuxapp-gcc/lib/librte_pmd_e1000.a(e1000_mac.o)
                                                  /home/vadim/projects/ipaugenblick/dpdk-1.6.0r2/x86_64-default-linuxapp-gcc/lib/librte_pmd_e1000.a(e1000_82543.o)
e1000_power_down_phy                              /home/vadim/projects/ipaugenblick/dpdk-1.6.0r2/x86_64-default-linuxapp-gcc/lib/librte_pmd_e1000.a(e1000_api.o)
                                                  /home/vadim/projects/ipaugenblick/dpdk-1.6.0r2/x86_64-default-linuxapp-gcc/lib/librte_pmd_e1000.a(em_ethdev.o)
                                                  /home/vadim/projects/ipaugenblick/dpdk-1.6.0r2/x86_64-default-linuxapp-gcc/lib/librte_pmd_e1000.a(igb_ethdev.o)
e1000_power_down_phy_copper                       /home/vadim/projects/ipaugenblick/dpdk-1.6.0r2/x86_64-default-linuxapp-gcc/lib/librte_pmd_e1000.a(e1000_phy.o)
                                                  /home/vadim/projects/ipaugenblick/dpdk-1.6.0r2/x86_64-default-linuxapp-gcc/lib/librte_pmd_e1000.a(e1000_ich8lan.o)
                                                  /home/vadim/projects/ipaugenblick/dpdk-1.6.0r2/x86_64-default-linuxapp-gcc/lib/librte_pmd_e1000.a(e1000_82575.o)
                                                  /home/vadim/projects/ipaugenblick/dpdk-1.6.0r2/x86_64-default-linuxapp-gcc/lib/librte_pmd_e1000.a(e1000_82571.o)
                                                  /home/vadim/projects/ipaugenblick/dpdk-1.6.0r2/x86_64-default-linuxapp-gcc/lib/librte_pmd_e1000.a(e1000_82543.o)
                                                  /home/vadim/projects/ipaugenblick/dpdk-1.6.0r2/x86_64-default-linuxapp-gcc/lib/librte_pmd_e1000.a(e1000_82541.o)
                                                  /home/vadim/projects/ipaugenblick/dpdk-1.6.0r2/x86_64-default-linuxapp-gcc/lib/librte_pmd_e1000.a(e1000_82540.o)
                                                  /home/vadim/projects/ipaugenblick/dpdk-1.6.0r2/x86_64-default-linuxapp-gcc/lib/librte_pmd_e1000.a(e1000_80003es2lan.o)
e1000_power_up_fiber_serdes_link                  /home/vadim/projects/ipaugenblick/dpdk-1.6.0r2/x86_64-default-linuxapp-gcc/lib/librte_pmd_e1000.a(e1000_api.o)
e1000_power_up_phy                                /home/vadim/projects/ipaugenblick/dpdk-1.6.0r2/x86_64-default-linuxapp-gcc/lib/librte_pmd_e1000.a(e1000_api.o)
                                                  /home/vadim/projects/ipaugenblick/dpdk-1.6.0r2/x86_64-default-linuxapp-gcc/lib/librte_pmd_e1000.a(em_ethdev.o)
                                                  /home/vadim/projects/ipaugenblick/dpdk-1.6.0r2/x86_64-default-linuxapp-gcc/lib/librte_pmd_e1000.a(igb_ethdev.o)
e1000_power_up_phy_copper                         /home/vadim/projects/ipaugenblick/dpdk-1.6.0r2/x86_64-default-linuxapp-gcc/lib/librte_pmd_e1000.a(e1000_phy.o)
                                                  /home/vadim/projects/ipaugenblick/dpdk-1.6.0r2/x86_64-default-linuxapp-gcc/lib/librte_pmd_e1000.a(e1000_ich8lan.o)
                                                  /home/vadim/projects/ipaugenblick/dpdk-1.6.0r2/x86_64-default-linuxapp-gcc/lib/librte_pmd_e1000.a(e1000_82575.o)
                                                  /home/vadim/projects/ipaugenblick/dpdk-1.6.0r2/x86_64-default-linuxapp-gcc/lib/librte_pmd_e1000.a(e1000_82571.o)
                                                  /home/vadim/projects/ipaugenblick/dpdk-1.6.0r2/x86_64-default-linuxapp-gcc/lib/librte_pmd_e1000.a(e1000_82543.o)
                                                  /home/vadim/projects/ipaugenblick/dpdk-1.6.0r2/x86_64-default-linuxapp-gcc/lib/librte_pmd_e1000.a(e1000_82541.o)
                                                  /home/vadim/projects/ipaugenblick/dpdk-1.6.0r2/x86_64-default-linuxapp-gcc/lib/librte_pmd_e1000.a(e1000_82540.o)
                                                  /home/vadim/projects/ipaugenblick/dpdk-1.6.0r2/x86_64-default-linuxapp-gcc/lib/librte_pmd_e1000.a(e1000_80003es2lan.o)
e1000_promisc_set_vf                              /home/vadim/projects/ipaugenblick/dpdk-1.6.0r2/x86_64-default-linuxapp-gcc/lib/librte_pmd_e1000.a(e1000_vf.o)
e1000_put_hw_semaphore_generic                    /home/vadim/projects/ipaugenblick/dpdk-1.6.0r2/x86_64-default-linuxapp-gcc/lib/librte_pmd_e1000.a(e1000_mac.o)
                                                  /home/vadim/projects/ipaugenblick/dpdk-1.6.0r2/x86_64-default-linuxapp-gcc/lib/librte_pmd_e1000.a(igb_ethdev.o)
                                                  /home/vadim/projects/ipaugenblick/dpdk-1.6.0r2/x86_64-default-linuxapp-gcc/lib/librte_pmd_e1000.a(e1000_i210.o)
                                                  /home/vadim/projects/ipaugenblick/dpdk-1.6.0r2/x86_64-default-linuxapp-gcc/lib/librte_pmd_e1000.a(e1000_82575.o)
                                                  /home/vadim/projects/ipaugenblick/dpdk-1.6.0r2/x86_64-default-linuxapp-gcc/lib/librte_pmd_e1000.a(e1000_80003es2lan.o)
e1000_rar_set                                     /home/vadim/projects/ipaugenblick/dpdk-1.6.0r2/x86_64-default-linuxapp-gcc/lib/librte_pmd_e1000.a(e1000_api.o)
                                                  /home/vadim/projects/ipaugenblick/dpdk-1.6.0r2/x86_64-default-linuxapp-gcc/lib/librte_pmd_e1000.a(em_ethdev.o)
                                                  /home/vadim/projects/ipaugenblick/dpdk-1.6.0r2/x86_64-default-linuxapp-gcc/lib/librte_pmd_e1000.a(igb_ethdev.o)
e1000_read_emi_reg                                /home/vadim/projects/ipaugenblick/dpdk-1.6.0r2/x86_64-default-linuxapp-gcc/lib/librte_pmd_e1000.a(e1000_82575.o)
e1000_read_emi_reg_locked                         /home/vadim/projects/ipaugenblick/dpdk-1.6.0r2/x86_64-default-linuxapp-gcc/lib/librte_pmd_e1000.a(e1000_ich8lan.o)
e1000_read_i2c_byte_generic                       /home/vadim/projects/ipaugenblick/dpdk-1.6.0r2/x86_64-default-linuxapp-gcc/lib/librte_pmd_e1000.a(e1000_82575.o)
e1000_read_i2c_byte_null                          /home/vadim/projects/ipaugenblick/dpdk-1.6.0r2/x86_64-default-linuxapp-gcc/lib/librte_pmd_e1000.a(e1000_phy.o)
e1000_read_invm_version                           /home/vadim/projects/ipaugenblick/dpdk-1.6.0r2/x86_64-default-linuxapp-gcc/lib/librte_pmd_e1000.a(e1000_i210.o)
                                                  /home/vadim/projects/ipaugenblick/dpdk-1.6.0r2/x86_64-default-linuxapp-gcc/lib/librte_pmd_e1000.a(e1000_nvm.o)
e1000_read_kmrn_reg                               /home/vadim/projects/ipaugenblick/dpdk-1.6.0r2/x86_64-default-linuxapp-gcc/lib/librte_pmd_e1000.a(e1000_api.o)
e1000_read_kmrn_reg_generic                       /home/vadim/projects/ipaugenblick/dpdk-1.6.0r2/x86_64-default-linuxapp-gcc/lib/librte_pmd_e1000.a(e1000_phy.o)
                                                  /home/vadim/projects/ipaugenblick/dpdk-1.6.0r2/x86_64-default-linuxapp-gcc/lib/librte_pmd_e1000.a(e1000_ich8lan.o)
                                                  /home/vadim/projects/ipaugenblick/dpdk-1.6.0r2/x86_64-default-linuxapp-gcc/lib/librte_pmd_e1000.a(e1000_api.o)
e1000_read_kmrn_reg_locked                        /home/vadim/projects/ipaugenblick/dpdk-1.6.0r2/x86_64-default-linuxapp-gcc/lib/librte_pmd_e1000.a(e1000_phy.o)
                                                  /home/vadim/projects/ipaugenblick/dpdk-1.6.0r2/x86_64-default-linuxapp-gcc/lib/librte_pmd_e1000.a(e1000_ich8lan.o)
e1000_read_mac_addr                               /home/vadim/projects/ipaugenblick/dpdk-1.6.0r2/x86_64-default-linuxapp-gcc/lib/librte_pmd_e1000.a(e1000_api.o)
                                                  /home/vadim/projects/ipaugenblick/dpdk-1.6.0r2/x86_64-default-linuxapp-gcc/lib/librte_pmd_e1000.a(em_ethdev.o)
                                                  /home/vadim/projects/ipaugenblick/dpdk-1.6.0r2/x86_64-default-linuxapp-gcc/lib/librte_pmd_e1000.a(igb_ethdev.o)
e1000_read_mac_addr_generic                       /home/vadim/projects/ipaugenblick/dpdk-1.6.0r2/x86_64-default-linuxapp-gcc/lib/librte_pmd_e1000.a(e1000_nvm.o)
                                                  /home/vadim/projects/ipaugenblick/dpdk-1.6.0r2/x86_64-default-linuxapp-gcc/lib/librte_pmd_e1000.a(e1000_mac.o)
                                                  /home/vadim/projects/ipaugenblick/dpdk-1.6.0r2/x86_64-default-linuxapp-gcc/lib/librte_pmd_e1000.a(e1000_api.o)
                                                  /home/vadim/projects/ipaugenblick/dpdk-1.6.0r2/x86_64-default-linuxapp-gcc/lib/librte_pmd_e1000.a(e1000_82575.o)
                                                  /home/vadim/projects/ipaugenblick/dpdk-1.6.0r2/x86_64-default-linuxapp-gcc/lib/librte_pmd_e1000.a(e1000_82571.o)
                                                  /home/vadim/projects/ipaugenblick/dpdk-1.6.0r2/x86_64-default-linuxapp-gcc/lib/librte_pmd_e1000.a(e1000_80003es2lan.o)
e1000_read_mbx                                    /home/vadim/projects/ipaugenblick/dpdk-1.6.0r2/x86_64-default-linuxapp-gcc/lib/librte_pmd_e1000.a(e1000_mbx.o)
                                                  /home/vadim/projects/ipaugenblick/dpdk-1.6.0r2/x86_64-default-linuxapp-gcc/lib/librte_pmd_e1000.a(igb_pf.o)
e1000_read_nvm                                    /home/vadim/projects/ipaugenblick/dpdk-1.6.0r2/x86_64-default-linuxapp-gcc/lib/librte_pmd_e1000.a(e1000_api.o)
                                                  /home/vadim/projects/ipaugenblick/dpdk-1.6.0r2/x86_64-default-linuxapp-gcc/lib/librte_pmd_e1000.a(e1000_nvm.o)
                                                  /home/vadim/projects/ipaugenblick/dpdk-1.6.0r2/x86_64-default-linuxapp-gcc/lib/librte_pmd_e1000.a(e1000_manage.o)
                                                  /home/vadim/projects/ipaugenblick/dpdk-1.6.0r2/x86_64-default-linuxapp-gcc/lib/librte_pmd_e1000.a(e1000_ich8lan.o)
e1000_read_nvm_eerd                               /home/vadim/projects/ipaugenblick/dpdk-1.6.0r2/x86_64-default-linuxapp-gcc/lib/librte_pmd_e1000.a(e1000_nvm.o)
                                                  /home/vadim/projects/ipaugenblick/dpdk-1.6.0r2/x86_64-default-linuxapp-gcc/lib/librte_pmd_e1000.a(e1000_i210.o)
                                                  /home/vadim/projects/ipaugenblick/dpdk-1.6.0r2/x86_64-default-linuxapp-gcc/lib/librte_pmd_e1000.a(e1000_82575.o)
                                                  /home/vadim/projects/ipaugenblick/dpdk-1.6.0r2/x86_64-default-linuxapp-gcc/lib/librte_pmd_e1000.a(e1000_82571.o)
                                                  /home/vadim/projects/ipaugenblick/dpdk-1.6.0r2/x86_64-default-linuxapp-gcc/lib/librte_pmd_e1000.a(e1000_80003es2lan.o)
e1000_read_nvm_microwire                          /home/vadim/projects/ipaugenblick/dpdk-1.6.0r2/x86_64-default-linuxapp-gcc/lib/librte_pmd_e1000.a(e1000_nvm.o)
                                                  /home/vadim/projects/ipaugenblick/dpdk-1.6.0r2/x86_64-default-linuxapp-gcc/lib/librte_pmd_e1000.a(e1000_82543.o)
                                                  /home/vadim/projects/ipaugenblick/dpdk-1.6.0r2/x86_64-default-linuxapp-gcc/lib/librte_pmd_e1000.a(e1000_82542.o)
                                                  /home/vadim/projects/ipaugenblick/dpdk-1.6.0r2/x86_64-default-linuxapp-gcc/lib/librte_pmd_e1000.a(e1000_82541.o)
                                                  /home/vadim/projects/ipaugenblick/dpdk-1.6.0r2/x86_64-default-linuxapp-gcc/lib/librte_pmd_e1000.a(e1000_82540.o)
e1000_read_nvm_spi                                /home/vadim/projects/ipaugenblick/dpdk-1.6.0r2/x86_64-default-linuxapp-gcc/lib/librte_pmd_e1000.a(e1000_nvm.o)
                                                  /home/vadim/projects/ipaugenblick/dpdk-1.6.0r2/x86_64-default-linuxapp-gcc/lib/librte_pmd_e1000.a(e1000_82575.o)
                                                  /home/vadim/projects/ipaugenblick/dpdk-1.6.0r2/x86_64-default-linuxapp-gcc/lib/librte_pmd_e1000.a(e1000_82541.o)
e1000_read_nvm_srrd_i210                          /home/vadim/projects/ipaugenblick/dpdk-1.6.0r2/x86_64-default-linuxapp-gcc/lib/librte_pmd_e1000.a(e1000_i210.o)
e1000_read_pba_length                             /home/vadim/projects/ipaugenblick/dpdk-1.6.0r2/x86_64-default-linuxapp-gcc/lib/librte_pmd_e1000.a(e1000_api.o)
e1000_read_pba_length_generic                     /home/vadim/projects/ipaugenblick/dpdk-1.6.0r2/x86_64-default-linuxapp-gcc/lib/librte_pmd_e1000.a(e1000_nvm.o)
                                                  /home/vadim/projects/ipaugenblick/dpdk-1.6.0r2/x86_64-default-linuxapp-gcc/lib/librte_pmd_e1000.a(e1000_api.o)
e1000_read_pba_num                                /home/vadim/projects/ipaugenblick/dpdk-1.6.0r2/x86_64-default-linuxapp-gcc/lib/librte_pmd_e1000.a(e1000_api.o)
e1000_read_pba_num_generic                        /home/vadim/projects/ipaugenblick/dpdk-1.6.0r2/x86_64-default-linuxapp-gcc/lib/librte_pmd_e1000.a(e1000_nvm.o)
                                                  /home/vadim/projects/ipaugenblick/dpdk-1.6.0r2/x86_64-default-linuxapp-gcc/lib/librte_pmd_e1000.a(e1000_api.o)
e1000_read_pba_raw                                /home/vadim/projects/ipaugenblick/dpdk-1.6.0r2/x86_64-default-linuxapp-gcc/lib/librte_pmd_e1000.a(e1000_nvm.o)
e1000_read_pba_string                             /home/vadim/projects/ipaugenblick/dpdk-1.6.0r2/x86_64-default-linuxapp-gcc/lib/librte_pmd_e1000.a(e1000_api.o)
e1000_read_pba_string_generic                     /home/vadim/projects/ipaugenblick/dpdk-1.6.0r2/x86_64-default-linuxapp-gcc/lib/librte_pmd_e1000.a(e1000_nvm.o)
                                                  /home/vadim/projects/ipaugenblick/dpdk-1.6.0r2/x86_64-default-linuxapp-gcc/lib/librte_pmd_e1000.a(e1000_api.o)
e1000_read_pci_cfg                                /home/vadim/projects/ipaugenblick/dpdk-1.6.0r2/x86_64-default-linuxapp-gcc/lib/librte_pmd_e1000.a(e1000_osdep.o)
                                                  /home/vadim/projects/ipaugenblick/dpdk-1.6.0r2/x86_64-default-linuxapp-gcc/lib/librte_pmd_e1000.a(e1000_mac.o)
                                                  /home/vadim/projects/ipaugenblick/dpdk-1.6.0r2/x86_64-default-linuxapp-gcc/lib/librte_pmd_e1000.a(e1000_ich8lan.o)
e1000_read_pcie_cap_reg                           /home/vadim/projects/ipaugenblick/dpdk-1.6.0r2/x86_64-default-linuxapp-gcc/lib/librte_pmd_e1000.a(e1000_osdep.o)
                                                  /home/vadim/projects/ipaugenblick/dpdk-1.6.0r2/x86_64-default-linuxapp-gcc/lib/librte_pmd_e1000.a(e1000_mac.o)
                                                  /home/vadim/projects/ipaugenblick/dpdk-1.6.0r2/x86_64-default-linuxapp-gcc/lib/librte_pmd_e1000.a(e1000_82575.o)
e1000_read_phy_reg                                /home/vadim/projects/ipaugenblick/dpdk-1.6.0r2/x86_64-default-linuxapp-gcc/lib/librte_pmd_e1000.a(e1000_api.o)
e1000_read_phy_reg_bm                             /home/vadim/projects/ipaugenblick/dpdk-1.6.0r2/x86_64-default-linuxapp-gcc/lib/librte_pmd_e1000.a(e1000_phy.o)
                                                  /home/vadim/projects/ipaugenblick/dpdk-1.6.0r2/x86_64-default-linuxapp-gcc/lib/librte_pmd_e1000.a(e1000_ich8lan.o)
e1000_read_phy_reg_bm2                            /home/vadim/projects/ipaugenblick/dpdk-1.6.0r2/x86_64-default-linuxapp-gcc/lib/librte_pmd_e1000.a(e1000_phy.o)
                                                  /home/vadim/projects/ipaugenblick/dpdk-1.6.0r2/x86_64-default-linuxapp-gcc/lib/librte_pmd_e1000.a(e1000_82571.o)
e1000_read_phy_reg_gs40g                          /home/vadim/projects/ipaugenblick/dpdk-1.6.0r2/x86_64-default-linuxapp-gcc/lib/librte_pmd_e1000.a(e1000_phy.o)
                                                  /home/vadim/projects/ipaugenblick/dpdk-1.6.0r2/x86_64-default-linuxapp-gcc/lib/librte_pmd_e1000.a(e1000_82575.o)
e1000_read_phy_reg_hv                             /home/vadim/projects/ipaugenblick/dpdk-1.6.0r2/x86_64-default-linuxapp-gcc/lib/librte_pmd_e1000.a(e1000_phy.o)
                                                  /home/vadim/projects/ipaugenblick/dpdk-1.6.0r2/x86_64-default-linuxapp-gcc/lib/librte_pmd_e1000.a(e1000_ich8lan.o)
e1000_read_phy_reg_hv_locked                      /home/vadim/projects/ipaugenblick/dpdk-1.6.0r2/x86_64-default-linuxapp-gcc/lib/librte_pmd_e1000.a(e1000_phy.o)
                                                  /home/vadim/projects/ipaugenblick/dpdk-1.6.0r2/x86_64-default-linuxapp-gcc/lib/librte_pmd_e1000.a(e1000_ich8lan.o)
e1000_read_phy_reg_i2c                            /home/vadim/projects/ipaugenblick/dpdk-1.6.0r2/x86_64-default-linuxapp-gcc/lib/librte_pmd_e1000.a(e1000_phy.o)
                                                  /home/vadim/projects/ipaugenblick/dpdk-1.6.0r2/x86_64-default-linuxapp-gcc/lib/librte_pmd_e1000.a(e1000_82575.o)
e1000_read_phy_reg_igp                            /home/vadim/projects/ipaugenblick/dpdk-1.6.0r2/x86_64-default-linuxapp-gcc/lib/librte_pmd_e1000.a(e1000_phy.o)
                                                  /home/vadim/projects/ipaugenblick/dpdk-1.6.0r2/x86_64-default-linuxapp-gcc/lib/librte_pmd_e1000.a(e1000_ich8lan.o)
                                                  /home/vadim/projects/ipaugenblick/dpdk-1.6.0r2/x86_64-default-linuxapp-gcc/lib/librte_pmd_e1000.a(e1000_82575.o)
                                                  /home/vadim/projects/ipaugenblick/dpdk-1.6.0r2/x86_64-default-linuxapp-gcc/lib/librte_pmd_e1000.a(e1000_82571.o)
                                                  /home/vadim/projects/ipaugenblick/dpdk-1.6.0r2/x86_64-default-linuxapp-gcc/lib/librte_pmd_e1000.a(e1000_82541.o)
e1000_read_phy_reg_igp_locked                     /home/vadim/projects/ipaugenblick/dpdk-1.6.0r2/x86_64-default-linuxapp-gcc/lib/librte_pmd_e1000.a(e1000_phy.o)
                                                  /home/vadim/projects/ipaugenblick/dpdk-1.6.0r2/x86_64-default-linuxapp-gcc/lib/librte_pmd_e1000.a(e1000_ich8lan.o)
e1000_read_phy_reg_m88                            /home/vadim/projects/ipaugenblick/dpdk-1.6.0r2/x86_64-default-linuxapp-gcc/lib/librte_pmd_e1000.a(e1000_phy.o)
                                                  /home/vadim/projects/ipaugenblick/dpdk-1.6.0r2/x86_64-default-linuxapp-gcc/lib/librte_pmd_e1000.a(e1000_82571.o)
                                                  /home/vadim/projects/ipaugenblick/dpdk-1.6.0r2/x86_64-default-linuxapp-gcc/lib/librte_pmd_e1000.a(e1000_82543.o)
                                                  /home/vadim/projects/ipaugenblick/dpdk-1.6.0r2/x86_64-default-linuxapp-gcc/lib/librte_pmd_e1000.a(e1000_82540.o)
e1000_read_phy_reg_mdic                           /home/vadim/projects/ipaugenblick/dpdk-1.6.0r2/x86_64-default-linuxapp-gcc/lib/librte_pmd_e1000.a(e1000_phy.o)
                                                  /home/vadim/projects/ipaugenblick/dpdk-1.6.0r2/x86_64-default-linuxapp-gcc/lib/librte_pmd_e1000.a(e1000_82575.o)
                                                  /home/vadim/projects/ipaugenblick/dpdk-1.6.0r2/x86_64-default-linuxapp-gcc/lib/librte_pmd_e1000.a(e1000_80003es2lan.o)
e1000_read_phy_reg_mphy                           /home/vadim/projects/ipaugenblick/dpdk-1.6.0r2/x86_64-default-linuxapp-gcc/lib/librte_pmd_e1000.a(e1000_phy.o)
e1000_read_phy_reg_page_hv                        /home/vadim/projects/ipaugenblick/dpdk-1.6.0r2/x86_64-default-linuxapp-gcc/lib/librte_pmd_e1000.a(e1000_phy.o)
                                                  /home/vadim/projects/ipaugenblick/dpdk-1.6.0r2/x86_64-default-linuxapp-gcc/lib/librte_pmd_e1000.a(e1000_ich8lan.o)
e1000_read_posted_mbx                             /home/vadim/projects/ipaugenblick/dpdk-1.6.0r2/x86_64-default-linuxapp-gcc/lib/librte_pmd_e1000.a(e1000_mbx.o)
e1000_read_sfp_data_byte                          /home/vadim/projects/ipaugenblick/dpdk-1.6.0r2/x86_64-default-linuxapp-gcc/lib/librte_pmd_e1000.a(e1000_phy.o)
                                                  /home/vadim/projects/ipaugenblick/dpdk-1.6.0r2/x86_64-default-linuxapp-gcc/lib/librte_pmd_e1000.a(e1000_82575.o)
e1000_read_xmdio_reg                              /home/vadim/projects/ipaugenblick/dpdk-1.6.0r2/x86_64-default-linuxapp-gcc/lib/librte_pmd_e1000.a(e1000_i210.o)
                                                  /home/vadim/projects/ipaugenblick/dpdk-1.6.0r2/x86_64-default-linuxapp-gcc/lib/librte_pmd_e1000.a(e1000_82575.o)
e1000_release_nvm_generic                         /home/vadim/projects/ipaugenblick/dpdk-1.6.0r2/x86_64-default-linuxapp-gcc/lib/librte_pmd_e1000.a(e1000_nvm.o)
                                                  /home/vadim/projects/ipaugenblick/dpdk-1.6.0r2/x86_64-default-linuxapp-gcc/lib/librte_pmd_e1000.a(e1000_82575.o)
                                                  /home/vadim/projects/ipaugenblick/dpdk-1.6.0r2/x86_64-default-linuxapp-gcc/lib/librte_pmd_e1000.a(e1000_82571.o)
                                                  /home/vadim/projects/ipaugenblick/dpdk-1.6.0r2/x86_64-default-linuxapp-gcc/lib/librte_pmd_e1000.a(e1000_82541.o)
                                                  /home/vadim/projects/ipaugenblick/dpdk-1.6.0r2/x86_64-default-linuxapp-gcc/lib/librte_pmd_e1000.a(e1000_82540.o)
                                                  /home/vadim/projects/ipaugenblick/dpdk-1.6.0r2/x86_64-default-linuxapp-gcc/lib/librte_pmd_e1000.a(e1000_80003es2lan.o)
e1000_release_phy                                 /home/vadim/projects/ipaugenblick/dpdk-1.6.0r2/x86_64-default-linuxapp-gcc/lib/librte_pmd_e1000.a(e1000_api.o)
e1000_release_swfw_sync_i210                      /home/vadim/projects/ipaugenblick/dpdk-1.6.0r2/x86_64-default-linuxapp-gcc/lib/librte_pmd_e1000.a(e1000_i210.o)
                                                  /home/vadim/projects/ipaugenblick/dpdk-1.6.0r2/x86_64-default-linuxapp-gcc/lib/librte_pmd_e1000.a(e1000_82575.o)
e1000_reload_nvm                                  /home/vadim/projects/ipaugenblick/dpdk-1.6.0r2/x86_64-default-linuxapp-gcc/lib/librte_pmd_e1000.a(e1000_api.o)
e1000_reset_adaptive                              /home/vadim/projects/ipaugenblick/dpdk-1.6.0r2/x86_64-default-linuxapp-gcc/lib/librte_pmd_e1000.a(e1000_api.o)
e1000_reset_adaptive_generic                      /home/vadim/projects/ipaugenblick/dpdk-1.6.0r2/x86_64-default-linuxapp-gcc/lib/librte_pmd_e1000.a(e1000_mac.o)
                                                  /home/vadim/projects/ipaugenblick/dpdk-1.6.0r2/x86_64-default-linuxapp-gcc/lib/librte_pmd_e1000.a(e1000_api.o)
e1000_reset_hw                                    /home/vadim/projects/ipaugenblick/dpdk-1.6.0r2/x86_64-default-linuxapp-gcc/lib/librte_pmd_e1000.a(e1000_api.o)
                                                  /home/vadim/projects/ipaugenblick/dpdk-1.6.0r2/x86_64-default-linuxapp-gcc/lib/librte_pmd_e1000.a(em_ethdev.o)
                                                  /home/vadim/projects/ipaugenblick/dpdk-1.6.0r2/x86_64-default-linuxapp-gcc/lib/librte_pmd_e1000.a(igb_ethdev.o)
e1000_resume_workarounds_pchlan                   /home/vadim/projects/ipaugenblick/dpdk-1.6.0r2/x86_64-default-linuxapp-gcc/lib/librte_pmd_e1000.a(e1000_ich8lan.o)
e1000_rlpml_set_vf                                /home/vadim/projects/ipaugenblick/dpdk-1.6.0r2/x86_64-default-linuxapp-gcc/lib/librte_pmd_e1000.a(e1000_vf.o)
e1000_rx_fifo_flush_82575                         /home/vadim/projects/ipaugenblick/dpdk-1.6.0r2/x86_64-default-linuxapp-gcc/lib/librte_pmd_e1000.a(e1000_82575.o)
e1000_rxpbs_adjust_82580                          /home/vadim/projects/ipaugenblick/dpdk-1.6.0r2/x86_64-default-linuxapp-gcc/lib/librte_pmd_e1000.a(e1000_82575.o)
                                                  /home/vadim/projects/ipaugenblick/dpdk-1.6.0r2/x86_64-default-linuxapp-gcc/lib/librte_pmd_e1000.a(igb_ethdev.o)
e1000_set_d0_lplu_state                           /home/vadim/projects/ipaugenblick/dpdk-1.6.0r2/x86_64-default-linuxapp-gcc/lib/librte_pmd_e1000.a(e1000_api.o)
e1000_set_d3_lplu_state                           /home/vadim/projects/ipaugenblick/dpdk-1.6.0r2/x86_64-default-linuxapp-gcc/lib/librte_pmd_e1000.a(e1000_api.o)
e1000_set_d3_lplu_state_generic                   /home/vadim/projects/ipaugenblick/dpdk-1.6.0r2/x86_64-default-linuxapp-gcc/lib/librte_pmd_e1000.a(e1000_phy.o)
                                                  /home/vadim/projects/ipaugenblick/dpdk-1.6.0r2/x86_64-default-linuxapp-gcc/lib/librte_pmd_e1000.a(e1000_82575.o)
                                                  /home/vadim/projects/ipaugenblick/dpdk-1.6.0r2/x86_64-default-linuxapp-gcc/lib/librte_pmd_e1000.a(e1000_82571.o)
                                                  /home/vadim/projects/ipaugenblick/dpdk-1.6.0r2/x86_64-default-linuxapp-gcc/lib/librte_pmd_e1000.a(e1000_82541.o)
                                                  /home/vadim/projects/ipaugenblick/dpdk-1.6.0r2/x86_64-default-linuxapp-gcc/lib/librte_pmd_e1000.a(e1000_80003es2lan.o)
e1000_set_default_fc_generic                      /home/vadim/projects/ipaugenblick/dpdk-1.6.0r2/x86_64-default-linuxapp-gcc/lib/librte_pmd_e1000.a(e1000_mac.o)
                                                  /home/vadim/projects/ipaugenblick/dpdk-1.6.0r2/x86_64-default-linuxapp-gcc/lib/librte_pmd_e1000.a(e1000_82542.o)
e1000_set_eee_i350                                /home/vadim/projects/ipaugenblick/dpdk-1.6.0r2/x86_64-default-linuxapp-gcc/lib/librte_pmd_e1000.a(e1000_82575.o)
e1000_set_eee_i354                                /home/vadim/projects/ipaugenblick/dpdk-1.6.0r2/x86_64-default-linuxapp-gcc/lib/librte_pmd_e1000.a(e1000_82575.o)
e1000_set_eee_pchlan                              /home/vadim/projects/ipaugenblick/dpdk-1.6.0r2/x86_64-default-linuxapp-gcc/lib/librte_pmd_e1000.a(e1000_ich8lan.o)
e1000_set_fc_watermarks_generic                   /home/vadim/projects/ipaugenblick/dpdk-1.6.0r2/x86_64-default-linuxapp-gcc/lib/librte_pmd_e1000.a(e1000_mac.o)
                                                  /home/vadim/projects/ipaugenblick/dpdk-1.6.0r2/x86_64-default-linuxapp-gcc/lib/librte_pmd_e1000.a(e1000_ich8lan.o)
                                                  /home/vadim/projects/ipaugenblick/dpdk-1.6.0r2/x86_64-default-linuxapp-gcc/lib/librte_pmd_e1000.a(e1000_82542.o)
e1000_set_i2c_bb                                  /home/vadim/projects/ipaugenblick/dpdk-1.6.0r2/x86_64-default-linuxapp-gcc/lib/librte_pmd_e1000.a(e1000_82575.o)
e1000_set_kmrn_lock_loss_workaround_ich8lan       /home/vadim/projects/ipaugenblick/dpdk-1.6.0r2/x86_64-default-linuxapp-gcc/lib/librte_pmd_e1000.a(e1000_ich8lan.o)
e1000_set_laa_state_82571                         /home/vadim/projects/ipaugenblick/dpdk-1.6.0r2/x86_64-default-linuxapp-gcc/lib/librte_pmd_e1000.a(e1000_82571.o)
                                                  /home/vadim/projects/ipaugenblick/dpdk-1.6.0r2/x86_64-default-linuxapp-gcc/lib/librte_pmd_e1000.a(em_ethdev.o)
e1000_set_lan_id_multi_port_pci                   /home/vadim/projects/ipaugenblick/dpdk-1.6.0r2/x86_64-default-linuxapp-gcc/lib/librte_pmd_e1000.a(e1000_mac.o)
                                                  /home/vadim/projects/ipaugenblick/dpdk-1.6.0r2/x86_64-default-linuxapp-gcc/lib/librte_pmd_e1000.a(e1000_82543.o)
                                                  /home/vadim/projects/ipaugenblick/dpdk-1.6.0r2/x86_64-default-linuxapp-gcc/lib/librte_pmd_e1000.a(e1000_82542.o)
                                                  /home/vadim/projects/ipaugenblick/dpdk-1.6.0r2/x86_64-default-linuxapp-gcc/lib/librte_pmd_e1000.a(e1000_82540.o)
e1000_set_lan_id_single_port                      /home/vadim/projects/ipaugenblick/dpdk-1.6.0r2/x86_64-default-linuxapp-gcc/lib/librte_pmd_e1000.a(e1000_mac.o)
                                                  /home/vadim/projects/ipaugenblick/dpdk-1.6.0r2/x86_64-default-linuxapp-gcc/lib/librte_pmd_e1000.a(e1000_ich8lan.o)
                                                  /home/vadim/projects/ipaugenblick/dpdk-1.6.0r2/x86_64-default-linuxapp-gcc/lib/librte_pmd_e1000.a(e1000_82571.o)
                                                  /home/vadim/projects/ipaugenblick/dpdk-1.6.0r2/x86_64-default-linuxapp-gcc/lib/librte_pmd_e1000.a(e1000_82541.o)
e1000_set_mac_type                                /home/vadim/projects/ipaugenblick/dpdk-1.6.0r2/x86_64-default-linuxapp-gcc/lib/librte_pmd_e1000.a(e1000_api.o)
                                                  /home/vadim/projects/ipaugenblick/dpdk-1.6.0r2/x86_64-default-linuxapp-gcc/lib/librte_pmd_e1000.a(igb_ethdev.o)
e1000_set_page_igp                                /home/vadim/projects/ipaugenblick/dpdk-1.6.0r2/x86_64-default-linuxapp-gcc/lib/librte_pmd_e1000.a(e1000_phy.o)
                                                  /home/vadim/projects/ipaugenblick/dpdk-1.6.0r2/x86_64-default-linuxapp-gcc/lib/librte_pmd_e1000.a(e1000_ich8lan.o)
e1000_set_pcie_no_snoop_generic                   /home/vadim/projects/ipaugenblick/dpdk-1.6.0r2/x86_64-default-linuxapp-gcc/lib/librte_pmd_e1000.a(e1000_mac.o)
                                                  /home/vadim/projects/ipaugenblick/dpdk-1.6.0r2/x86_64-default-linuxapp-gcc/lib/librte_pmd_e1000.a(e1000_ich8lan.o)
e1000_set_tbi_compatibility_82543                 /home/vadim/projects/ipaugenblick/dpdk-1.6.0r2/x86_64-default-linuxapp-gcc/lib/librte_pmd_e1000.a(e1000_82543.o)
                                                  /home/vadim/projects/ipaugenblick/dpdk-1.6.0r2/x86_64-default-linuxapp-gcc/lib/librte_pmd_e1000.a(em_ethdev.o)
e1000_setup_copper_link_generic                   /home/vadim/projects/ipaugenblick/dpdk-1.6.0r2/x86_64-default-linuxapp-gcc/lib/librte_pmd_e1000.a(e1000_phy.o)
                                                  /home/vadim/projects/ipaugenblick/dpdk-1.6.0r2/x86_64-default-linuxapp-gcc/lib/librte_pmd_e1000.a(e1000_ich8lan.o)
                                                  /home/vadim/projects/ipaugenblick/dpdk-1.6.0r2/x86_64-default-linuxapp-gcc/lib/librte_pmd_e1000.a(e1000_82575.o)
                                                  /home/vadim/projects/ipaugenblick/dpdk-1.6.0r2/x86_64-default-linuxapp-gcc/lib/librte_pmd_e1000.a(e1000_82571.o)
                                                  /home/vadim/projects/ipaugenblick/dpdk-1.6.0r2/x86_64-default-linuxapp-gcc/lib/librte_pmd_e1000.a(e1000_82541.o)
                                                  /home/vadim/projects/ipaugenblick/dpdk-1.6.0r2/x86_64-default-linuxapp-gcc/lib/librte_pmd_e1000.a(e1000_82540.o)
                                                  /home/vadim/projects/ipaugenblick/dpdk-1.6.0r2/x86_64-default-linuxapp-gcc/lib/librte_pmd_e1000.a(e1000_80003es2lan.o)
e1000_setup_fiber_serdes_link_generic             /home/vadim/projects/ipaugenblick/dpdk-1.6.0r2/x86_64-default-linuxapp-gcc/lib/librte_pmd_e1000.a(e1000_mac.o)
                                                  /home/vadim/projects/ipaugenblick/dpdk-1.6.0r2/x86_64-default-linuxapp-gcc/lib/librte_pmd_e1000.a(e1000_82571.o)
                                                  /home/vadim/projects/ipaugenblick/dpdk-1.6.0r2/x86_64-default-linuxapp-gcc/lib/librte_pmd_e1000.a(e1000_82542.o)
                                                  /home/vadim/projects/ipaugenblick/dpdk-1.6.0r2/x86_64-default-linuxapp-gcc/lib/librte_pmd_e1000.a(e1000_82540.o)
                                                  /home/vadim/projects/ipaugenblick/dpdk-1.6.0r2/x86_64-default-linuxapp-gcc/lib/librte_pmd_e1000.a(e1000_80003es2lan.o)
e1000_setup_init_funcs                            /home/vadim/projects/ipaugenblick/dpdk-1.6.0r2/x86_64-default-linuxapp-gcc/lib/librte_pmd_e1000.a(e1000_api.o)
                                                  /home/vadim/projects/ipaugenblick/dpdk-1.6.0r2/x86_64-default-linuxapp-gcc/lib/librte_pmd_e1000.a(em_ethdev.o)
                                                  /home/vadim/projects/ipaugenblick/dpdk-1.6.0r2/x86_64-default-linuxapp-gcc/lib/librte_pmd_e1000.a(igb_ethdev.o)
e1000_setup_led                                   /home/vadim/projects/ipaugenblick/dpdk-1.6.0r2/x86_64-default-linuxapp-gcc/lib/librte_pmd_e1000.a(e1000_api.o)
e1000_setup_led_generic                           /home/vadim/projects/ipaugenblick/dpdk-1.6.0r2/x86_64-default-linuxapp-gcc/lib/librte_pmd_e1000.a(e1000_mac.o)
                                                  /home/vadim/projects/ipaugenblick/dpdk-1.6.0r2/x86_64-default-linuxapp-gcc/lib/librte_pmd_e1000.a(e1000_ich8lan.o)
                                                  /home/vadim/projects/ipaugenblick/dpdk-1.6.0r2/x86_64-default-linuxapp-gcc/lib/librte_pmd_e1000.a(e1000_82575.o)
                                                  /home/vadim/projects/ipaugenblick/dpdk-1.6.0r2/x86_64-default-linuxapp-gcc/lib/librte_pmd_e1000.a(e1000_82571.o)
                                                  /home/vadim/projects/ipaugenblick/dpdk-1.6.0r2/x86_64-default-linuxapp-gcc/lib/librte_pmd_e1000.a(e1000_82540.o)
                                                  /home/vadim/projects/ipaugenblick/dpdk-1.6.0r2/x86_64-default-linuxapp-gcc/lib/librte_pmd_e1000.a(e1000_80003es2lan.o)
e1000_setup_link                                  /home/vadim/projects/ipaugenblick/dpdk-1.6.0r2/x86_64-default-linuxapp-gcc/lib/librte_pmd_e1000.a(e1000_api.o)
                                                  /home/vadim/projects/ipaugenblick/dpdk-1.6.0r2/x86_64-default-linuxapp-gcc/lib/librte_pmd_e1000.a(em_ethdev.o)
                                                  /home/vadim/projects/ipaugenblick/dpdk-1.6.0r2/x86_64-default-linuxapp-gcc/lib/librte_pmd_e1000.a(igb_ethdev.o)
e1000_setup_link_generic                          /home/vadim/projects/ipaugenblick/dpdk-1.6.0r2/x86_64-default-linuxapp-gcc/lib/librte_pmd_e1000.a(e1000_mac.o)
                                                  /home/vadim/projects/ipaugenblick/dpdk-1.6.0r2/x86_64-default-linuxapp-gcc/lib/librte_pmd_e1000.a(em_ethdev.o)
                                                  /home/vadim/projects/ipaugenblick/dpdk-1.6.0r2/x86_64-default-linuxapp-gcc/lib/librte_pmd_e1000.a(igb_ethdev.o)
                                                  /home/vadim/projects/ipaugenblick/dpdk-1.6.0r2/x86_64-default-linuxapp-gcc/lib/librte_pmd_e1000.a(e1000_82575.o)
                                                  /home/vadim/projects/ipaugenblick/dpdk-1.6.0r2/x86_64-default-linuxapp-gcc/lib/librte_pmd_e1000.a(e1000_82571.o)
                                                  /home/vadim/projects/ipaugenblick/dpdk-1.6.0r2/x86_64-default-linuxapp-gcc/lib/librte_pmd_e1000.a(e1000_82543.o)
                                                  /home/vadim/projects/ipaugenblick/dpdk-1.6.0r2/x86_64-default-linuxapp-gcc/lib/librte_pmd_e1000.a(e1000_82541.o)
                                                  /home/vadim/projects/ipaugenblick/dpdk-1.6.0r2/x86_64-default-linuxapp-gcc/lib/librte_pmd_e1000.a(e1000_82540.o)
                                                  /home/vadim/projects/ipaugenblick/dpdk-1.6.0r2/x86_64-default-linuxapp-gcc/lib/librte_pmd_e1000.a(e1000_80003es2lan.o)
e1000_shutdown_fiber_serdes_link                  /home/vadim/projects/ipaugenblick/dpdk-1.6.0r2/x86_64-default-linuxapp-gcc/lib/librte_pmd_e1000.a(e1000_api.o)
e1000_stop_nvm                                    /home/vadim/projects/ipaugenblick/dpdk-1.6.0r2/x86_64-default-linuxapp-gcc/lib/librte_pmd_e1000.a(e1000_nvm.o)
                                                  /home/vadim/projects/ipaugenblick/dpdk-1.6.0r2/x86_64-default-linuxapp-gcc/lib/librte_pmd_e1000.a(e1000_82542.o)
e1000_suspend_workarounds_ich8lan                 /home/vadim/projects/ipaugenblick/dpdk-1.6.0r2/x86_64-default-linuxapp-gcc/lib/librte_pmd_e1000.a(e1000_ich8lan.o)
e1000_tbi_adjust_stats_82543                      /home/vadim/projects/ipaugenblick/dpdk-1.6.0r2/x86_64-default-linuxapp-gcc/lib/librte_pmd_e1000.a(e1000_82543.o)
e1000_tbi_sbp_enabled_82543                       /home/vadim/projects/ipaugenblick/dpdk-1.6.0r2/x86_64-default-linuxapp-gcc/lib/librte_pmd_e1000.a(e1000_82543.o)
e1000_toggle_lanphypc_pch_lpt                     /home/vadim/projects/ipaugenblick/dpdk-1.6.0r2/x86_64-default-linuxapp-gcc/lib/librte_pmd_e1000.a(e1000_ich8lan.o)
e1000_translate_register_82542                    /home/vadim/projects/ipaugenblick/dpdk-1.6.0r2/x86_64-default-linuxapp-gcc/lib/librte_pmd_e1000.a(e1000_82542.o)
e1000_update_adaptive                             /home/vadim/projects/ipaugenblick/dpdk-1.6.0r2/x86_64-default-linuxapp-gcc/lib/librte_pmd_e1000.a(e1000_api.o)
e1000_update_adaptive_generic                     /home/vadim/projects/ipaugenblick/dpdk-1.6.0r2/x86_64-default-linuxapp-gcc/lib/librte_pmd_e1000.a(e1000_mac.o)
                                                  /home/vadim/projects/ipaugenblick/dpdk-1.6.0r2/x86_64-default-linuxapp-gcc/lib/librte_pmd_e1000.a(e1000_api.o)
e1000_update_flash_i210                           /home/vadim/projects/ipaugenblick/dpdk-1.6.0r2/x86_64-default-linuxapp-gcc/lib/librte_pmd_e1000.a(e1000_i210.o)
e1000_update_mc_addr_list                         /home/vadim/projects/ipaugenblick/dpdk-1.6.0r2/x86_64-default-linuxapp-gcc/lib/librte_pmd_e1000.a(e1000_api.o)
e1000_update_mc_addr_list_generic                 /home/vadim/projects/ipaugenblick/dpdk-1.6.0r2/x86_64-default-linuxapp-gcc/lib/librte_pmd_e1000.a(e1000_mac.o)
                                                  /home/vadim/projects/ipaugenblick/dpdk-1.6.0r2/x86_64-default-linuxapp-gcc/lib/librte_pmd_e1000.a(e1000_ich8lan.o)
                                                  /home/vadim/projects/ipaugenblick/dpdk-1.6.0r2/x86_64-default-linuxapp-gcc/lib/librte_pmd_e1000.a(e1000_82575.o)
                                                  /home/vadim/projects/ipaugenblick/dpdk-1.6.0r2/x86_64-default-linuxapp-gcc/lib/librte_pmd_e1000.a(e1000_82571.o)
                                                  /home/vadim/projects/ipaugenblick/dpdk-1.6.0r2/x86_64-default-linuxapp-gcc/lib/librte_pmd_e1000.a(e1000_82543.o)
                                                  /home/vadim/projects/ipaugenblick/dpdk-1.6.0r2/x86_64-default-linuxapp-gcc/lib/librte_pmd_e1000.a(e1000_82542.o)
                                                  /home/vadim/projects/ipaugenblick/dpdk-1.6.0r2/x86_64-default-linuxapp-gcc/lib/librte_pmd_e1000.a(e1000_82541.o)
                                                  /home/vadim/projects/ipaugenblick/dpdk-1.6.0r2/x86_64-default-linuxapp-gcc/lib/librte_pmd_e1000.a(e1000_82540.o)
                                                  /home/vadim/projects/ipaugenblick/dpdk-1.6.0r2/x86_64-default-linuxapp-gcc/lib/librte_pmd_e1000.a(e1000_80003es2lan.o)
e1000_update_nvm_checksum                         /home/vadim/projects/ipaugenblick/dpdk-1.6.0r2/x86_64-default-linuxapp-gcc/lib/librte_pmd_e1000.a(e1000_api.o)
e1000_update_nvm_checksum_generic                 /home/vadim/projects/ipaugenblick/dpdk-1.6.0r2/x86_64-default-linuxapp-gcc/lib/librte_pmd_e1000.a(e1000_nvm.o)
                                                  /home/vadim/projects/ipaugenblick/dpdk-1.6.0r2/x86_64-default-linuxapp-gcc/lib/librte_pmd_e1000.a(e1000_82575.o)
                                                  /home/vadim/projects/ipaugenblick/dpdk-1.6.0r2/x86_64-default-linuxapp-gcc/lib/librte_pmd_e1000.a(e1000_82571.o)
                                                  /home/vadim/projects/ipaugenblick/dpdk-1.6.0r2/x86_64-default-linuxapp-gcc/lib/librte_pmd_e1000.a(e1000_82543.o)
                                                  /home/vadim/projects/ipaugenblick/dpdk-1.6.0r2/x86_64-default-linuxapp-gcc/lib/librte_pmd_e1000.a(e1000_82542.o)
                                                  /home/vadim/projects/ipaugenblick/dpdk-1.6.0r2/x86_64-default-linuxapp-gcc/lib/librte_pmd_e1000.a(e1000_82541.o)
                                                  /home/vadim/projects/ipaugenblick/dpdk-1.6.0r2/x86_64-default-linuxapp-gcc/lib/librte_pmd_e1000.a(e1000_82540.o)
                                                  /home/vadim/projects/ipaugenblick/dpdk-1.6.0r2/x86_64-default-linuxapp-gcc/lib/librte_pmd_e1000.a(e1000_80003es2lan.o)
e1000_update_nvm_checksum_i210                    /home/vadim/projects/ipaugenblick/dpdk-1.6.0r2/x86_64-default-linuxapp-gcc/lib/librte_pmd_e1000.a(e1000_i210.o)
e1000_valid_led_default_generic                   /home/vadim/projects/ipaugenblick/dpdk-1.6.0r2/x86_64-default-linuxapp-gcc/lib/librte_pmd_e1000.a(e1000_mac.o)
                                                  /home/vadim/projects/ipaugenblick/dpdk-1.6.0r2/x86_64-default-linuxapp-gcc/lib/librte_pmd_e1000.a(e1000_82543.o)
                                                  /home/vadim/projects/ipaugenblick/dpdk-1.6.0r2/x86_64-default-linuxapp-gcc/lib/librte_pmd_e1000.a(e1000_82541.o)
                                                  /home/vadim/projects/ipaugenblick/dpdk-1.6.0r2/x86_64-default-linuxapp-gcc/lib/librte_pmd_e1000.a(e1000_82540.o)
                                                  /home/vadim/projects/ipaugenblick/dpdk-1.6.0r2/x86_64-default-linuxapp-gcc/lib/librte_pmd_e1000.a(e1000_80003es2lan.o)
e1000_validate_mdi_setting                        /home/vadim/projects/ipaugenblick/dpdk-1.6.0r2/x86_64-default-linuxapp-gcc/lib/librte_pmd_e1000.a(e1000_api.o)
e1000_validate_mdi_setting_crossover_generic      /home/vadim/projects/ipaugenblick/dpdk-1.6.0r2/x86_64-default-linuxapp-gcc/lib/librte_pmd_e1000.a(e1000_mac.o)
                                                  /home/vadim/projects/ipaugenblick/dpdk-1.6.0r2/x86_64-default-linuxapp-gcc/lib/librte_pmd_e1000.a(e1000_82575.o)
e1000_validate_nvm_checksum                       /home/vadim/projects/ipaugenblick/dpdk-1.6.0r2/x86_64-default-linuxapp-gcc/lib/librte_pmd_e1000.a(e1000_api.o)
                                                  /home/vadim/projects/ipaugenblick/dpdk-1.6.0r2/x86_64-default-linuxapp-gcc/lib/librte_pmd_e1000.a(em_ethdev.o)
                                                  /home/vadim/projects/ipaugenblick/dpdk-1.6.0r2/x86_64-default-linuxapp-gcc/lib/librte_pmd_e1000.a(igb_ethdev.o)
e1000_validate_nvm_checksum_generic               /home/vadim/projects/ipaugenblick/dpdk-1.6.0r2/x86_64-default-linuxapp-gcc/lib/librte_pmd_e1000.a(e1000_nvm.o)
                                                  /home/vadim/projects/ipaugenblick/dpdk-1.6.0r2/x86_64-default-linuxapp-gcc/lib/librte_pmd_e1000.a(e1000_i210.o)
                                                  /home/vadim/projects/ipaugenblick/dpdk-1.6.0r2/x86_64-default-linuxapp-gcc/lib/librte_pmd_e1000.a(e1000_82575.o)
                                                  /home/vadim/projects/ipaugenblick/dpdk-1.6.0r2/x86_64-default-linuxapp-gcc/lib/librte_pmd_e1000.a(e1000_82571.o)
                                                  /home/vadim/projects/ipaugenblick/dpdk-1.6.0r2/x86_64-default-linuxapp-gcc/lib/librte_pmd_e1000.a(e1000_82543.o)
                                                  /home/vadim/projects/ipaugenblick/dpdk-1.6.0r2/x86_64-default-linuxapp-gcc/lib/librte_pmd_e1000.a(e1000_82542.o)
                                                  /home/vadim/projects/ipaugenblick/dpdk-1.6.0r2/x86_64-default-linuxapp-gcc/lib/librte_pmd_e1000.a(e1000_82541.o)
                                                  /home/vadim/projects/ipaugenblick/dpdk-1.6.0r2/x86_64-default-linuxapp-gcc/lib/librte_pmd_e1000.a(e1000_82540.o)
                                                  /home/vadim/projects/ipaugenblick/dpdk-1.6.0r2/x86_64-default-linuxapp-gcc/lib/librte_pmd_e1000.a(e1000_80003es2lan.o)
e1000_validate_nvm_checksum_i210                  /home/vadim/projects/ipaugenblick/dpdk-1.6.0r2/x86_64-default-linuxapp-gcc/lib/librte_pmd_e1000.a(e1000_i210.o)
e1000_vfta_set_vf                                 /home/vadim/projects/ipaugenblick/dpdk-1.6.0r2/x86_64-default-linuxapp-gcc/lib/librte_pmd_e1000.a(e1000_vf.o)
e1000_vmdq_set_anti_spoofing_pf                   /home/vadim/projects/ipaugenblick/dpdk-1.6.0r2/x86_64-default-linuxapp-gcc/lib/librte_pmd_e1000.a(e1000_82575.o)
                                                  /home/vadim/projects/ipaugenblick/dpdk-1.6.0r2/x86_64-default-linuxapp-gcc/lib/librte_pmd_e1000.a(igb_pf.o)
e1000_vmdq_set_loopback_pf                        /home/vadim/projects/ipaugenblick/dpdk-1.6.0r2/x86_64-default-linuxapp-gcc/lib/librte_pmd_e1000.a(e1000_82575.o)
e1000_vmdq_set_replication_pf                     /home/vadim/projects/ipaugenblick/dpdk-1.6.0r2/x86_64-default-linuxapp-gcc/lib/librte_pmd_e1000.a(e1000_82575.o)
e1000_write_8bit_ctrl_reg                         /home/vadim/projects/ipaugenblick/dpdk-1.6.0r2/x86_64-default-linuxapp-gcc/lib/librte_pmd_e1000.a(e1000_api.o)
e1000_write_8bit_ctrl_reg_generic                 /home/vadim/projects/ipaugenblick/dpdk-1.6.0r2/x86_64-default-linuxapp-gcc/lib/librte_pmd_e1000.a(e1000_mac.o)
                                                  /home/vadim/projects/ipaugenblick/dpdk-1.6.0r2/x86_64-default-linuxapp-gcc/lib/librte_pmd_e1000.a(e1000_api.o)
                                                  /home/vadim/projects/ipaugenblick/dpdk-1.6.0r2/x86_64-default-linuxapp-gcc/lib/librte_pmd_e1000.a(e1000_82575.o)
e1000_write_emi_reg_locked                        /home/vadim/projects/ipaugenblick/dpdk-1.6.0r2/x86_64-default-linuxapp-gcc/lib/librte_pmd_e1000.a(e1000_ich8lan.o)
e1000_write_i2c_byte_generic                      /home/vadim/projects/ipaugenblick/dpdk-1.6.0r2/x86_64-default-linuxapp-gcc/lib/librte_pmd_e1000.a(e1000_82575.o)
e1000_write_i2c_byte_null                         /home/vadim/projects/ipaugenblick/dpdk-1.6.0r2/x86_64-default-linuxapp-gcc/lib/librte_pmd_e1000.a(e1000_phy.o)
e1000_write_kmrn_reg                              /home/vadim/projects/ipaugenblick/dpdk-1.6.0r2/x86_64-default-linuxapp-gcc/lib/librte_pmd_e1000.a(e1000_api.o)
e1000_write_kmrn_reg_generic                      /home/vadim/projects/ipaugenblick/dpdk-1.6.0r2/x86_64-default-linuxapp-gcc/lib/librte_pmd_e1000.a(e1000_phy.o)
                                                  /home/vadim/projects/ipaugenblick/dpdk-1.6.0r2/x86_64-default-linuxapp-gcc/lib/librte_pmd_e1000.a(e1000_ich8lan.o)
                                                  /home/vadim/projects/ipaugenblick/dpdk-1.6.0r2/x86_64-default-linuxapp-gcc/lib/librte_pmd_e1000.a(e1000_api.o)
e1000_write_kmrn_reg_locked                       /home/vadim/projects/ipaugenblick/dpdk-1.6.0r2/x86_64-default-linuxapp-gcc/lib/librte_pmd_e1000.a(e1000_phy.o)
                                                  /home/vadim/projects/ipaugenblick/dpdk-1.6.0r2/x86_64-default-linuxapp-gcc/lib/librte_pmd_e1000.a(e1000_ich8lan.o)
e1000_write_mbx                                   /home/vadim/projects/ipaugenblick/dpdk-1.6.0r2/x86_64-default-linuxapp-gcc/lib/librte_pmd_e1000.a(e1000_mbx.o)
                                                  /home/vadim/projects/ipaugenblick/dpdk-1.6.0r2/x86_64-default-linuxapp-gcc/lib/librte_pmd_e1000.a(igb_pf.o)
e1000_write_nvm                                   /home/vadim/projects/ipaugenblick/dpdk-1.6.0r2/x86_64-default-linuxapp-gcc/lib/librte_pmd_e1000.a(e1000_api.o)
                                                  /home/vadim/projects/ipaugenblick/dpdk-1.6.0r2/x86_64-default-linuxapp-gcc/lib/librte_pmd_e1000.a(e1000_nvm.o)
e1000_write_nvm_microwire                         /home/vadim/projects/ipaugenblick/dpdk-1.6.0r2/x86_64-default-linuxapp-gcc/lib/librte_pmd_e1000.a(e1000_nvm.o)
                                                  /home/vadim/projects/ipaugenblick/dpdk-1.6.0r2/x86_64-default-linuxapp-gcc/lib/librte_pmd_e1000.a(e1000_82543.o)
                                                  /home/vadim/projects/ipaugenblick/dpdk-1.6.0r2/x86_64-default-linuxapp-gcc/lib/librte_pmd_e1000.a(e1000_82542.o)
                                                  /home/vadim/projects/ipaugenblick/dpdk-1.6.0r2/x86_64-default-linuxapp-gcc/lib/librte_pmd_e1000.a(e1000_82541.o)
                                                  /home/vadim/projects/ipaugenblick/dpdk-1.6.0r2/x86_64-default-linuxapp-gcc/lib/librte_pmd_e1000.a(e1000_82540.o)
e1000_write_nvm_spi                               /home/vadim/projects/ipaugenblick/dpdk-1.6.0r2/x86_64-default-linuxapp-gcc/lib/librte_pmd_e1000.a(e1000_nvm.o)
                                                  /home/vadim/projects/ipaugenblick/dpdk-1.6.0r2/x86_64-default-linuxapp-gcc/lib/librte_pmd_e1000.a(e1000_82575.o)
                                                  /home/vadim/projects/ipaugenblick/dpdk-1.6.0r2/x86_64-default-linuxapp-gcc/lib/librte_pmd_e1000.a(e1000_82571.o)
                                                  /home/vadim/projects/ipaugenblick/dpdk-1.6.0r2/x86_64-default-linuxapp-gcc/lib/librte_pmd_e1000.a(e1000_82541.o)
                                                  /home/vadim/projects/ipaugenblick/dpdk-1.6.0r2/x86_64-default-linuxapp-gcc/lib/librte_pmd_e1000.a(e1000_80003es2lan.o)
e1000_write_nvm_srwr_i210                         /home/vadim/projects/ipaugenblick/dpdk-1.6.0r2/x86_64-default-linuxapp-gcc/lib/librte_pmd_e1000.a(e1000_i210.o)
e1000_write_pba_raw                               /home/vadim/projects/ipaugenblick/dpdk-1.6.0r2/x86_64-default-linuxapp-gcc/lib/librte_pmd_e1000.a(e1000_nvm.o)
e1000_write_pci_cfg                               /home/vadim/projects/ipaugenblick/dpdk-1.6.0r2/x86_64-default-linuxapp-gcc/lib/librte_pmd_e1000.a(e1000_osdep.o)
                                                  /home/vadim/projects/ipaugenblick/dpdk-1.6.0r2/x86_64-default-linuxapp-gcc/lib/librte_pmd_e1000.a(e1000_mac.o)
e1000_write_pcie_cap_reg                          /home/vadim/projects/ipaugenblick/dpdk-1.6.0r2/x86_64-default-linuxapp-gcc/lib/librte_pmd_e1000.a(e1000_osdep.o)
                                                  /home/vadim/projects/ipaugenblick/dpdk-1.6.0r2/x86_64-default-linuxapp-gcc/lib/librte_pmd_e1000.a(e1000_82575.o)
e1000_write_phy_reg                               /home/vadim/projects/ipaugenblick/dpdk-1.6.0r2/x86_64-default-linuxapp-gcc/lib/librte_pmd_e1000.a(e1000_api.o)
e1000_write_phy_reg_bm                            /home/vadim/projects/ipaugenblick/dpdk-1.6.0r2/x86_64-default-linuxapp-gcc/lib/librte_pmd_e1000.a(e1000_phy.o)
                                                  /home/vadim/projects/ipaugenblick/dpdk-1.6.0r2/x86_64-default-linuxapp-gcc/lib/librte_pmd_e1000.a(e1000_ich8lan.o)
e1000_write_phy_reg_bm2                           /home/vadim/projects/ipaugenblick/dpdk-1.6.0r2/x86_64-default-linuxapp-gcc/lib/librte_pmd_e1000.a(e1000_phy.o)
                                                  /home/vadim/projects/ipaugenblick/dpdk-1.6.0r2/x86_64-default-linuxapp-gcc/lib/librte_pmd_e1000.a(e1000_82571.o)
e1000_write_phy_reg_gs40g                         /home/vadim/projects/ipaugenblick/dpdk-1.6.0r2/x86_64-default-linuxapp-gcc/lib/librte_pmd_e1000.a(e1000_phy.o)
                                                  /home/vadim/projects/ipaugenblick/dpdk-1.6.0r2/x86_64-default-linuxapp-gcc/lib/librte_pmd_e1000.a(e1000_82575.o)
e1000_write_phy_reg_hv                            /home/vadim/projects/ipaugenblick/dpdk-1.6.0r2/x86_64-default-linuxapp-gcc/lib/librte_pmd_e1000.a(e1000_phy.o)
                                                  /home/vadim/projects/ipaugenblick/dpdk-1.6.0r2/x86_64-default-linuxapp-gcc/lib/librte_pmd_e1000.a(e1000_ich8lan.o)
e1000_write_phy_reg_hv_locked                     /home/vadim/projects/ipaugenblick/dpdk-1.6.0r2/x86_64-default-linuxapp-gcc/lib/librte_pmd_e1000.a(e1000_phy.o)
                                                  /home/vadim/projects/ipaugenblick/dpdk-1.6.0r2/x86_64-default-linuxapp-gcc/lib/librte_pmd_e1000.a(e1000_ich8lan.o)
e1000_write_phy_reg_i2c                           /home/vadim/projects/ipaugenblick/dpdk-1.6.0r2/x86_64-default-linuxapp-gcc/lib/librte_pmd_e1000.a(e1000_phy.o)
                                                  /home/vadim/projects/ipaugenblick/dpdk-1.6.0r2/x86_64-default-linuxapp-gcc/lib/librte_pmd_e1000.a(e1000_82575.o)
e1000_write_phy_reg_igp                           /home/vadim/projects/ipaugenblick/dpdk-1.6.0r2/x86_64-default-linuxapp-gcc/lib/librte_pmd_e1000.a(e1000_phy.o)
                                                  /home/vadim/projects/ipaugenblick/dpdk-1.6.0r2/x86_64-default-linuxapp-gcc/lib/librte_pmd_e1000.a(e1000_ich8lan.o)
                                                  /home/vadim/projects/ipaugenblick/dpdk-1.6.0r2/x86_64-default-linuxapp-gcc/lib/librte_pmd_e1000.a(e1000_82575.o)
                                                  /home/vadim/projects/ipaugenblick/dpdk-1.6.0r2/x86_64-default-linuxapp-gcc/lib/librte_pmd_e1000.a(e1000_82571.o)
                                                  /home/vadim/projects/ipaugenblick/dpdk-1.6.0r2/x86_64-default-linuxapp-gcc/lib/librte_pmd_e1000.a(e1000_82541.o)
e1000_write_phy_reg_igp_locked                    /home/vadim/projects/ipaugenblick/dpdk-1.6.0r2/x86_64-default-linuxapp-gcc/lib/librte_pmd_e1000.a(e1000_phy.o)
                                                  /home/vadim/projects/ipaugenblick/dpdk-1.6.0r2/x86_64-default-linuxapp-gcc/lib/librte_pmd_e1000.a(e1000_ich8lan.o)
e1000_write_phy_reg_m88                           /home/vadim/projects/ipaugenblick/dpdk-1.6.0r2/x86_64-default-linuxapp-gcc/lib/librte_pmd_e1000.a(e1000_phy.o)
                                                  /home/vadim/projects/ipaugenblick/dpdk-1.6.0r2/x86_64-default-linuxapp-gcc/lib/librte_pmd_e1000.a(e1000_82571.o)
                                                  /home/vadim/projects/ipaugenblick/dpdk-1.6.0r2/x86_64-default-linuxapp-gcc/lib/librte_pmd_e1000.a(e1000_82543.o)
                                                  /home/vadim/projects/ipaugenblick/dpdk-1.6.0r2/x86_64-default-linuxapp-gcc/lib/librte_pmd_e1000.a(e1000_82540.o)
e1000_write_phy_reg_mdic                          /home/vadim/projects/ipaugenblick/dpdk-1.6.0r2/x86_64-default-linuxapp-gcc/lib/librte_pmd_e1000.a(e1000_phy.o)
                                                  /home/vadim/projects/ipaugenblick/dpdk-1.6.0r2/x86_64-default-linuxapp-gcc/lib/librte_pmd_e1000.a(e1000_ich8lan.o)
                                                  /home/vadim/projects/ipaugenblick/dpdk-1.6.0r2/x86_64-default-linuxapp-gcc/lib/librte_pmd_e1000.a(e1000_82575.o)
                                                  /home/vadim/projects/ipaugenblick/dpdk-1.6.0r2/x86_64-default-linuxapp-gcc/lib/librte_pmd_e1000.a(e1000_80003es2lan.o)
e1000_write_phy_reg_mphy                          /home/vadim/projects/ipaugenblick/dpdk-1.6.0r2/x86_64-default-linuxapp-gcc/lib/librte_pmd_e1000.a(e1000_phy.o)
e1000_write_phy_reg_page_hv                       /home/vadim/projects/ipaugenblick/dpdk-1.6.0r2/x86_64-default-linuxapp-gcc/lib/librte_pmd_e1000.a(e1000_phy.o)
                                                  /home/vadim/projects/ipaugenblick/dpdk-1.6.0r2/x86_64-default-linuxapp-gcc/lib/librte_pmd_e1000.a(e1000_ich8lan.o)
e1000_write_posted_mbx                            /home/vadim/projects/ipaugenblick/dpdk-1.6.0r2/x86_64-default-linuxapp-gcc/lib/librte_pmd_e1000.a(e1000_mbx.o)
e1000_write_sfp_data_byte                         /home/vadim/projects/ipaugenblick/dpdk-1.6.0r2/x86_64-default-linuxapp-gcc/lib/librte_pmd_e1000.a(e1000_phy.o)
e1000_write_vfta                                  /home/vadim/projects/ipaugenblick/dpdk-1.6.0r2/x86_64-default-linuxapp-gcc/lib/librte_pmd_e1000.a(e1000_api.o)
e1000_write_vfta_generic                          /home/vadim/projects/ipaugenblick/dpdk-1.6.0r2/x86_64-default-linuxapp-gcc/lib/librte_pmd_e1000.a(e1000_mac.o)
                                                  /home/vadim/projects/ipaugenblick/dpdk-1.6.0r2/x86_64-default-linuxapp-gcc/lib/librte_pmd_e1000.a(e1000_82575.o)
                                                  /home/vadim/projects/ipaugenblick/dpdk-1.6.0r2/x86_64-default-linuxapp-gcc/lib/librte_pmd_e1000.a(e1000_82571.o)
                                                  /home/vadim/projects/ipaugenblick/dpdk-1.6.0r2/x86_64-default-linuxapp-gcc/lib/librte_pmd_e1000.a(e1000_82543.o)
                                                  /home/vadim/projects/ipaugenblick/dpdk-1.6.0r2/x86_64-default-linuxapp-gcc/lib/librte_pmd_e1000.a(e1000_82542.o)
                                                  /home/vadim/projects/ipaugenblick/dpdk-1.6.0r2/x86_64-default-linuxapp-gcc/lib/librte_pmd_e1000.a(e1000_82541.o)
                                                  /home/vadim/projects/ipaugenblick/dpdk-1.6.0r2/x86_64-default-linuxapp-gcc/lib/librte_pmd_e1000.a(e1000_82540.o)
                                                  /home/vadim/projects/ipaugenblick/dpdk-1.6.0r2/x86_64-default-linuxapp-gcc/lib/librte_pmd_e1000.a(e1000_80003es2lan.o)
e1000_write_xmdio_reg                             /home/vadim/projects/ipaugenblick/dpdk-1.6.0r2/x86_64-default-linuxapp-gcc/lib/librte_pmd_e1000.a(e1000_i210.o)
                                                  /home/vadim/projects/ipaugenblick/dpdk-1.6.0r2/x86_64-default-linuxapp-gcc/lib/librte_pmd_e1000.a(e1000_82575.o)
eaccess                                           /lib/x86_64-linux-gnu/libc.so.6
eaccess@@GLIBC_2.4                                /lib/x86_64-linux-gnu/libc.so.6
eaccess@GLIBC_2.4                                 /lib/x86_64-linux-gnu/libc.so.6
eal_hugepage_info_init                            /home/vadim/projects/ipaugenblick/dpdk-1.6.0r2/x86_64-default-linuxapp-gcc/lib/librte_eal.a(eal_hugepage_info.o)
                                                  /home/vadim/projects/ipaugenblick/dpdk-1.6.0r2/x86_64-default-linuxapp-gcc/lib/librte_eal.a(eal.o)
eal_parse_sysfs_value                             /home/vadim/projects/ipaugenblick/dpdk-1.6.0r2/x86_64-default-linuxapp-gcc/lib/librte_eal.a(eal.o)
                                                  /home/vadim/projects/ipaugenblick/dpdk-1.6.0r2/x86_64-default-linuxapp-gcc/lib/librte_eal.a(eal_lcore.o)
                                                  /home/vadim/projects/ipaugenblick/dpdk-1.6.0r2/x86_64-default-linuxapp-gcc/lib/librte_eal.a(eal_pci.o)
                                                  /home/vadim/projects/ipaugenblick/dpdk-1.6.0r2/x86_64-default-linuxapp-gcc/lib/librte_eal.a(eal_hugepage_info.o)
eal_thread_init_master                            /home/vadim/projects/ipaugenblick/dpdk-1.6.0r2/x86_64-default-linuxapp-gcc/lib/librte_eal.a(eal_thread.o)
                                                  /home/vadim/projects/ipaugenblick/dpdk-1.6.0r2/x86_64-default-linuxapp-gcc/lib/librte_eal.a(eal.o)
eal_thread_loop                                   /home/vadim/projects/ipaugenblick/dpdk-1.6.0r2/x86_64-default-linuxapp-gcc/lib/librte_eal.a(eal_thread.o)
                                                  /home/vadim/projects/ipaugenblick/dpdk-1.6.0r2/x86_64-default-linuxapp-gcc/lib/librte_eal.a(eal.o)
eal_timer_source                                  /home/vadim/projects/ipaugenblick/dpdk-1.6.0r2/x86_64-default-linuxapp-gcc/lib/librte_eal.a(eal_timer.o)
                                                  /home/vadim/projects/ipaugenblick/dpdk-1.6.0r2/x86_64-default-linuxapp-gcc/lib/librte_timer.a(rte_timer.o)
em_dev_clear_queues                               /home/vadim/projects/ipaugenblick/dpdk-1.6.0r2/x86_64-default-linuxapp-gcc/lib/librte_pmd_e1000.a(em_rxtx.o)
                                                  /home/vadim/projects/ipaugenblick/dpdk-1.6.0r2/x86_64-default-linuxapp-gcc/lib/librte_pmd_e1000.a(em_ethdev.o)
endmntent                                         /lib/x86_64-linux-gnu/libc.so.6
endmntent@@GLIBC_2.2.5                            /lib/x86_64-linux-gnu/libc.so.6
endmntent@GLIBC_2.2.5                             /lib/x86_64-linux-gnu/libc.so.6
endutent                                          /lib/x86_64-linux-gnu/libc.so.6
endutent@@GLIBC_2.2.5                             /lib/x86_64-linux-gnu/libc.so.6
endutent@GLIBC_2.2.5                              /lib/x86_64-linux-gnu/libc.so.6
environ                                           /lib/x86_64-linux-gnu/libc.so.6
environ@@GLIBC_2.2.5                              /lib/x86_64-linux-gnu/libc.so.6
environ@GLIBC_2.2.5                               /lib/x86_64-linux-gnu/libc.so.6
                                                  /usr/lib/gcc/x86_64-linux-gnu/4.6/../../../x86_64-linux-gnu/libdl.so
epoll_create                                      /lib/x86_64-linux-gnu/libc.so.6
                                                  /home/vadim/projects/ipaugenblick/dpdk-1.6.0r2/x86_64-default-linuxapp-gcc/lib/librte_eal.a(eal_interrupts.o)
epoll_create@@GLIBC_2.3.2                         /lib/x86_64-linux-gnu/libc.so.6
epoll_create@GLIBC_2.3.2                          /lib/x86_64-linux-gnu/libc.so.6
epoll_ctl                                         /lib/x86_64-linux-gnu/libc.so.6
                                                  /home/vadim/projects/ipaugenblick/dpdk-1.6.0r2/x86_64-default-linuxapp-gcc/lib/librte_eal.a(eal_interrupts.o)
epoll_ctl@@GLIBC_2.3.2                            /lib/x86_64-linux-gnu/libc.so.6
epoll_ctl@GLIBC_2.3.2                             /lib/x86_64-linux-gnu/libc.so.6
epoll_wait                                        /lib/x86_64-linux-gnu/libc.so.6
                                                  /home/vadim/projects/ipaugenblick/dpdk-1.6.0r2/x86_64-default-linuxapp-gcc/lib/librte_eal.a(eal_interrupts.o)
epoll_wait@@GLIBC_2.3.2                           /lib/x86_64-linux-gnu/libc.so.6
epoll_wait@GLIBC_2.3.2                            /lib/x86_64-linux-gnu/libc.so.6
erand48_r                                         /lib/x86_64-linux-gnu/libc.so.6
erand48_r@@GLIBC_2.2.5                            /lib/x86_64-linux-gnu/libc.so.6
erand48_r@GLIBC_2.2.5                             /lib/x86_64-linux-gnu/libc.so.6
error                                             /lib/x86_64-linux-gnu/libc.so.6
error@@GLIBC_2.2.5                                /lib/x86_64-linux-gnu/libc.so.6
error@GLIBC_2.2.5                                 /lib/x86_64-linux-gnu/libc.so.6
error_at_line                                     /lib/x86_64-linux-gnu/libc.so.6
error_at_line@@GLIBC_2.2.5                        /lib/x86_64-linux-gnu/libc.so.6
error_at_line@GLIBC_2.2.5                         /lib/x86_64-linux-gnu/libc.so.6
eth_em_recv_pkts                                  /home/vadim/projects/ipaugenblick/dpdk-1.6.0r2/x86_64-default-linuxapp-gcc/lib/librte_pmd_e1000.a(em_rxtx.o)
                                                  /home/vadim/projects/ipaugenblick/dpdk-1.6.0r2/x86_64-default-linuxapp-gcc/lib/librte_pmd_e1000.a(em_ethdev.o)
eth_em_recv_scattered_pkts                        /home/vadim/projects/ipaugenblick/dpdk-1.6.0r2/x86_64-default-linuxapp-gcc/lib/librte_pmd_e1000.a(em_rxtx.o)
                                                  /home/vadim/projects/ipaugenblick/dpdk-1.6.0r2/x86_64-default-linuxapp-gcc/lib/librte_pmd_e1000.a(em_ethdev.o)
eth_em_rx_descriptor_done                         /home/vadim/projects/ipaugenblick/dpdk-1.6.0r2/x86_64-default-linuxapp-gcc/lib/librte_pmd_e1000.a(em_rxtx.o)
                                                  /home/vadim/projects/ipaugenblick/dpdk-1.6.0r2/x86_64-default-linuxapp-gcc/lib/librte_pmd_e1000.a(em_ethdev.o)
eth_em_rx_init                                    /home/vadim/projects/ipaugenblick/dpdk-1.6.0r2/x86_64-default-linuxapp-gcc/lib/librte_pmd_e1000.a(em_rxtx.o)
                                                  /home/vadim/projects/ipaugenblick/dpdk-1.6.0r2/x86_64-default-linuxapp-gcc/lib/librte_pmd_e1000.a(em_ethdev.o)
eth_em_rx_queue_count                             /home/vadim/projects/ipaugenblick/dpdk-1.6.0r2/x86_64-default-linuxapp-gcc/lib/librte_pmd_e1000.a(em_rxtx.o)
                                                  /home/vadim/projects/ipaugenblick/dpdk-1.6.0r2/x86_64-default-linuxapp-gcc/lib/librte_pmd_e1000.a(em_ethdev.o)
eth_em_rx_queue_release                           /home/vadim/projects/ipaugenblick/dpdk-1.6.0r2/x86_64-default-linuxapp-gcc/lib/librte_pmd_e1000.a(em_rxtx.o)
                                                  /home/vadim/projects/ipaugenblick/dpdk-1.6.0r2/x86_64-default-linuxapp-gcc/lib/librte_pmd_e1000.a(em_ethdev.o)
eth_em_rx_queue_setup                             /home/vadim/projects/ipaugenblick/dpdk-1.6.0r2/x86_64-default-linuxapp-gcc/lib/librte_pmd_e1000.a(em_rxtx.o)
                                                  /home/vadim/projects/ipaugenblick/dpdk-1.6.0r2/x86_64-default-linuxapp-gcc/lib/librte_pmd_e1000.a(em_ethdev.o)
eth_em_tx_init                                    /home/vadim/projects/ipaugenblick/dpdk-1.6.0r2/x86_64-default-linuxapp-gcc/lib/librte_pmd_e1000.a(em_rxtx.o)
                                                  /home/vadim/projects/ipaugenblick/dpdk-1.6.0r2/x86_64-default-linuxapp-gcc/lib/librte_pmd_e1000.a(em_ethdev.o)
eth_em_tx_queue_release                           /home/vadim/projects/ipaugenblick/dpdk-1.6.0r2/x86_64-default-linuxapp-gcc/lib/librte_pmd_e1000.a(em_rxtx.o)
                                                  /home/vadim/projects/ipaugenblick/dpdk-1.6.0r2/x86_64-default-linuxapp-gcc/lib/librte_pmd_e1000.a(em_ethdev.o)
eth_em_tx_queue_setup                             /home/vadim/projects/ipaugenblick/dpdk-1.6.0r2/x86_64-default-linuxapp-gcc/lib/librte_pmd_e1000.a(em_rxtx.o)
                                                  /home/vadim/projects/ipaugenblick/dpdk-1.6.0r2/x86_64-default-linuxapp-gcc/lib/librte_pmd_e1000.a(em_ethdev.o)
eth_em_xmit_pkts                                  /home/vadim/projects/ipaugenblick/dpdk-1.6.0r2/x86_64-default-linuxapp-gcc/lib/librte_pmd_e1000.a(em_rxtx.o)
                                                  /home/vadim/projects/ipaugenblick/dpdk-1.6.0r2/x86_64-default-linuxapp-gcc/lib/librte_pmd_e1000.a(em_ethdev.o)
eth_igb_recv_pkts                                 /home/vadim/projects/ipaugenblick/dpdk-1.6.0r2/x86_64-default-linuxapp-gcc/lib/librte_pmd_e1000.a(igb_rxtx.o)
                                                  /home/vadim/projects/ipaugenblick/dpdk-1.6.0r2/x86_64-default-linuxapp-gcc/lib/librte_pmd_e1000.a(igb_ethdev.o)
eth_igb_recv_scattered_pkts                       /home/vadim/projects/ipaugenblick/dpdk-1.6.0r2/x86_64-default-linuxapp-gcc/lib/librte_pmd_e1000.a(igb_rxtx.o)
                                                  /home/vadim/projects/ipaugenblick/dpdk-1.6.0r2/x86_64-default-linuxapp-gcc/lib/librte_pmd_e1000.a(igb_ethdev.o)
eth_igb_rx_descriptor_done                        /home/vadim/projects/ipaugenblick/dpdk-1.6.0r2/x86_64-default-linuxapp-gcc/lib/librte_pmd_e1000.a(igb_rxtx.o)
                                                  /home/vadim/projects/ipaugenblick/dpdk-1.6.0r2/x86_64-default-linuxapp-gcc/lib/librte_pmd_e1000.a(igb_ethdev.o)
eth_igb_rx_init                                   /home/vadim/projects/ipaugenblick/dpdk-1.6.0r2/x86_64-default-linuxapp-gcc/lib/librte_pmd_e1000.a(igb_rxtx.o)
                                                  /home/vadim/projects/ipaugenblick/dpdk-1.6.0r2/x86_64-default-linuxapp-gcc/lib/librte_pmd_e1000.a(igb_ethdev.o)
eth_igb_rx_queue_count                            /home/vadim/projects/ipaugenblick/dpdk-1.6.0r2/x86_64-default-linuxapp-gcc/lib/librte_pmd_e1000.a(igb_rxtx.o)
                                                  /home/vadim/projects/ipaugenblick/dpdk-1.6.0r2/x86_64-default-linuxapp-gcc/lib/librte_pmd_e1000.a(igb_ethdev.o)
eth_igb_rx_queue_release                          /home/vadim/projects/ipaugenblick/dpdk-1.6.0r2/x86_64-default-linuxapp-gcc/lib/librte_pmd_e1000.a(igb_rxtx.o)
                                                  /home/vadim/projects/ipaugenblick/dpdk-1.6.0r2/x86_64-default-linuxapp-gcc/lib/librte_pmd_e1000.a(igb_ethdev.o)
eth_igb_rx_queue_setup                            /home/vadim/projects/ipaugenblick/dpdk-1.6.0r2/x86_64-default-linuxapp-gcc/lib/librte_pmd_e1000.a(igb_rxtx.o)
                                                  /home/vadim/projects/ipaugenblick/dpdk-1.6.0r2/x86_64-default-linuxapp-gcc/lib/librte_pmd_e1000.a(igb_ethdev.o)
eth_igb_tx_init                                   /home/vadim/projects/ipaugenblick/dpdk-1.6.0r2/x86_64-default-linuxapp-gcc/lib/librte_pmd_e1000.a(igb_rxtx.o)
                                                  /home/vadim/projects/ipaugenblick/dpdk-1.6.0r2/x86_64-default-linuxapp-gcc/lib/librte_pmd_e1000.a(igb_ethdev.o)
eth_igb_tx_queue_release                          /home/vadim/projects/ipaugenblick/dpdk-1.6.0r2/x86_64-default-linuxapp-gcc/lib/librte_pmd_e1000.a(igb_rxtx.o)
                                                  /home/vadim/projects/ipaugenblick/dpdk-1.6.0r2/x86_64-default-linuxapp-gcc/lib/librte_pmd_e1000.a(igb_ethdev.o)
eth_igb_tx_queue_setup                            /home/vadim/projects/ipaugenblick/dpdk-1.6.0r2/x86_64-default-linuxapp-gcc/lib/librte_pmd_e1000.a(igb_rxtx.o)
                                                  /home/vadim/projects/ipaugenblick/dpdk-1.6.0r2/x86_64-default-linuxapp-gcc/lib/librte_pmd_e1000.a(igb_ethdev.o)
eth_igb_xmit_pkts                                 /home/vadim/projects/ipaugenblick/dpdk-1.6.0r2/x86_64-default-linuxapp-gcc/lib/librte_pmd_e1000.a(igb_rxtx.o)
                                                  /home/vadim/projects/ipaugenblick/dpdk-1.6.0r2/x86_64-default-linuxapp-gcc/lib/librte_pmd_e1000.a(igb_ethdev.o)
eth_igbvf_rx_init                                 /home/vadim/projects/ipaugenblick/dpdk-1.6.0r2/x86_64-default-linuxapp-gcc/lib/librte_pmd_e1000.a(igb_rxtx.o)
                                                  /home/vadim/projects/ipaugenblick/dpdk-1.6.0r2/x86_64-default-linuxapp-gcc/lib/librte_pmd_e1000.a(igb_ethdev.o)
eth_igbvf_tx_init                                 /home/vadim/projects/ipaugenblick/dpdk-1.6.0r2/x86_64-default-linuxapp-gcc/lib/librte_pmd_e1000.a(igb_rxtx.o)
                                                  /home/vadim/projects/ipaugenblick/dpdk-1.6.0r2/x86_64-default-linuxapp-gcc/lib/librte_pmd_e1000.a(igb_ethdev.o)
euidaccess                                        /lib/x86_64-linux-gnu/libc.so.6
euidaccess@@GLIBC_2.2.5                           /lib/x86_64-linux-gnu/libc.so.6
euidaccess@GLIBC_2.2.5                            /lib/x86_64-linux-gnu/libc.so.6
execve                                            /lib/x86_64-linux-gnu/libc.so.6
execve@@GLIBC_2.2.5                               /lib/x86_64-linux-gnu/libc.so.6
execve@GLIBC_2.2.5                                /lib/x86_64-linux-gnu/libc.so.6
execvpe                                           /lib/x86_64-linux-gnu/libc.so.6
execvpe@@GLIBC_2.11                               /lib/x86_64-linux-gnu/libc.so.6
execvpe@GLIBC_2.11                                /lib/x86_64-linux-gnu/libc.so.6
exit                                              /lib/x86_64-linux-gnu/libc.so.6
                                                  /home/vadim/projects/ipaugenblick/dpdk-1.6.0r2/x86_64-default-linuxapp-gcc/lib/librte_eal.a(eal_common_cpuflags.o)
                                                  /home/vadim/projects/ipaugenblick/dpdk-1.6.0r2/x86_64-default-linuxapp-gcc/lib/librte_eal.a(eal_debug.o)
                                                  /home/vadim/projects/ipaugenblick/dpdk-1.6.0r2/x86_64-default-linuxapp-gcc/lib/librte_eal.a(eal.o)
exit@@GLIBC_2.2.5                                 /lib/x86_64-linux-gnu/libc.so.6
exit@GLIBC_2.2.5                                  /lib/x86_64-linux-gnu/libc.so.6
                                                  /lib/x86_64-linux-gnu/libpthread.so.0
fchdir                                            /lib/x86_64-linux-gnu/libc.so.6
fchdir@@GLIBC_2.2.5                               /lib/x86_64-linux-gnu/libc.so.6
fchdir@GLIBC_2.2.5                                /lib/x86_64-linux-gnu/libc.so.6
fchmod                                            /lib/x86_64-linux-gnu/libc.so.6
fchmod@@GLIBC_2.2.5                               /lib/x86_64-linux-gnu/libc.so.6
fchmod@GLIBC_2.2.5                                /lib/x86_64-linux-gnu/libc.so.6
fchown                                            /lib/x86_64-linux-gnu/libc.so.6
fchown@@GLIBC_2.2.5                               /lib/x86_64-linux-gnu/libc.so.6
fchown@GLIBC_2.2.5                                /lib/x86_64-linux-gnu/libc.so.6
fclose                                            /lib/x86_64-linux-gnu/libc.so.6
                                                  /home/vadim/projects/ipaugenblick/dpdk-1.6.0r2/x86_64-default-linuxapp-gcc/lib/librte_eal.a(eal_timer.o)
                                                  /home/vadim/projects/ipaugenblick/dpdk-1.6.0r2/x86_64-default-linuxapp-gcc/lib/librte_eal.a(eal_pci.o)
                                                  /home/vadim/projects/ipaugenblick/dpdk-1.6.0r2/x86_64-default-linuxapp-gcc/lib/librte_eal.a(eal_memory.o)
                                                  /home/vadim/projects/ipaugenblick/dpdk-1.6.0r2/x86_64-default-linuxapp-gcc/lib/librte_eal.a(eal_hugepage_info.o)
                                                  /home/vadim/projects/ipaugenblick/dpdk-1.6.0r2/x86_64-default-linuxapp-gcc/lib/librte_eal.a(eal.o)
                                                  /home/vadim/projects/ipaugenblick/dpdk-1.6.0r2/x86_64-default-linuxapp-gcc/lib/librte_power.a(rte_power.o)
                                                  parameters.o
fclose@@GLIBC_2.2.5                               /lib/x86_64-linux-gnu/libc.so.6
fclose@GLIBC_2.2.5                                /lib/x86_64-linux-gnu/libc.so.6
                                                  /lib/x86_64-linux-gnu/libpthread.so.0
fcloseall                                         /lib/x86_64-linux-gnu/libc.so.6
fcloseall@@GLIBC_2.2.5                            /lib/x86_64-linux-gnu/libc.so.6
fcloseall@GLIBC_2.2.5                             /lib/x86_64-linux-gnu/libc.so.6
fcntl                                             /lib/x86_64-linux-gnu/libpthread.so.0
                                                  /home/vadim/projects/ipaugenblick/dpdk-1.6.0r2/x86_64-default-linuxapp-gcc/lib/librte_eal.a(eal.o)
fcntl@@GLIBC_2.2.5                                /lib/x86_64-linux-gnu/libpthread.so.0
                                                  /lib/x86_64-linux-gnu/libc.so.6
fcntl@GLIBC_2.2.5                                 /lib/x86_64-linux-gnu/libpthread.so.0
                                                  /usr/lib/gcc/x86_64-linux-gnu/4.6/../../../x86_64-linux-gnu/librt.so
fdir_add_perfect_filter                           config.o
                                                  cmdline.o
fdir_add_signature_filter                         config.o
                                                  cmdline.o
fdir_conf                                         testpmd.o
                                                  config.o
                                                  parameters.o
fdir_get_infos                                    config.o
                                                  cmdline.o
fdir_remove_perfect_filter                        config.o
                                                  cmdline.o
fdir_remove_signature_filter                      config.o
                                                  cmdline.o
fdir_set_masks                                    config.o
                                                  cmdline.o
fdir_update_perfect_filter                        config.o
                                                  cmdline.o
fdir_update_signature_filter                      config.o
                                                  cmdline.o
fdopendir                                         /lib/x86_64-linux-gnu/libc.so.6
fdopendir@@GLIBC_2.4                              /lib/x86_64-linux-gnu/libc.so.6
fdopendir@GLIBC_2.4                               /lib/x86_64-linux-gnu/libc.so.6
feof                                              /lib/x86_64-linux-gnu/libc.so.6
feof@@GLIBC_2.2.5                                 /lib/x86_64-linux-gnu/libc.so.6
feof@GLIBC_2.2.5                                  /lib/x86_64-linux-gnu/libc.so.6
ferror                                            /lib/x86_64-linux-gnu/libc.so.6
ferror@@GLIBC_2.2.5                               /lib/x86_64-linux-gnu/libc.so.6
ferror@GLIBC_2.2.5                                /lib/x86_64-linux-gnu/libc.so.6
fflush                                            /lib/x86_64-linux-gnu/libc.so.6
                                                  /home/vadim/projects/ipaugenblick/dpdk-1.6.0r2/x86_64-default-linuxapp-gcc/lib/librte_eal.a(eal_common_hexdump.o)
                                                  /home/vadim/projects/ipaugenblick/dpdk-1.6.0r2/x86_64-default-linuxapp-gcc/lib/librte_eal.a(eal_common_log.o)
                                                  /home/vadim/projects/ipaugenblick/dpdk-1.6.0r2/x86_64-default-linuxapp-gcc/lib/librte_eal.a(eal_log.o)
                                                  /home/vadim/projects/ipaugenblick/dpdk-1.6.0r2/x86_64-default-linuxapp-gcc/lib/librte_power.a(rte_power.o)
                                                  testpmd.o
fflush@@GLIBC_2.2.5                               /lib/x86_64-linux-gnu/libc.so.6
fflush@GLIBC_2.2.5                                /lib/x86_64-linux-gnu/libc.so.6
ffsl                                              /lib/x86_64-linux-gnu/libc.so.6
ffsl@@GLIBC_2.2.5                                 /lib/x86_64-linux-gnu/libc.so.6
ffsl@GLIBC_2.2.5                                  /lib/x86_64-linux-gnu/libc.so.6
fgetc                                             /lib/x86_64-linux-gnu/libc.so.6
fgetc@@GLIBC_2.2.5                                /lib/x86_64-linux-gnu/libc.so.6
fgetc@GLIBC_2.2.5                                 /lib/x86_64-linux-gnu/libc.so.6
fgetc_unlocked                                    /lib/x86_64-linux-gnu/libc.so.6
fgetc_unlocked@@GLIBC_2.2.5                       /lib/x86_64-linux-gnu/libc.so.6
fgetc_unlocked@GLIBC_2.2.5                        /lib/x86_64-linux-gnu/libc.so.6
fgetgrent_r                                       /lib/x86_64-linux-gnu/libc.so.6
fgetgrent_r@@GLIBC_2.2.5                          /lib/x86_64-linux-gnu/libc.so.6
fgetgrent_r@GLIBC_2.2.5                           /lib/x86_64-linux-gnu/libc.so.6
fgetpwent_r                                       /lib/x86_64-linux-gnu/libc.so.6
fgetpwent_r@@GLIBC_2.2.5                          /lib/x86_64-linux-gnu/libc.so.6
fgetpwent_r@GLIBC_2.2.5                           /lib/x86_64-linux-gnu/libc.so.6
fgets                                             /lib/x86_64-linux-gnu/libc.so.6
                                                  /home/vadim/projects/ipaugenblick/dpdk-1.6.0r2/x86_64-default-linuxapp-gcc/lib/librte_eal.a(eal_timer.o)
                                                  /home/vadim/projects/ipaugenblick/dpdk-1.6.0r2/x86_64-default-linuxapp-gcc/lib/librte_eal.a(eal_pci.o)
                                                  /home/vadim/projects/ipaugenblick/dpdk-1.6.0r2/x86_64-default-linuxapp-gcc/lib/librte_eal.a(eal_memory.o)
                                                  /home/vadim/projects/ipaugenblick/dpdk-1.6.0r2/x86_64-default-linuxapp-gcc/lib/librte_eal.a(eal_hugepage_info.o)
                                                  /home/vadim/projects/ipaugenblick/dpdk-1.6.0r2/x86_64-default-linuxapp-gcc/lib/librte_eal.a(eal.o)
                                                  /home/vadim/projects/ipaugenblick/dpdk-1.6.0r2/x86_64-default-linuxapp-gcc/lib/librte_power.a(rte_power.o)
                                                  parameters.o
fgets@@GLIBC_2.2.5                                /lib/x86_64-linux-gnu/libc.so.6
fgets@GLIBC_2.2.5                                 /lib/x86_64-linux-gnu/libc.so.6
fgetsgent_r                                       /lib/x86_64-linux-gnu/libc.so.6
fgetsgent_r@@GLIBC_2.10                           /lib/x86_64-linux-gnu/libc.so.6
fgetsgent_r@GLIBC_2.10                            /lib/x86_64-linux-gnu/libc.so.6
fgetspent_r                                       /lib/x86_64-linux-gnu/libc.so.6
fgetspent_r@@GLIBC_2.2.5                          /lib/x86_64-linux-gnu/libc.so.6
fgetspent_r@GLIBC_2.2.5                           /lib/x86_64-linux-gnu/libc.so.6
fgetwc                                            /lib/x86_64-linux-gnu/libc.so.6
fgetwc@@GLIBC_2.2.5                               /lib/x86_64-linux-gnu/libc.so.6
fgetwc@GLIBC_2.2.5                                /lib/x86_64-linux-gnu/libc.so.6
fgetwc_unlocked                                   /lib/x86_64-linux-gnu/libc.so.6
fgetwc_unlocked@@GLIBC_2.2.5                      /lib/x86_64-linux-gnu/libc.so.6
fgetwc_unlocked@GLIBC_2.2.5                       /lib/x86_64-linux-gnu/libc.so.6
fileno                                            /lib/x86_64-linux-gnu/libc.so.6
                                                  /home/vadim/projects/ipaugenblick/dpdk-1.6.0r2/x86_64-default-linuxapp-gcc/lib/librte_cmdline.a(cmdline_socket.o)
fileno@@GLIBC_2.2.5                               /lib/x86_64-linux-gnu/libc.so.6
fileno@GLIBC_2.2.5                                /lib/x86_64-linux-gnu/libc.so.6
fileno_unlocked                                   /lib/x86_64-linux-gnu/libc.so.6
fileno_unlocked@@GLIBC_2.2.5                      /lib/x86_64-linux-gnu/libc.so.6
fileno_unlocked@GLIBC_2.2.5                       /lib/x86_64-linux-gnu/libc.so.6
finite                                            /lib/x86_64-linux-gnu/libc.so.6
finite@@GLIBC_2.2.5                               /lib/x86_64-linux-gnu/libc.so.6
finite@GLIBC_2.2.5                                /lib/x86_64-linux-gnu/libc.so.6
finitef                                           /lib/x86_64-linux-gnu/libc.so.6
finitef@@GLIBC_2.2.5                              /lib/x86_64-linux-gnu/libc.so.6
finitef@GLIBC_2.2.5                               /lib/x86_64-linux-gnu/libc.so.6
finitel                                           /lib/x86_64-linux-gnu/libc.so.6
finitel@@GLIBC_2.2.5                              /lib/x86_64-linux-gnu/libc.so.6
finitel@GLIBC_2.2.5                               /lib/x86_64-linux-gnu/libc.so.6
flock                                             /lib/x86_64-linux-gnu/libc.so.6
                                                  /home/vadim/projects/ipaugenblick/dpdk-1.6.0r2/x86_64-default-linuxapp-gcc/lib/librte_eal.a(eal_memory.o)
                                                  /home/vadim/projects/ipaugenblick/dpdk-1.6.0r2/x86_64-default-linuxapp-gcc/lib/librte_eal.a(eal_hugepage_info.o)
                                                  /home/vadim/projects/ipaugenblick/dpdk-1.6.0r2/x86_64-default-linuxapp-gcc/lib/librte_eal.a(eal.o)
flock@@GLIBC_2.2.5                                /lib/x86_64-linux-gnu/libc.so.6
flock@GLIBC_2.2.5                                 /lib/x86_64-linux-gnu/libc.so.6
flockfile                                         /lib/x86_64-linux-gnu/libpthread.so.0
flockfile@@GLIBC_2.2.5                            /lib/x86_64-linux-gnu/libpthread.so.0
                                                  /lib/x86_64-linux-gnu/libc.so.6
flockfile@GLIBC_2.2.5                             /lib/x86_64-linux-gnu/libpthread.so.0
fnmatch                                           /lib/x86_64-linux-gnu/libc.so.6
                                                  /home/vadim/projects/ipaugenblick/dpdk-1.6.0r2/x86_64-default-linuxapp-gcc/lib/librte_eal.a(eal_hugepage_info.o)
fnmatch@@GLIBC_2.2.5                              /lib/x86_64-linux-gnu/libc.so.6
fnmatch@GLIBC_2.2.5                               /lib/x86_64-linux-gnu/libc.so.6
fopen                                             /lib/x86_64-linux-gnu/libc.so.6
                                                  /home/vadim/projects/ipaugenblick/dpdk-1.6.0r2/x86_64-default-linuxapp-gcc/lib/librte_eal.a(eal_timer.o)
                                                  /home/vadim/projects/ipaugenblick/dpdk-1.6.0r2/x86_64-default-linuxapp-gcc/lib/librte_eal.a(eal_pci.o)
                                                  /home/vadim/projects/ipaugenblick/dpdk-1.6.0r2/x86_64-default-linuxapp-gcc/lib/librte_eal.a(eal_hugepage_info.o)
                                                  /home/vadim/projects/ipaugenblick/dpdk-1.6.0r2/x86_64-default-linuxapp-gcc/lib/librte_eal.a(eal.o)
                                                  /home/vadim/projects/ipaugenblick/dpdk-1.6.0r2/x86_64-default-linuxapp-gcc/lib/librte_power.a(rte_power.o)
                                                  parameters.o
fopen64                                           /lib/x86_64-linux-gnu/libc.so.6
                                                  /home/vadim/projects/ipaugenblick/dpdk-1.6.0r2/x86_64-default-linuxapp-gcc/lib/librte_eal.a(eal_memory.o)
fopen64@@GLIBC_2.2.5                              /lib/x86_64-linux-gnu/libc.so.6
fopen64@GLIBC_2.2.5                               /lib/x86_64-linux-gnu/libc.so.6
fopen@@GLIBC_2.2.5                                /lib/x86_64-linux-gnu/libc.so.6
fopen@GLIBC_2.2.5                                 /lib/x86_64-linux-gnu/libc.so.6
                                                  /lib/x86_64-linux-gnu/libpthread.so.0
fopencookie                                       /lib/x86_64-linux-gnu/libc.so.6
                                                  /home/vadim/projects/ipaugenblick/dpdk-1.6.0r2/x86_64-default-linuxapp-gcc/lib/librte_eal.a(eal_log.o)
fopencookie@@GLIBC_2.2.5                          /lib/x86_64-linux-gnu/libc.so.6
fopencookie@GLIBC_2.2.5                           /lib/x86_64-linux-gnu/libc.so.6
fpathconf                                         /lib/x86_64-linux-gnu/libc.so.6
fpathconf@@GLIBC_2.2.5                            /lib/x86_64-linux-gnu/libc.so.6
fpathconf@GLIBC_2.2.5                             /lib/x86_64-linux-gnu/libc.so.6
fputs                                             /lib/x86_64-linux-gnu/libc.so.6
                                                  /home/vadim/projects/ipaugenblick/dpdk-1.6.0r2/x86_64-default-linuxapp-gcc/lib/librte_power.a(rte_power.o)
fputs@@GLIBC_2.2.5                                /lib/x86_64-linux-gnu/libc.so.6
fputs@GLIBC_2.2.5                                 /lib/x86_64-linux-gnu/libc.so.6
fread                                             /lib/x86_64-linux-gnu/libc.so.6
fread@@GLIBC_2.2.5                                /lib/x86_64-linux-gnu/libc.so.6
fread@GLIBC_2.2.5                                 /lib/x86_64-linux-gnu/libc.so.6
free                                              /lib/x86_64-linux-gnu/libc.so.6
                                                  /home/vadim/projects/ipaugenblick/dpdk-1.6.0r2/x86_64-default-linuxapp-gcc/lib/librte_cmdline.a(cmdline.o)
                                                  /home/vadim/projects/ipaugenblick/dpdk-1.6.0r2/x86_64-default-linuxapp-gcc/lib/librte_eal.a(eal_common_devargs.o)
                                                  /home/vadim/projects/ipaugenblick/dpdk-1.6.0r2/x86_64-default-linuxapp-gcc/lib/librte_eal.a(eal_pci.o)
                                                  /home/vadim/projects/ipaugenblick/dpdk-1.6.0r2/x86_64-default-linuxapp-gcc/lib/librte_eal.a(eal_memory.o)
                                                  /home/vadim/projects/ipaugenblick/dpdk-1.6.0r2/x86_64-default-linuxapp-gcc/lib/librte_kvargs.a(rte_kvargs.o)
                                                  mempool_anon.o
free@@GLIBC_2.2.5                                 /lib/x86_64-linux-gnu/libc.so.6
                                                  /lib/x86_64-linux-gnu/ld-linux-x86-64.so.2
free@GLIBC_2.2.5                                  /lib/x86_64-linux-gnu/libc.so.6
                                                  /lib/x86_64-linux-gnu/libpthread.so.0
                                                  /usr/lib/gcc/x86_64-linux-gnu/4.6/../../../x86_64-linux-gnu/libdl.so
                                                  /usr/lib/gcc/x86_64-linux-gnu/4.6/../../../x86_64-linux-gnu/librt.so
freelocale                                        /lib/x86_64-linux-gnu/libc.so.6
freelocale@@GLIBC_2.3                             /lib/x86_64-linux-gnu/libc.so.6
freelocale@GLIBC_2.3                              /lib/x86_64-linux-gnu/libc.so.6
frexp                                             /lib/x86_64-linux-gnu/libc.so.6
frexp@@GLIBC_2.2.5                                /lib/x86_64-linux-gnu/libc.so.6
frexp@GLIBC_2.2.5                                 /lib/x86_64-linux-gnu/libc.so.6
frexpf                                            /lib/x86_64-linux-gnu/libc.so.6
frexpf@@GLIBC_2.2.5                               /lib/x86_64-linux-gnu/libc.so.6
frexpf@GLIBC_2.2.5                                /lib/x86_64-linux-gnu/libc.so.6
frexpl                                            /lib/x86_64-linux-gnu/libc.so.6
frexpl@@GLIBC_2.2.5                               /lib/x86_64-linux-gnu/libc.so.6
frexpl@GLIBC_2.2.5                                /lib/x86_64-linux-gnu/libc.so.6
fscanf                                            /lib/x86_64-linux-gnu/libc.so.6
                                                  /home/vadim/projects/ipaugenblick/dpdk-1.6.0r2/x86_64-default-linuxapp-gcc/lib/librte_eal.a(eal_pci.o)
fscanf@@GLIBC_2.2.5                               /lib/x86_64-linux-gnu/libc.so.6
fscanf@GLIBC_2.2.5                                /lib/x86_64-linux-gnu/libc.so.6
fseek                                             /lib/x86_64-linux-gnu/libc.so.6
                                                  /home/vadim/projects/ipaugenblick/dpdk-1.6.0r2/x86_64-default-linuxapp-gcc/lib/librte_power.a(rte_power.o)
fseek@@GLIBC_2.2.5                                /lib/x86_64-linux-gnu/libc.so.6
fseek@GLIBC_2.2.5                                 /lib/x86_64-linux-gnu/libc.so.6
fseeko64                                          /lib/x86_64-linux-gnu/libc.so.6
fseeko64@@GLIBC_2.2.5                             /lib/x86_64-linux-gnu/libc.so.6
fseeko64@GLIBC_2.2.5                              /lib/x86_64-linux-gnu/libc.so.6
fstatfs                                           /lib/x86_64-linux-gnu/libc.so.6
fstatfs64                                         /lib/x86_64-linux-gnu/libc.so.6
fstatfs64@@GLIBC_2.2.5                            /lib/x86_64-linux-gnu/libc.so.6
fstatfs64@GLIBC_2.2.5                             /lib/x86_64-linux-gnu/libc.so.6
fstatfs@@GLIBC_2.2.5                              /lib/x86_64-linux-gnu/libc.so.6
fstatfs@GLIBC_2.2.5                               /lib/x86_64-linux-gnu/libc.so.6
fstatvfs64                                        /lib/x86_64-linux-gnu/libc.so.6
fstatvfs64@@GLIBC_2.2.5                           /lib/x86_64-linux-gnu/libc.so.6
fstatvfs64@GLIBC_2.2.5                            /lib/x86_64-linux-gnu/libc.so.6
fsync                                             /lib/x86_64-linux-gnu/libpthread.so.0
fsync@@GLIBC_2.2.5                                /lib/x86_64-linux-gnu/libpthread.so.0
                                                  /lib/x86_64-linux-gnu/libc.so.6
fsync@GLIBC_2.2.5                                 /lib/x86_64-linux-gnu/libpthread.so.0
                                                  /usr/lib/gcc/x86_64-linux-gnu/4.6/../../../x86_64-linux-gnu/librt.so
ftell                                             /lib/x86_64-linux-gnu/libc.so.6
ftell@@GLIBC_2.2.5                                /lib/x86_64-linux-gnu/libc.so.6
ftell@GLIBC_2.2.5                                 /lib/x86_64-linux-gnu/libc.so.6
ftello64                                          /lib/x86_64-linux-gnu/libc.so.6
ftello64@@GLIBC_2.2.5                             /lib/x86_64-linux-gnu/libc.so.6
ftello64@GLIBC_2.2.5                              /lib/x86_64-linux-gnu/libc.so.6
ftruncate                                         /lib/x86_64-linux-gnu/libc.so.6
                                                  /home/vadim/projects/ipaugenblick/dpdk-1.6.0r2/x86_64-default-linuxapp-gcc/lib/librte_eal.a(eal.o)
ftruncate64                                       /lib/x86_64-linux-gnu/libc.so.6
                                                  /home/vadim/projects/ipaugenblick/dpdk-1.6.0r2/x86_64-default-linuxapp-gcc/lib/librte_eal.a(eal_memory.o)
ftruncate64@@GLIBC_2.2.5                          /lib/x86_64-linux-gnu/libc.so.6
ftruncate64@GLIBC_2.2.5                           /lib/x86_64-linux-gnu/libc.so.6
ftruncate@@GLIBC_2.2.5                            /lib/x86_64-linux-gnu/libc.so.6
ftruncate@GLIBC_2.2.5                             /lib/x86_64-linux-gnu/libc.so.6
ftrylockfile                                      /lib/x86_64-linux-gnu/libpthread.so.0
ftrylockfile@@GLIBC_2.2.5                         /lib/x86_64-linux-gnu/libpthread.so.0
                                                  /lib/x86_64-linux-gnu/libc.so.6
ftrylockfile@GLIBC_2.2.5                          /lib/x86_64-linux-gnu/libpthread.so.0
ftw64                                             /lib/x86_64-linux-gnu/libc.so.6
ftw64@@GLIBC_2.2.5                                /lib/x86_64-linux-gnu/libc.so.6
ftw64@GLIBC_2.2.5                                 /lib/x86_64-linux-gnu/libc.so.6
funlockfile                                       /lib/x86_64-linux-gnu/libpthread.so.0
funlockfile@@GLIBC_2.2.5                          /lib/x86_64-linux-gnu/libpthread.so.0
                                                  /lib/x86_64-linux-gnu/libc.so.6
funlockfile@GLIBC_2.2.5                           /lib/x86_64-linux-gnu/libpthread.so.0
futimes                                           /lib/x86_64-linux-gnu/libc.so.6
futimes@@GLIBC_2.3                                /lib/x86_64-linux-gnu/libc.so.6
futimes@GLIBC_2.3                                 /lib/x86_64-linux-gnu/libc.so.6
fwd_config_display                                config.o
                                                  cmdline.o
fwd_config_setup                                  config.o
                                                  testpmd.o
fwd_engines                                       testpmd.o
                                                  config.o
fwd_lcores                                        txonly.o
                                                  config.o
                                                  testpmd.o
fwd_lcores_config_display                         config.o
                                                  cmdline.o
fwd_lcores_cpuids                                 txonly.o
                                                  config.o
                                                  testpmd.o
fwd_ports_ids                                     config.o
                                                  testpmd.o
fwd_streams                                       config.o
                                                  testpmd.o
fwprintf                                          /lib/x86_64-linux-gnu/libc.so.6
fwprintf@@GLIBC_2.2.5                             /lib/x86_64-linux-gnu/libc.so.6
fwprintf@GLIBC_2.2.5                              /lib/x86_64-linux-gnu/libc.so.6
fwrite                                            /lib/x86_64-linux-gnu/libc.so.6
                                                  /home/vadim/projects/ipaugenblick/dpdk-1.6.0r2/x86_64-default-linuxapp-gcc/lib/librte_eal.a(eal_common_log.o)
                                                  /home/vadim/projects/ipaugenblick/dpdk-1.6.0r2/x86_64-default-linuxapp-gcc/lib/librte_eal.a(eal_log.o)
fwrite@@GLIBC_2.2.5                               /lib/x86_64-linux-gnu/libc.so.6
fwrite@GLIBC_2.2.5                                /lib/x86_64-linux-gnu/libc.so.6
get_avphys_pages                                  /lib/x86_64-linux-gnu/libc.so.6
get_avphys_pages@@GLIBC_2.2.5                     /lib/x86_64-linux-gnu/libc.so.6
get_avphys_pages@GLIBC_2.2.5                      /lib/x86_64-linux-gnu/libc.so.6
get_nprocs                                        /lib/x86_64-linux-gnu/libc.so.6
get_nprocs@@GLIBC_2.2.5                           /lib/x86_64-linux-gnu/libc.so.6
get_nprocs@GLIBC_2.2.5                            /lib/x86_64-linux-gnu/libc.so.6
get_nprocs_conf                                   /lib/x86_64-linux-gnu/libc.so.6
get_nprocs_conf@@GLIBC_2.2.5                      /lib/x86_64-linux-gnu/libc.so.6
get_nprocs_conf@GLIBC_2.2.5                       /lib/x86_64-linux-gnu/libc.so.6
get_phys_pages                                    /lib/x86_64-linux-gnu/libc.so.6
get_phys_pages@@GLIBC_2.2.5                       /lib/x86_64-linux-gnu/libc.so.6
get_phys_pages@GLIBC_2.2.5                        /lib/x86_64-linux-gnu/libc.so.6
getc                                              /lib/x86_64-linux-gnu/libc.so.6
getc@@GLIBC_2.2.5                                 /lib/x86_64-linux-gnu/libc.so.6
getc@GLIBC_2.2.5                                  /lib/x86_64-linux-gnu/libc.so.6
getc_unlocked                                     /lib/x86_64-linux-gnu/libc.so.6
getc_unlocked@@GLIBC_2.2.5                        /lib/x86_64-linux-gnu/libc.so.6
getc_unlocked@GLIBC_2.2.5                         /lib/x86_64-linux-gnu/libc.so.6
getcontext                                        /lib/x86_64-linux-gnu/libc.so.6
getcontext@@GLIBC_2.2.5                           /lib/x86_64-linux-gnu/libc.so.6
getcontext@GLIBC_2.2.5                            /lib/x86_64-linux-gnu/libc.so.6
getcwd                                            /lib/x86_64-linux-gnu/libc.so.6
getcwd@@GLIBC_2.2.5                               /lib/x86_64-linux-gnu/libc.so.6
getcwd@GLIBC_2.2.5                                /lib/x86_64-linux-gnu/libc.so.6
getdate_r                                         /lib/x86_64-linux-gnu/libc.so.6
getdate_r@@GLIBC_2.2.5                            /lib/x86_64-linux-gnu/libc.so.6
getdate_r@GLIBC_2.2.5                             /lib/x86_64-linux-gnu/libc.so.6
getdelim                                          /lib/x86_64-linux-gnu/libc.so.6
getdelim@@GLIBC_2.2.5                             /lib/x86_64-linux-gnu/libc.so.6
getdelim@GLIBC_2.2.5                              /lib/x86_64-linux-gnu/libc.so.6
getdirentries64                                   /lib/x86_64-linux-gnu/libc.so.6
getdirentries64@@GLIBC_2.2.5                      /lib/x86_64-linux-gnu/libc.so.6
getdirentries64@GLIBC_2.2.5                       /lib/x86_64-linux-gnu/libc.so.6
getdtablesize                                     /lib/x86_64-linux-gnu/libc.so.6
getdtablesize@@GLIBC_2.2.5                        /lib/x86_64-linux-gnu/libc.so.6
getdtablesize@GLIBC_2.2.5                         /lib/x86_64-linux-gnu/libc.so.6
getegid                                           /lib/x86_64-linux-gnu/libc.so.6
getegid@@GLIBC_2.2.5                              /lib/x86_64-linux-gnu/libc.so.6
getegid@GLIBC_2.2.5                               /lib/x86_64-linux-gnu/libc.so.6
getenv                                            /lib/x86_64-linux-gnu/libc.so.6
                                                  /home/vadim/projects/ipaugenblick/dpdk-1.6.0r2/x86_64-default-linuxapp-gcc/lib/librte_eal.a(eal_memory.o)
                                                  /home/vadim/projects/ipaugenblick/dpdk-1.6.0r2/x86_64-default-linuxapp-gcc/lib/librte_eal.a(eal.o)
getenv@@GLIBC_2.2.5                               /lib/x86_64-linux-gnu/libc.so.6
getenv@GLIBC_2.2.5                                /lib/x86_64-linux-gnu/libc.so.6
geteuid                                           /lib/x86_64-linux-gnu/libc.so.6
geteuid@@GLIBC_2.2.5                              /lib/x86_64-linux-gnu/libc.so.6
geteuid@GLIBC_2.2.5                               /lib/x86_64-linux-gnu/libc.so.6
getgid                                            /lib/x86_64-linux-gnu/libc.so.6
getgid@@GLIBC_2.2.5                               /lib/x86_64-linux-gnu/libc.so.6
getgid@GLIBC_2.2.5                                /lib/x86_64-linux-gnu/libc.so.6
getgroups                                         /lib/x86_64-linux-gnu/libc.so.6
getgroups@@GLIBC_2.2.5                            /lib/x86_64-linux-gnu/libc.so.6
getgroups@GLIBC_2.2.5                             /lib/x86_64-linux-gnu/libc.so.6
gethostname                                       /lib/x86_64-linux-gnu/libc.so.6
gethostname@@GLIBC_2.2.5                          /lib/x86_64-linux-gnu/libc.so.6
gethostname@GLIBC_2.2.5                           /lib/x86_64-linux-gnu/libc.so.6
getitimer                                         /lib/x86_64-linux-gnu/libc.so.6
getitimer@@GLIBC_2.2.5                            /lib/x86_64-linux-gnu/libc.so.6
getitimer@GLIBC_2.2.5                             /lib/x86_64-linux-gnu/libc.so.6
getline                                           /lib/x86_64-linux-gnu/libc.so.6
getline@@GLIBC_2.2.5                              /lib/x86_64-linux-gnu/libc.so.6
getline@GLIBC_2.2.5                               /lib/x86_64-linux-gnu/libc.so.6
getmntent_r                                       /lib/x86_64-linux-gnu/libc.so.6
getmntent_r@@GLIBC_2.2.5                          /lib/x86_64-linux-gnu/libc.so.6
getmntent_r@GLIBC_2.2.5                           /lib/x86_64-linux-gnu/libc.so.6
getnetgrent_r                                     /lib/x86_64-linux-gnu/libc.so.6
getnetgrent_r@@GLIBC_2.2.5                        /lib/x86_64-linux-gnu/libc.so.6
getnetgrent_r@GLIBC_2.2.5                         /lib/x86_64-linux-gnu/libc.so.6
getopt_long                                       /lib/x86_64-linux-gnu/libc.so.6
                                                  /home/vadim/projects/ipaugenblick/dpdk-1.6.0r2/x86_64-default-linuxapp-gcc/lib/librte_eal.a(eal.o)
                                                  parameters.o
getopt_long@@GLIBC_2.2.5                          /lib/x86_64-linux-gnu/libc.so.6
getopt_long@GLIBC_2.2.5                           /lib/x86_64-linux-gnu/libc.so.6
getpagesize                                       /lib/x86_64-linux-gnu/libc.so.6
                                                  /home/vadim/projects/ipaugenblick/dpdk-1.6.0r2/x86_64-default-linuxapp-gcc/lib/librte_eal.a(eal_memory.o)
                                                  /home/vadim/projects/ipaugenblick/dpdk-1.6.0r2/x86_64-default-linuxapp-gcc/lib/librte_mempool.a(rte_mempool.o)
                                                  mempool_anon.o
getpagesize@@GLIBC_2.2.5                          /lib/x86_64-linux-gnu/libc.so.6
getpagesize@GLIBC_2.2.5                           /lib/x86_64-linux-gnu/libc.so.6
getpeername                                       /lib/x86_64-linux-gnu/libc.so.6
getpeername@@GLIBC_2.2.5                          /lib/x86_64-linux-gnu/libc.so.6
getpeername@GLIBC_2.2.5                           /lib/x86_64-linux-gnu/libc.so.6
getpgid                                           /lib/x86_64-linux-gnu/libc.so.6
getpgid@@GLIBC_2.2.5                              /lib/x86_64-linux-gnu/libc.so.6
getpgid@GLIBC_2.2.5                               /lib/x86_64-linux-gnu/libc.so.6
getppid                                           /lib/x86_64-linux-gnu/libc.so.6
getppid@@GLIBC_2.2.5                              /lib/x86_64-linux-gnu/libc.so.6
getppid@GLIBC_2.2.5                               /lib/x86_64-linux-gnu/libc.so.6
getpt                                             /lib/x86_64-linux-gnu/libc.so.6
getpt@@GLIBC_2.2.5                                /lib/x86_64-linux-gnu/libc.so.6
getpt@GLIBC_2.2.5                                 /lib/x86_64-linux-gnu/libc.so.6
getpw                                             /lib/x86_64-linux-gnu/libc.so.6
getpw@@GLIBC_2.2.5                                /lib/x86_64-linux-gnu/libc.so.6
getpw@GLIBC_2.2.5                                 /lib/x86_64-linux-gnu/libc.so.6
getrlimit                                         /lib/x86_64-linux-gnu/libc.so.6
getrlimit64                                       /lib/x86_64-linux-gnu/libc.so.6
getrlimit64@@GLIBC_2.2.5                          /lib/x86_64-linux-gnu/libc.so.6
getrlimit64@GLIBC_2.2.5                           /lib/x86_64-linux-gnu/libc.so.6
getrlimit@@GLIBC_2.2.5                            /lib/x86_64-linux-gnu/libc.so.6
getrlimit@GLIBC_2.2.5                             /lib/x86_64-linux-gnu/libc.so.6
                                                  /lib/x86_64-linux-gnu/libpthread.so.0
getrusage                                         /lib/x86_64-linux-gnu/libc.so.6
getrusage@@GLIBC_2.2.5                            /lib/x86_64-linux-gnu/libc.so.6
getrusage@GLIBC_2.2.5                             /lib/x86_64-linux-gnu/libc.so.6
gets                                              /lib/x86_64-linux-gnu/libc.so.6
gets@@GLIBC_2.2.5                                 /lib/x86_64-linux-gnu/libc.so.6
gets@GLIBC_2.2.5                                  /lib/x86_64-linux-gnu/libc.so.6
getsockname                                       /lib/x86_64-linux-gnu/libc.so.6
getsockname@@GLIBC_2.2.5                          /lib/x86_64-linux-gnu/libc.so.6
getsockname@GLIBC_2.2.5                           /lib/x86_64-linux-gnu/libc.so.6
getsockopt                                        /lib/x86_64-linux-gnu/libc.so.6
getsockopt@@GLIBC_2.2.5                           /lib/x86_64-linux-gnu/libc.so.6
getsockopt@GLIBC_2.2.5                            /lib/x86_64-linux-gnu/libc.so.6
gettext                                           /lib/x86_64-linux-gnu/libc.so.6
gettext@@GLIBC_2.2.5                              /lib/x86_64-linux-gnu/libc.so.6
gettext@GLIBC_2.2.5                               /lib/x86_64-linux-gnu/libc.so.6
gettimeofday                                      /lib/x86_64-linux-gnu/libc.so.6
                                                  /home/vadim/projects/ipaugenblick/dpdk-1.6.0r2/x86_64-default-linuxapp-gcc/lib/librte_eal.a(eal_alarm.o)
gettimeofday@@GLIBC_2.2.5                         /lib/x86_64-linux-gnu/libc.so.6
gettimeofday@GLIBC_2.2.5                          /lib/x86_64-linux-gnu/libc.so.6
                                                  /usr/lib/gcc/x86_64-linux-gnu/4.6/../../../x86_64-linux-gnu/librt.so
getuid                                            /lib/x86_64-linux-gnu/libc.so.6
                                                  /home/vadim/projects/ipaugenblick/dpdk-1.6.0r2/x86_64-default-linuxapp-gcc/lib/librte_eal.a(eal_memory.o)
                                                  /home/vadim/projects/ipaugenblick/dpdk-1.6.0r2/x86_64-default-linuxapp-gcc/lib/librte_eal.a(eal.o)
getuid@@GLIBC_2.2.5                               /lib/x86_64-linux-gnu/libc.so.6
getuid@GLIBC_2.2.5                                /lib/x86_64-linux-gnu/libc.so.6
                                                  /lib/x86_64-linux-gnu/libpthread.so.0
                                                  /usr/lib/gcc/x86_64-linux-gnu/4.6/../../../x86_64-linux-gnu/librt.so
getutent                                          /lib/x86_64-linux-gnu/libc.so.6
getutent@@GLIBC_2.2.5                             /lib/x86_64-linux-gnu/libc.so.6
getutent@GLIBC_2.2.5                              /lib/x86_64-linux-gnu/libc.so.6
getutent_r                                        /lib/x86_64-linux-gnu/libc.so.6
getutent_r@@GLIBC_2.2.5                           /lib/x86_64-linux-gnu/libc.so.6
getutent_r@GLIBC_2.2.5                            /lib/x86_64-linux-gnu/libc.so.6
getutid                                           /lib/x86_64-linux-gnu/libc.so.6
getutid@@GLIBC_2.2.5                              /lib/x86_64-linux-gnu/libc.so.6
getutid@GLIBC_2.2.5                               /lib/x86_64-linux-gnu/libc.so.6
getutid_r                                         /lib/x86_64-linux-gnu/libc.so.6
getutid_r@@GLIBC_2.2.5                            /lib/x86_64-linux-gnu/libc.so.6
getutid_r@GLIBC_2.2.5                             /lib/x86_64-linux-gnu/libc.so.6
getutline                                         /lib/x86_64-linux-gnu/libc.so.6
getutline@@GLIBC_2.2.5                            /lib/x86_64-linux-gnu/libc.so.6
getutline@GLIBC_2.2.5                             /lib/x86_64-linux-gnu/libc.so.6
getutline_r                                       /lib/x86_64-linux-gnu/libc.so.6
getutline_r@@GLIBC_2.2.5                          /lib/x86_64-linux-gnu/libc.so.6
getutline_r@GLIBC_2.2.5                           /lib/x86_64-linux-gnu/libc.so.6
getwc                                             /lib/x86_64-linux-gnu/libc.so.6
getwc@@GLIBC_2.2.5                                /lib/x86_64-linux-gnu/libc.so.6
getwc@GLIBC_2.2.5                                 /lib/x86_64-linux-gnu/libc.so.6
getwc_unlocked                                    /lib/x86_64-linux-gnu/libc.so.6
getwc_unlocked@@GLIBC_2.2.5                       /lib/x86_64-linux-gnu/libc.so.6
getwc_unlocked@GLIBC_2.2.5                        /lib/x86_64-linux-gnu/libc.so.6
glob64                                            /lib/x86_64-linux-gnu/libc.so.6
glob64@@GLIBC_2.2.5                               /lib/x86_64-linux-gnu/libc.so.6
glob64@GLIBC_2.2.5                                /lib/x86_64-linux-gnu/libc.so.6
glob_pattern_p                                    /lib/x86_64-linux-gnu/libc.so.6
glob_pattern_p@@GLIBC_2.2.5                       /lib/x86_64-linux-gnu/libc.so.6
glob_pattern_p@GLIBC_2.2.5                        /lib/x86_64-linux-gnu/libc.so.6
globfree64                                        /lib/x86_64-linux-gnu/libc.so.6
globfree64@@GLIBC_2.2.5                           /lib/x86_64-linux-gnu/libc.so.6
globfree64@GLIBC_2.2.5                            /lib/x86_64-linux-gnu/libc.so.6
gmtime_r                                          /lib/x86_64-linux-gnu/libc.so.6
gmtime_r@@GLIBC_2.2.5                             /lib/x86_64-linux-gnu/libc.so.6
gmtime_r@GLIBC_2.2.5                              /lib/x86_64-linux-gnu/libc.so.6
gnu_get_libc_release                              /lib/x86_64-linux-gnu/libc.so.6
gnu_get_libc_release@@GLIBC_2.2.5                 /lib/x86_64-linux-gnu/libc.so.6
gnu_get_libc_release@GLIBC_2.2.5                  /lib/x86_64-linux-gnu/libc.so.6
gnu_get_libc_version                              /lib/x86_64-linux-gnu/libc.so.6
gnu_get_libc_version@@GLIBC_2.2.5                 /lib/x86_64-linux-gnu/libc.so.6
gnu_get_libc_version@GLIBC_2.2.5                  /lib/x86_64-linux-gnu/libc.so.6
group_member                                      /lib/x86_64-linux-gnu/libc.so.6
group_member@@GLIBC_2.2.5                         /lib/x86_64-linux-gnu/libc.so.6
group_member@GLIBC_2.2.5                          /lib/x86_64-linux-gnu/libc.so.6
gsignal                                           /lib/x86_64-linux-gnu/libc.so.6
gsignal@@GLIBC_2.2.5                              /lib/x86_64-linux-gnu/libc.so.6
gsignal@GLIBC_2.2.5                               /lib/x86_64-linux-gnu/libc.so.6
hasmntopt                                         /lib/x86_64-linux-gnu/libc.so.6
hasmntopt@@GLIBC_2.2.5                            /lib/x86_64-linux-gnu/libc.so.6
hasmntopt@GLIBC_2.2.5                             /lib/x86_64-linux-gnu/libc.so.6
hdestroy                                          /lib/x86_64-linux-gnu/libc.so.6
hdestroy@@GLIBC_2.2.5                             /lib/x86_64-linux-gnu/libc.so.6
hdestroy@GLIBC_2.2.5                              /lib/x86_64-linux-gnu/libc.so.6
igb_dev_clear_queues                              /home/vadim/projects/ipaugenblick/dpdk-1.6.0r2/x86_64-default-linuxapp-gcc/lib/librte_pmd_e1000.a(igb_rxtx.o)
                                                  /home/vadim/projects/ipaugenblick/dpdk-1.6.0r2/x86_64-default-linuxapp-gcc/lib/librte_pmd_e1000.a(igb_ethdev.o)
igb_pf_host_configure                             /home/vadim/projects/ipaugenblick/dpdk-1.6.0r2/x86_64-default-linuxapp-gcc/lib/librte_pmd_e1000.a(igb_pf.o)
                                                  /home/vadim/projects/ipaugenblick/dpdk-1.6.0r2/x86_64-default-linuxapp-gcc/lib/librte_pmd_e1000.a(igb_ethdev.o)
igb_pf_host_init                                  /home/vadim/projects/ipaugenblick/dpdk-1.6.0r2/x86_64-default-linuxapp-gcc/lib/librte_pmd_e1000.a(igb_pf.o)
                                                  /home/vadim/projects/ipaugenblick/dpdk-1.6.0r2/x86_64-default-linuxapp-gcc/lib/librte_pmd_e1000.a(igb_ethdev.o)
igb_pf_mbx_process                                /home/vadim/projects/ipaugenblick/dpdk-1.6.0r2/x86_64-default-linuxapp-gcc/lib/librte_pmd_e1000.a(igb_pf.o)
                                                  /home/vadim/projects/ipaugenblick/dpdk-1.6.0r2/x86_64-default-linuxapp-gcc/lib/librte_pmd_e1000.a(igb_ethdev.o)
imaxabs                                           /lib/x86_64-linux-gnu/libc.so.6
imaxabs@@GLIBC_2.2.5                              /lib/x86_64-linux-gnu/libc.so.6
imaxabs@GLIBC_2.2.5                               /lib/x86_64-linux-gnu/libc.so.6
imaxdiv                                           /lib/x86_64-linux-gnu/libc.so.6
imaxdiv@@GLIBC_2.2.5                              /lib/x86_64-linux-gnu/libc.so.6
imaxdiv@GLIBC_2.2.5                               /lib/x86_64-linux-gnu/libc.so.6
index                                             /lib/x86_64-linux-gnu/libc.so.6
                                                  /home/vadim/projects/ipaugenblick/dpdk-1.6.0r2/x86_64-default-linuxapp-gcc/lib/librte_eal.a(eal.o)
index@@GLIBC_2.2.5                                /lib/x86_64-linux-gnu/libc.so.6
index@GLIBC_2.2.5                                 /lib/x86_64-linux-gnu/libc.so.6
inet_aton                                         /lib/x86_64-linux-gnu/libc.so.6
inet_aton@@GLIBC_2.2.5                            /lib/x86_64-linux-gnu/libc.so.6
inet_aton@GLIBC_2.2.5                             /lib/x86_64-linux-gnu/libc.so.6
init_fwd_streams                                  testpmd.o
                                                  config.o
init_port_config                                  testpmd.o
                                                  cmdline.o
init_port_dcb_config                              testpmd.o
                                                  cmdline.o
initstate                                         /lib/x86_64-linux-gnu/libc.so.6
initstate@@GLIBC_2.2.5                            /lib/x86_64-linux-gnu/libc.so.6
initstate@GLIBC_2.2.5                             /lib/x86_64-linux-gnu/libc.so.6
initstate_r                                       /lib/x86_64-linux-gnu/libc.so.6
initstate_r@@GLIBC_2.2.5                          /lib/x86_64-linux-gnu/libc.so.6
initstate_r@GLIBC_2.2.5                           /lib/x86_64-linux-gnu/libc.so.6
interactive                                       testpmd.o
                                                  parameters.o
internal_config                                   /home/vadim/projects/ipaugenblick/dpdk-1.6.0r2/x86_64-default-linuxapp-gcc/lib/librte_eal.a(eal_pci.o)
                                                  /home/vadim/projects/ipaugenblick/dpdk-1.6.0r2/x86_64-default-linuxapp-gcc/lib/librte_eal.a(eal_memory.o)
                                                  /home/vadim/projects/ipaugenblick/dpdk-1.6.0r2/x86_64-default-linuxapp-gcc/lib/librte_eal.a(eal_hugepage_info.o)
                                                  /home/vadim/projects/ipaugenblick/dpdk-1.6.0r2/x86_64-default-linuxapp-gcc/lib/librte_eal.a(eal.o)
io_fwd_engine                                     iofwd.o
                                                  testpmd.o
ioctl                                             /lib/x86_64-linux-gnu/libc.so.6
                                                  /home/vadim/projects/ipaugenblick/dpdk-1.6.0r2/x86_64-default-linuxapp-gcc/lib/librte_kni.a(rte_kni.o)
ioctl@@GLIBC_2.2.5                                /lib/x86_64-linux-gnu/libc.so.6
ioctl@GLIBC_2.2.5                                 /lib/x86_64-linux-gnu/libc.so.6
iopl                                              /lib/x86_64-linux-gnu/libc.so.6
                                                  /home/vadim/projects/ipaugenblick/dpdk-1.6.0r2/x86_64-default-linuxapp-gcc/lib/librte_eal.a(eal.o)
iopl@@GLIBC_2.2.5                                 /lib/x86_64-linux-gnu/libc.so.6
iopl@GLIBC_2.2.5                                  /lib/x86_64-linux-gnu/libc.so.6
isalnum_l                                         /lib/x86_64-linux-gnu/libc.so.6
isalnum_l@@GLIBC_2.3                              /lib/x86_64-linux-gnu/libc.so.6
isalnum_l@GLIBC_2.3                               /lib/x86_64-linux-gnu/libc.so.6
isalpha_l                                         /lib/x86_64-linux-gnu/libc.so.6
isalpha_l@@GLIBC_2.3                              /lib/x86_64-linux-gnu/libc.so.6
isalpha_l@GLIBC_2.3                               /lib/x86_64-linux-gnu/libc.so.6
isatty                                            /lib/x86_64-linux-gnu/libc.so.6
isatty@@GLIBC_2.2.5                               /lib/x86_64-linux-gnu/libc.so.6
isatty@GLIBC_2.2.5                                /lib/x86_64-linux-gnu/libc.so.6
isblank_l                                         /lib/x86_64-linux-gnu/libc.so.6
isblank_l@@GLIBC_2.3                              /lib/x86_64-linux-gnu/libc.so.6
isblank_l@GLIBC_2.3                               /lib/x86_64-linux-gnu/libc.so.6
iscntrl_l                                         /lib/x86_64-linux-gnu/libc.so.6
iscntrl_l@@GLIBC_2.3                              /lib/x86_64-linux-gnu/libc.so.6
iscntrl_l@GLIBC_2.3                               /lib/x86_64-linux-gnu/libc.so.6
isctype                                           /lib/x86_64-linux-gnu/libc.so.6
isctype@@GLIBC_2.3                                /lib/x86_64-linux-gnu/libc.so.6
isctype@GLIBC_2.3                                 /lib/x86_64-linux-gnu/libc.so.6
isdigit_l                                         /lib/x86_64-linux-gnu/libc.so.6
isdigit_l@@GLIBC_2.3                              /lib/x86_64-linux-gnu/libc.so.6
isdigit_l@GLIBC_2.3                               /lib/x86_64-linux-gnu/libc.so.6
isgraph_l                                         /lib/x86_64-linux-gnu/libc.so.6
isgraph_l@@GLIBC_2.3                              /lib/x86_64-linux-gnu/libc.so.6
isgraph_l@GLIBC_2.3                               /lib/x86_64-linux-gnu/libc.so.6
isinf                                             /lib/x86_64-linux-gnu/libc.so.6
isinf@@GLIBC_2.2.5                                /lib/x86_64-linux-gnu/libc.so.6
isinf@GLIBC_2.2.5                                 /lib/x86_64-linux-gnu/libc.so.6
isinff                                            /lib/x86_64-linux-gnu/libc.so.6
isinff@@GLIBC_2.2.5                               /lib/x86_64-linux-gnu/libc.so.6
isinff@GLIBC_2.2.5                                /lib/x86_64-linux-gnu/libc.so.6
isinfl                                            /lib/x86_64-linux-gnu/libc.so.6
isinfl@@GLIBC_2.2.5                               /lib/x86_64-linux-gnu/libc.so.6
isinfl@GLIBC_2.2.5                                /lib/x86_64-linux-gnu/libc.so.6
islower_l                                         /lib/x86_64-linux-gnu/libc.so.6
islower_l@@GLIBC_2.3                              /lib/x86_64-linux-gnu/libc.so.6
islower_l@GLIBC_2.3                               /lib/x86_64-linux-gnu/libc.so.6
isnan                                             /lib/x86_64-linux-gnu/libc.so.6
isnan@@GLIBC_2.2.5                                /lib/x86_64-linux-gnu/libc.so.6
isnan@GLIBC_2.2.5                                 /lib/x86_64-linux-gnu/libc.so.6
isnanf                                            /lib/x86_64-linux-gnu/libc.so.6
isnanf@@GLIBC_2.2.5                               /lib/x86_64-linux-gnu/libc.so.6
isnanf@GLIBC_2.2.5                                /lib/x86_64-linux-gnu/libc.so.6
isnanl                                            /lib/x86_64-linux-gnu/libc.so.6
isnanl@@GLIBC_2.2.5                               /lib/x86_64-linux-gnu/libc.so.6
isnanl@GLIBC_2.2.5                                /lib/x86_64-linux-gnu/libc.so.6
isprint_l                                         /lib/x86_64-linux-gnu/libc.so.6
isprint_l@@GLIBC_2.3                              /lib/x86_64-linux-gnu/libc.so.6
isprint_l@GLIBC_2.3                               /lib/x86_64-linux-gnu/libc.so.6
ispunct_l                                         /lib/x86_64-linux-gnu/libc.so.6
ispunct_l@@GLIBC_2.3                              /lib/x86_64-linux-gnu/libc.so.6
ispunct_l@GLIBC_2.3                               /lib/x86_64-linux-gnu/libc.so.6
isspace_l                                         /lib/x86_64-linux-gnu/libc.so.6
isspace_l@@GLIBC_2.3                              /lib/x86_64-linux-gnu/libc.so.6
isspace_l@GLIBC_2.3                               /lib/x86_64-linux-gnu/libc.so.6
isupper_l                                         /lib/x86_64-linux-gnu/libc.so.6
isupper_l@@GLIBC_2.3                              /lib/x86_64-linux-gnu/libc.so.6
isupper_l@GLIBC_2.3                               /lib/x86_64-linux-gnu/libc.so.6
iswalnum                                          /lib/x86_64-linux-gnu/libc.so.6
iswalnum@@GLIBC_2.2.5                             /lib/x86_64-linux-gnu/libc.so.6
iswalnum@GLIBC_2.2.5                              /lib/x86_64-linux-gnu/libc.so.6
iswalnum_l                                        /lib/x86_64-linux-gnu/libc.so.6
iswalnum_l@@GLIBC_2.3                             /lib/x86_64-linux-gnu/libc.so.6
iswalnum_l@GLIBC_2.3                              /lib/x86_64-linux-gnu/libc.so.6
iswalpha                                          /lib/x86_64-linux-gnu/libc.so.6
iswalpha@@GLIBC_2.2.5                             /lib/x86_64-linux-gnu/libc.so.6
iswalpha@GLIBC_2.2.5                              /lib/x86_64-linux-gnu/libc.so.6
iswalpha_l                                        /lib/x86_64-linux-gnu/libc.so.6
iswalpha_l@@GLIBC_2.3                             /lib/x86_64-linux-gnu/libc.so.6
iswalpha_l@GLIBC_2.3                              /lib/x86_64-linux-gnu/libc.so.6
iswblank                                          /lib/x86_64-linux-gnu/libc.so.6
iswblank@@GLIBC_2.2.5                             /lib/x86_64-linux-gnu/libc.so.6
iswblank@GLIBC_2.2.5                              /lib/x86_64-linux-gnu/libc.so.6
iswblank_l                                        /lib/x86_64-linux-gnu/libc.so.6
iswblank_l@@GLIBC_2.3                             /lib/x86_64-linux-gnu/libc.so.6
iswblank_l@GLIBC_2.3                              /lib/x86_64-linux-gnu/libc.so.6
iswcntrl                                          /lib/x86_64-linux-gnu/libc.so.6
iswcntrl@@GLIBC_2.2.5                             /lib/x86_64-linux-gnu/libc.so.6
iswcntrl@GLIBC_2.2.5                              /lib/x86_64-linux-gnu/libc.so.6
iswcntrl_l                                        /lib/x86_64-linux-gnu/libc.so.6
iswcntrl_l@@GLIBC_2.3                             /lib/x86_64-linux-gnu/libc.so.6
iswcntrl_l@GLIBC_2.3                              /lib/x86_64-linux-gnu/libc.so.6
iswctype                                          /lib/x86_64-linux-gnu/libc.so.6
iswctype@@GLIBC_2.2.5                             /lib/x86_64-linux-gnu/libc.so.6
iswctype@GLIBC_2.2.5                              /lib/x86_64-linux-gnu/libc.so.6
iswctype_l                                        /lib/x86_64-linux-gnu/libc.so.6
iswctype_l@@GLIBC_2.3                             /lib/x86_64-linux-gnu/libc.so.6
iswctype_l@GLIBC_2.3                              /lib/x86_64-linux-gnu/libc.so.6
iswdigit                                          /lib/x86_64-linux-gnu/libc.so.6
iswdigit@@GLIBC_2.2.5                             /lib/x86_64-linux-gnu/libc.so.6
iswdigit@GLIBC_2.2.5                              /lib/x86_64-linux-gnu/libc.so.6
iswdigit_l                                        /lib/x86_64-linux-gnu/libc.so.6
iswdigit_l@@GLIBC_2.3                             /lib/x86_64-linux-gnu/libc.so.6
iswdigit_l@GLIBC_2.3                              /lib/x86_64-linux-gnu/libc.so.6
iswgraph                                          /lib/x86_64-linux-gnu/libc.so.6
iswgraph@@GLIBC_2.2.5                             /lib/x86_64-linux-gnu/libc.so.6
iswgraph@GLIBC_2.2.5                              /lib/x86_64-linux-gnu/libc.so.6
iswgraph_l                                        /lib/x86_64-linux-gnu/libc.so.6
iswgraph_l@@GLIBC_2.3                             /lib/x86_64-linux-gnu/libc.so.6
iswgraph_l@GLIBC_2.3                              /lib/x86_64-linux-gnu/libc.so.6
iswlower                                          /lib/x86_64-linux-gnu/libc.so.6
iswlower@@GLIBC_2.2.5                             /lib/x86_64-linux-gnu/libc.so.6
iswlower@GLIBC_2.2.5                              /lib/x86_64-linux-gnu/libc.so.6
iswlower_l                                        /lib/x86_64-linux-gnu/libc.so.6
iswlower_l@@GLIBC_2.3                             /lib/x86_64-linux-gnu/libc.so.6
iswlower_l@GLIBC_2.3                              /lib/x86_64-linux-gnu/libc.so.6
iswprint                                          /lib/x86_64-linux-gnu/libc.so.6
iswprint@@GLIBC_2.2.5                             /lib/x86_64-linux-gnu/libc.so.6
iswprint@GLIBC_2.2.5                              /lib/x86_64-linux-gnu/libc.so.6
iswprint_l                                        /lib/x86_64-linux-gnu/libc.so.6
iswprint_l@@GLIBC_2.3                             /lib/x86_64-linux-gnu/libc.so.6
iswprint_l@GLIBC_2.3                              /lib/x86_64-linux-gnu/libc.so.6
iswpunct                                          /lib/x86_64-linux-gnu/libc.so.6
iswpunct@@GLIBC_2.2.5                             /lib/x86_64-linux-gnu/libc.so.6
iswpunct@GLIBC_2.2.5                              /lib/x86_64-linux-gnu/libc.so.6
iswpunct_l                                        /lib/x86_64-linux-gnu/libc.so.6
iswpunct_l@@GLIBC_2.3                             /lib/x86_64-linux-gnu/libc.so.6
iswpunct_l@GLIBC_2.3                              /lib/x86_64-linux-gnu/libc.so.6
iswspace                                          /lib/x86_64-linux-gnu/libc.so.6
iswspace@@GLIBC_2.2.5                             /lib/x86_64-linux-gnu/libc.so.6
iswspace@GLIBC_2.2.5                              /lib/x86_64-linux-gnu/libc.so.6
iswspace_l                                        /lib/x86_64-linux-gnu/libc.so.6
iswspace_l@@GLIBC_2.3                             /lib/x86_64-linux-gnu/libc.so.6
iswspace_l@GLIBC_2.3                              /lib/x86_64-linux-gnu/libc.so.6
iswupper                                          /lib/x86_64-linux-gnu/libc.so.6
iswupper@@GLIBC_2.2.5                             /lib/x86_64-linux-gnu/libc.so.6
iswupper@GLIBC_2.2.5                              /lib/x86_64-linux-gnu/libc.so.6
iswupper_l                                        /lib/x86_64-linux-gnu/libc.so.6
iswupper_l@@GLIBC_2.3                             /lib/x86_64-linux-gnu/libc.so.6
iswupper_l@GLIBC_2.3                              /lib/x86_64-linux-gnu/libc.so.6
iswxdigit                                         /lib/x86_64-linux-gnu/libc.so.6
iswxdigit@@GLIBC_2.2.5                            /lib/x86_64-linux-gnu/libc.so.6
iswxdigit@GLIBC_2.2.5                             /lib/x86_64-linux-gnu/libc.so.6
iswxdigit_l                                       /lib/x86_64-linux-gnu/libc.so.6
iswxdigit_l@@GLIBC_2.3                            /lib/x86_64-linux-gnu/libc.so.6
iswxdigit_l@GLIBC_2.3                             /lib/x86_64-linux-gnu/libc.so.6
isxdigit_l                                        /lib/x86_64-linux-gnu/libc.so.6
isxdigit_l@@GLIBC_2.3                             /lib/x86_64-linux-gnu/libc.so.6
isxdigit_l@GLIBC_2.3                              /lib/x86_64-linux-gnu/libc.so.6
ixgbe_acquire_swfw_semaphore                      /home/vadim/projects/ipaugenblick/dpdk-1.6.0r2/x86_64-default-linuxapp-gcc/lib/librte_pmd_ixgbe.a(ixgbe_api.o)
                                                  /home/vadim/projects/ipaugenblick/dpdk-1.6.0r2/x86_64-default-linuxapp-gcc/lib/librte_pmd_ixgbe.a(ixgbe_ethdev.o)
ixgbe_acquire_swfw_sync                           /home/vadim/projects/ipaugenblick/dpdk-1.6.0r2/x86_64-default-linuxapp-gcc/lib/librte_pmd_ixgbe.a(ixgbe_common.o)
ixgbe_acquire_swfw_sync_X540                      /home/vadim/projects/ipaugenblick/dpdk-1.6.0r2/x86_64-default-linuxapp-gcc/lib/librte_pmd_ixgbe.a(ixgbe_x540.o)
ixgbe_add_uc_addr                                 /home/vadim/projects/ipaugenblick/dpdk-1.6.0r2/x86_64-default-linuxapp-gcc/lib/librte_pmd_ixgbe.a(ixgbe_common.o)
ixgbe_atr_compute_perfect_hash_82599              /home/vadim/projects/ipaugenblick/dpdk-1.6.0r2/x86_64-default-linuxapp-gcc/lib/librte_pmd_ixgbe.a(ixgbe_82599.o)
ixgbe_atr_compute_sig_hash_82599                  /home/vadim/projects/ipaugenblick/dpdk-1.6.0r2/x86_64-default-linuxapp-gcc/lib/librte_pmd_ixgbe.a(ixgbe_82599.o)
ixgbe_blink_led_start                             /home/vadim/projects/ipaugenblick/dpdk-1.6.0r2/x86_64-default-linuxapp-gcc/lib/librte_pmd_ixgbe.a(ixgbe_api.o)
ixgbe_blink_led_start_X540                        /home/vadim/projects/ipaugenblick/dpdk-1.6.0r2/x86_64-default-linuxapp-gcc/lib/librte_pmd_ixgbe.a(ixgbe_x540.o)
ixgbe_blink_led_start_generic                     /home/vadim/projects/ipaugenblick/dpdk-1.6.0r2/x86_64-default-linuxapp-gcc/lib/librte_pmd_ixgbe.a(ixgbe_common.o)
ixgbe_blink_led_stop                              /home/vadim/projects/ipaugenblick/dpdk-1.6.0r2/x86_64-default-linuxapp-gcc/lib/librte_pmd_ixgbe.a(ixgbe_api.o)
ixgbe_blink_led_stop_X540                         /home/vadim/projects/ipaugenblick/dpdk-1.6.0r2/x86_64-default-linuxapp-gcc/lib/librte_pmd_ixgbe.a(ixgbe_x540.o)
ixgbe_blink_led_stop_generic                      /home/vadim/projects/ipaugenblick/dpdk-1.6.0r2/x86_64-default-linuxapp-gcc/lib/librte_pmd_ixgbe.a(ixgbe_common.o)
ixgbe_calc_eeprom_checksum_X540                   /home/vadim/projects/ipaugenblick/dpdk-1.6.0r2/x86_64-default-linuxapp-gcc/lib/librte_pmd_ixgbe.a(ixgbe_x540.o)
ixgbe_calc_eeprom_checksum_generic                /home/vadim/projects/ipaugenblick/dpdk-1.6.0r2/x86_64-default-linuxapp-gcc/lib/librte_pmd_ixgbe.a(ixgbe_common.o)
ixgbe_check_for_ack                               /home/vadim/projects/ipaugenblick/dpdk-1.6.0r2/x86_64-default-linuxapp-gcc/lib/librte_pmd_ixgbe.a(ixgbe_mbx.o)
                                                  /home/vadim/projects/ipaugenblick/dpdk-1.6.0r2/x86_64-default-linuxapp-gcc/lib/librte_pmd_ixgbe.a(ixgbe_pf.o)
ixgbe_check_for_msg                               /home/vadim/projects/ipaugenblick/dpdk-1.6.0r2/x86_64-default-linuxapp-gcc/lib/librte_pmd_ixgbe.a(ixgbe_mbx.o)
                                                  /home/vadim/projects/ipaugenblick/dpdk-1.6.0r2/x86_64-default-linuxapp-gcc/lib/librte_pmd_ixgbe.a(ixgbe_pf.o)
ixgbe_check_for_rst                               /home/vadim/projects/ipaugenblick/dpdk-1.6.0r2/x86_64-default-linuxapp-gcc/lib/librte_pmd_ixgbe.a(ixgbe_mbx.o)
                                                  /home/vadim/projects/ipaugenblick/dpdk-1.6.0r2/x86_64-default-linuxapp-gcc/lib/librte_pmd_ixgbe.a(ixgbe_pf.o)
ixgbe_check_link                                  /home/vadim/projects/ipaugenblick/dpdk-1.6.0r2/x86_64-default-linuxapp-gcc/lib/librte_pmd_ixgbe.a(ixgbe_api.o)
                                                  /home/vadim/projects/ipaugenblick/dpdk-1.6.0r2/x86_64-default-linuxapp-gcc/lib/librte_pmd_ixgbe.a(ixgbe_ethdev.o)
                                                  /home/vadim/projects/ipaugenblick/dpdk-1.6.0r2/x86_64-default-linuxapp-gcc/lib/librte_pmd_ixgbe.a(ixgbe_82599.o)
ixgbe_check_mac_link_generic                      /home/vadim/projects/ipaugenblick/dpdk-1.6.0r2/x86_64-default-linuxapp-gcc/lib/librte_pmd_ixgbe.a(ixgbe_common.o)
                                                  /home/vadim/projects/ipaugenblick/dpdk-1.6.0r2/x86_64-default-linuxapp-gcc/lib/librte_pmd_ixgbe.a(ixgbe_x540.o)
                                                  /home/vadim/projects/ipaugenblick/dpdk-1.6.0r2/x86_64-default-linuxapp-gcc/lib/librte_pmd_ixgbe.a(ixgbe_82599.o)
ixgbe_check_mac_link_vf                           /home/vadim/projects/ipaugenblick/dpdk-1.6.0r2/x86_64-default-linuxapp-gcc/lib/librte_pmd_ixgbe.a(ixgbe_vf.o)
ixgbe_check_phy_link                              /home/vadim/projects/ipaugenblick/dpdk-1.6.0r2/x86_64-default-linuxapp-gcc/lib/librte_pmd_ixgbe.a(ixgbe_api.o)
ixgbe_check_phy_link_tnx                          /home/vadim/projects/ipaugenblick/dpdk-1.6.0r2/x86_64-default-linuxapp-gcc/lib/librte_pmd_ixgbe.a(ixgbe_phy.o)
                                                  /home/vadim/projects/ipaugenblick/dpdk-1.6.0r2/x86_64-default-linuxapp-gcc/lib/librte_pmd_ixgbe.a(ixgbe_82599.o)
                                                  /home/vadim/projects/ipaugenblick/dpdk-1.6.0r2/x86_64-default-linuxapp-gcc/lib/librte_pmd_ixgbe.a(ixgbe_82598.o)
ixgbe_clear_hw_cntrs                              /home/vadim/projects/ipaugenblick/dpdk-1.6.0r2/x86_64-default-linuxapp-gcc/lib/librte_pmd_ixgbe.a(ixgbe_api.o)
ixgbe_clear_hw_cntrs_generic                      /home/vadim/projects/ipaugenblick/dpdk-1.6.0r2/x86_64-default-linuxapp-gcc/lib/librte_pmd_ixgbe.a(ixgbe_common.o)
ixgbe_clear_rar                                   /home/vadim/projects/ipaugenblick/dpdk-1.6.0r2/x86_64-default-linuxapp-gcc/lib/librte_pmd_ixgbe.a(ixgbe_api.o)
                                                  /home/vadim/projects/ipaugenblick/dpdk-1.6.0r2/x86_64-default-linuxapp-gcc/lib/librte_pmd_ixgbe.a(ixgbe_ethdev.o)
ixgbe_clear_rar_generic                           /home/vadim/projects/ipaugenblick/dpdk-1.6.0r2/x86_64-default-linuxapp-gcc/lib/librte_pmd_ixgbe.a(ixgbe_common.o)
ixgbe_clear_tx_pending                            /home/vadim/projects/ipaugenblick/dpdk-1.6.0r2/x86_64-default-linuxapp-gcc/lib/librte_pmd_ixgbe.a(ixgbe_common.o)
                                                  /home/vadim/projects/ipaugenblick/dpdk-1.6.0r2/x86_64-default-linuxapp-gcc/lib/librte_pmd_ixgbe.a(ixgbe_x540.o)
                                                  /home/vadim/projects/ipaugenblick/dpdk-1.6.0r2/x86_64-default-linuxapp-gcc/lib/librte_pmd_ixgbe.a(ixgbe_82599.o)
ixgbe_clear_vfta                                  /home/vadim/projects/ipaugenblick/dpdk-1.6.0r2/x86_64-default-linuxapp-gcc/lib/librte_pmd_ixgbe.a(ixgbe_api.o)
ixgbe_clear_vfta_generic                          /home/vadim/projects/ipaugenblick/dpdk-1.6.0r2/x86_64-default-linuxapp-gcc/lib/librte_pmd_ixgbe.a(ixgbe_common.o)
                                                  /home/vadim/projects/ipaugenblick/dpdk-1.6.0r2/x86_64-default-linuxapp-gcc/lib/librte_pmd_ixgbe.a(ixgbe_x540.o)
                                                  /home/vadim/projects/ipaugenblick/dpdk-1.6.0r2/x86_64-default-linuxapp-gcc/lib/librte_pmd_ixgbe.a(ixgbe_82599.o)
ixgbe_clear_vmdq                                  /home/vadim/projects/ipaugenblick/dpdk-1.6.0r2/x86_64-default-linuxapp-gcc/lib/librte_pmd_ixgbe.a(ixgbe_api.o)
                                                  /home/vadim/projects/ipaugenblick/dpdk-1.6.0r2/x86_64-default-linuxapp-gcc/lib/librte_pmd_ixgbe.a(ixgbe_common.o)
ixgbe_clear_vmdq_generic                          /home/vadim/projects/ipaugenblick/dpdk-1.6.0r2/x86_64-default-linuxapp-gcc/lib/librte_pmd_ixgbe.a(ixgbe_common.o)
                                                  /home/vadim/projects/ipaugenblick/dpdk-1.6.0r2/x86_64-default-linuxapp-gcc/lib/librte_pmd_ixgbe.a(ixgbe_x540.o)
                                                  /home/vadim/projects/ipaugenblick/dpdk-1.6.0r2/x86_64-default-linuxapp-gcc/lib/librte_pmd_ixgbe.a(ixgbe_82599.o)
ixgbe_configure_dcb                               /home/vadim/projects/ipaugenblick/dpdk-1.6.0r2/x86_64-default-linuxapp-gcc/lib/librte_pmd_ixgbe.a(ixgbe_rxtx.o)
                                                  /home/vadim/projects/ipaugenblick/dpdk-1.6.0r2/x86_64-default-linuxapp-gcc/lib/librte_pmd_ixgbe.a(ixgbe_ethdev.o)
ixgbe_dcb_calculate_tc_credits                    /home/vadim/projects/ipaugenblick/dpdk-1.6.0r2/x86_64-default-linuxapp-gcc/lib/librte_pmd_ixgbe.a(ixgbe_dcb.o)
ixgbe_dcb_calculate_tc_credits_cee                /home/vadim/projects/ipaugenblick/dpdk-1.6.0r2/x86_64-default-linuxapp-gcc/lib/librte_pmd_ixgbe.a(ixgbe_dcb.o)
                                                  /home/vadim/projects/ipaugenblick/dpdk-1.6.0r2/x86_64-default-linuxapp-gcc/lib/librte_pmd_ixgbe.a(ixgbe_rxtx.o)
ixgbe_dcb_check_config_cee                        /home/vadim/projects/ipaugenblick/dpdk-1.6.0r2/x86_64-default-linuxapp-gcc/lib/librte_pmd_ixgbe.a(ixgbe_dcb.o)
ixgbe_dcb_config_82599                            /home/vadim/projects/ipaugenblick/dpdk-1.6.0r2/x86_64-default-linuxapp-gcc/lib/librte_pmd_ixgbe.a(ixgbe_dcb_82599.o)
                                                  /home/vadim/projects/ipaugenblick/dpdk-1.6.0r2/x86_64-default-linuxapp-gcc/lib/librte_pmd_ixgbe.a(ixgbe_dcb.o)
ixgbe_dcb_config_pfc                              /home/vadim/projects/ipaugenblick/dpdk-1.6.0r2/x86_64-default-linuxapp-gcc/lib/librte_pmd_ixgbe.a(ixgbe_dcb.o)
                                                  /home/vadim/projects/ipaugenblick/dpdk-1.6.0r2/x86_64-default-linuxapp-gcc/lib/librte_pmd_ixgbe.a(ixgbe_rxtx.o)
ixgbe_dcb_config_pfc_82598                        /home/vadim/projects/ipaugenblick/dpdk-1.6.0r2/x86_64-default-linuxapp-gcc/lib/librte_pmd_ixgbe.a(ixgbe_dcb_82598.o)
                                                  /home/vadim/projects/ipaugenblick/dpdk-1.6.0r2/x86_64-default-linuxapp-gcc/lib/librte_pmd_ixgbe.a(ixgbe_dcb.o)
ixgbe_dcb_config_pfc_82599                        /home/vadim/projects/ipaugenblick/dpdk-1.6.0r2/x86_64-default-linuxapp-gcc/lib/librte_pmd_ixgbe.a(ixgbe_dcb_82599.o)
                                                  /home/vadim/projects/ipaugenblick/dpdk-1.6.0r2/x86_64-default-linuxapp-gcc/lib/librte_pmd_ixgbe.a(ixgbe_dcb.o)
ixgbe_dcb_config_pfc_cee                          /home/vadim/projects/ipaugenblick/dpdk-1.6.0r2/x86_64-default-linuxapp-gcc/lib/librte_pmd_ixgbe.a(ixgbe_dcb.o)
ixgbe_dcb_config_rx_arbiter_82598                 /home/vadim/projects/ipaugenblick/dpdk-1.6.0r2/x86_64-default-linuxapp-gcc/lib/librte_pmd_ixgbe.a(ixgbe_dcb_82598.o)
                                                  /home/vadim/projects/ipaugenblick/dpdk-1.6.0r2/x86_64-default-linuxapp-gcc/lib/librte_pmd_ixgbe.a(ixgbe_rxtx.o)
                                                  /home/vadim/projects/ipaugenblick/dpdk-1.6.0r2/x86_64-default-linuxapp-gcc/lib/librte_pmd_ixgbe.a(ixgbe_dcb.o)
ixgbe_dcb_config_rx_arbiter_82599                 /home/vadim/projects/ipaugenblick/dpdk-1.6.0r2/x86_64-default-linuxapp-gcc/lib/librte_pmd_ixgbe.a(ixgbe_dcb_82599.o)
                                                  /home/vadim/projects/ipaugenblick/dpdk-1.6.0r2/x86_64-default-linuxapp-gcc/lib/librte_pmd_ixgbe.a(ixgbe_rxtx.o)
                                                  /home/vadim/projects/ipaugenblick/dpdk-1.6.0r2/x86_64-default-linuxapp-gcc/lib/librte_pmd_ixgbe.a(ixgbe_dcb.o)
ixgbe_dcb_config_rx_arbiter_cee                   /home/vadim/projects/ipaugenblick/dpdk-1.6.0r2/x86_64-default-linuxapp-gcc/lib/librte_pmd_ixgbe.a(ixgbe_dcb.o)
ixgbe_dcb_config_tc_stats                         /home/vadim/projects/ipaugenblick/dpdk-1.6.0r2/x86_64-default-linuxapp-gcc/lib/librte_pmd_ixgbe.a(ixgbe_dcb.o)
ixgbe_dcb_config_tc_stats_82598                   /home/vadim/projects/ipaugenblick/dpdk-1.6.0r2/x86_64-default-linuxapp-gcc/lib/librte_pmd_ixgbe.a(ixgbe_dcb_82598.o)
                                                  /home/vadim/projects/ipaugenblick/dpdk-1.6.0r2/x86_64-default-linuxapp-gcc/lib/librte_pmd_ixgbe.a(ixgbe_dcb.o)
ixgbe_dcb_config_tc_stats_82599                   /home/vadim/projects/ipaugenblick/dpdk-1.6.0r2/x86_64-default-linuxapp-gcc/lib/librte_pmd_ixgbe.a(ixgbe_dcb_82599.o)
                                                  /home/vadim/projects/ipaugenblick/dpdk-1.6.0r2/x86_64-default-linuxapp-gcc/lib/librte_pmd_ixgbe.a(ixgbe_rxtx.o)
                                                  /home/vadim/projects/ipaugenblick/dpdk-1.6.0r2/x86_64-default-linuxapp-gcc/lib/librte_pmd_ixgbe.a(ixgbe_dcb.o)
ixgbe_dcb_config_tx_data_arbiter_82598            /home/vadim/projects/ipaugenblick/dpdk-1.6.0r2/x86_64-default-linuxapp-gcc/lib/librte_pmd_ixgbe.a(ixgbe_dcb_82598.o)
                                                  /home/vadim/projects/ipaugenblick/dpdk-1.6.0r2/x86_64-default-linuxapp-gcc/lib/librte_pmd_ixgbe.a(ixgbe_rxtx.o)
                                                  /home/vadim/projects/ipaugenblick/dpdk-1.6.0r2/x86_64-default-linuxapp-gcc/lib/librte_pmd_ixgbe.a(ixgbe_dcb.o)
ixgbe_dcb_config_tx_data_arbiter_82599            /home/vadim/projects/ipaugenblick/dpdk-1.6.0r2/x86_64-default-linuxapp-gcc/lib/librte_pmd_ixgbe.a(ixgbe_dcb_82599.o)
                                                  /home/vadim/projects/ipaugenblick/dpdk-1.6.0r2/x86_64-default-linuxapp-gcc/lib/librte_pmd_ixgbe.a(ixgbe_rxtx.o)
                                                  /home/vadim/projects/ipaugenblick/dpdk-1.6.0r2/x86_64-default-linuxapp-gcc/lib/librte_pmd_ixgbe.a(ixgbe_dcb.o)
ixgbe_dcb_config_tx_data_arbiter_cee              /home/vadim/projects/ipaugenblick/dpdk-1.6.0r2/x86_64-default-linuxapp-gcc/lib/librte_pmd_ixgbe.a(ixgbe_dcb.o)
ixgbe_dcb_config_tx_desc_arbiter_82598            /home/vadim/projects/ipaugenblick/dpdk-1.6.0r2/x86_64-default-linuxapp-gcc/lib/librte_pmd_ixgbe.a(ixgbe_dcb_82598.o)
                                                  /home/vadim/projects/ipaugenblick/dpdk-1.6.0r2/x86_64-default-linuxapp-gcc/lib/librte_pmd_ixgbe.a(ixgbe_rxtx.o)
                                                  /home/vadim/projects/ipaugenblick/dpdk-1.6.0r2/x86_64-default-linuxapp-gcc/lib/librte_pmd_ixgbe.a(ixgbe_dcb.o)
ixgbe_dcb_config_tx_desc_arbiter_82599            /home/vadim/projects/ipaugenblick/dpdk-1.6.0r2/x86_64-default-linuxapp-gcc/lib/librte_pmd_ixgbe.a(ixgbe_dcb_82599.o)
                                                  /home/vadim/projects/ipaugenblick/dpdk-1.6.0r2/x86_64-default-linuxapp-gcc/lib/librte_pmd_ixgbe.a(ixgbe_rxtx.o)
                                                  /home/vadim/projects/ipaugenblick/dpdk-1.6.0r2/x86_64-default-linuxapp-gcc/lib/librte_pmd_ixgbe.a(ixgbe_dcb.o)
ixgbe_dcb_config_tx_desc_arbiter_cee              /home/vadim/projects/ipaugenblick/dpdk-1.6.0r2/x86_64-default-linuxapp-gcc/lib/librte_pmd_ixgbe.a(ixgbe_dcb.o)
ixgbe_dcb_get_pfc_stats                           /home/vadim/projects/ipaugenblick/dpdk-1.6.0r2/x86_64-default-linuxapp-gcc/lib/librte_pmd_ixgbe.a(ixgbe_dcb.o)
ixgbe_dcb_get_pfc_stats_82598                     /home/vadim/projects/ipaugenblick/dpdk-1.6.0r2/x86_64-default-linuxapp-gcc/lib/librte_pmd_ixgbe.a(ixgbe_dcb_82598.o)
                                                  /home/vadim/projects/ipaugenblick/dpdk-1.6.0r2/x86_64-default-linuxapp-gcc/lib/librte_pmd_ixgbe.a(ixgbe_dcb.o)
ixgbe_dcb_get_pfc_stats_82599                     /home/vadim/projects/ipaugenblick/dpdk-1.6.0r2/x86_64-default-linuxapp-gcc/lib/librte_pmd_ixgbe.a(ixgbe_dcb_82599.o)
                                                  /home/vadim/projects/ipaugenblick/dpdk-1.6.0r2/x86_64-default-linuxapp-gcc/lib/librte_pmd_ixgbe.a(ixgbe_dcb.o)
ixgbe_dcb_get_tc_from_up                          /home/vadim/projects/ipaugenblick/dpdk-1.6.0r2/x86_64-default-linuxapp-gcc/lib/librte_pmd_ixgbe.a(ixgbe_dcb.o)
ixgbe_dcb_get_tc_stats                            /home/vadim/projects/ipaugenblick/dpdk-1.6.0r2/x86_64-default-linuxapp-gcc/lib/librte_pmd_ixgbe.a(ixgbe_dcb.o)
ixgbe_dcb_get_tc_stats_82598                      /home/vadim/projects/ipaugenblick/dpdk-1.6.0r2/x86_64-default-linuxapp-gcc/lib/librte_pmd_ixgbe.a(ixgbe_dcb_82598.o)
                                                  /home/vadim/projects/ipaugenblick/dpdk-1.6.0r2/x86_64-default-linuxapp-gcc/lib/librte_pmd_ixgbe.a(ixgbe_dcb.o)
ixgbe_dcb_get_tc_stats_82599                      /home/vadim/projects/ipaugenblick/dpdk-1.6.0r2/x86_64-default-linuxapp-gcc/lib/librte_pmd_ixgbe.a(ixgbe_dcb_82599.o)
                                                  /home/vadim/projects/ipaugenblick/dpdk-1.6.0r2/x86_64-default-linuxapp-gcc/lib/librte_pmd_ixgbe.a(ixgbe_dcb.o)
ixgbe_dcb_hw_config                               /home/vadim/projects/ipaugenblick/dpdk-1.6.0r2/x86_64-default-linuxapp-gcc/lib/librte_pmd_ixgbe.a(ixgbe_dcb.o)
ixgbe_dcb_hw_config_82598                         /home/vadim/projects/ipaugenblick/dpdk-1.6.0r2/x86_64-default-linuxapp-gcc/lib/librte_pmd_ixgbe.a(ixgbe_dcb_82598.o)
                                                  /home/vadim/projects/ipaugenblick/dpdk-1.6.0r2/x86_64-default-linuxapp-gcc/lib/librte_pmd_ixgbe.a(ixgbe_dcb.o)
ixgbe_dcb_hw_config_82599                         /home/vadim/projects/ipaugenblick/dpdk-1.6.0r2/x86_64-default-linuxapp-gcc/lib/librte_pmd_ixgbe.a(ixgbe_dcb_82599.o)
                                                  /home/vadim/projects/ipaugenblick/dpdk-1.6.0r2/x86_64-default-linuxapp-gcc/lib/librte_pmd_ixgbe.a(ixgbe_dcb.o)
ixgbe_dcb_hw_config_cee                           /home/vadim/projects/ipaugenblick/dpdk-1.6.0r2/x86_64-default-linuxapp-gcc/lib/librte_pmd_ixgbe.a(ixgbe_dcb.o)
ixgbe_dcb_unpack_bwgid_cee                        /home/vadim/projects/ipaugenblick/dpdk-1.6.0r2/x86_64-default-linuxapp-gcc/lib/librte_pmd_ixgbe.a(ixgbe_dcb.o)
                                                  /home/vadim/projects/ipaugenblick/dpdk-1.6.0r2/x86_64-default-linuxapp-gcc/lib/librte_pmd_ixgbe.a(ixgbe_rxtx.o)
ixgbe_dcb_unpack_map_cee                          /home/vadim/projects/ipaugenblick/dpdk-1.6.0r2/x86_64-default-linuxapp-gcc/lib/librte_pmd_ixgbe.a(ixgbe_dcb.o)
                                                  /home/vadim/projects/ipaugenblick/dpdk-1.6.0r2/x86_64-default-linuxapp-gcc/lib/librte_pmd_ixgbe.a(ixgbe_ethdev.o)
                                                  /home/vadim/projects/ipaugenblick/dpdk-1.6.0r2/x86_64-default-linuxapp-gcc/lib/librte_pmd_ixgbe.a(ixgbe_rxtx.o)
ixgbe_dcb_unpack_max_cee                          /home/vadim/projects/ipaugenblick/dpdk-1.6.0r2/x86_64-default-linuxapp-gcc/lib/librte_pmd_ixgbe.a(ixgbe_dcb.o)
                                                  /home/vadim/projects/ipaugenblick/dpdk-1.6.0r2/x86_64-default-linuxapp-gcc/lib/librte_pmd_ixgbe.a(ixgbe_rxtx.o)
ixgbe_dcb_unpack_pfc_cee                          /home/vadim/projects/ipaugenblick/dpdk-1.6.0r2/x86_64-default-linuxapp-gcc/lib/librte_pmd_ixgbe.a(ixgbe_dcb.o)
                                                  /home/vadim/projects/ipaugenblick/dpdk-1.6.0r2/x86_64-default-linuxapp-gcc/lib/librte_pmd_ixgbe.a(ixgbe_rxtx.o)
ixgbe_dcb_unpack_refill_cee                       /home/vadim/projects/ipaugenblick/dpdk-1.6.0r2/x86_64-default-linuxapp-gcc/lib/librte_pmd_ixgbe.a(ixgbe_dcb.o)
                                                  /home/vadim/projects/ipaugenblick/dpdk-1.6.0r2/x86_64-default-linuxapp-gcc/lib/librte_pmd_ixgbe.a(ixgbe_rxtx.o)
ixgbe_dcb_unpack_tsa_cee                          /home/vadim/projects/ipaugenblick/dpdk-1.6.0r2/x86_64-default-linuxapp-gcc/lib/librte_pmd_ixgbe.a(ixgbe_dcb.o)
                                                  /home/vadim/projects/ipaugenblick/dpdk-1.6.0r2/x86_64-default-linuxapp-gcc/lib/librte_pmd_ixgbe.a(ixgbe_rxtx.o)
ixgbe_dev_clear_queues                            /home/vadim/projects/ipaugenblick/dpdk-1.6.0r2/x86_64-default-linuxapp-gcc/lib/librte_pmd_ixgbe.a(ixgbe_rxtx.o)
                                                  /home/vadim/projects/ipaugenblick/dpdk-1.6.0r2/x86_64-default-linuxapp-gcc/lib/librte_pmd_ixgbe.a(ixgbe_ethdev.o)
ixgbe_dev_rx_descriptor_done                      /home/vadim/projects/ipaugenblick/dpdk-1.6.0r2/x86_64-default-linuxapp-gcc/lib/librte_pmd_ixgbe.a(ixgbe_rxtx.o)
                                                  /home/vadim/projects/ipaugenblick/dpdk-1.6.0r2/x86_64-default-linuxapp-gcc/lib/librte_pmd_ixgbe.a(ixgbe_ethdev.o)
ixgbe_dev_rx_init                                 /home/vadim/projects/ipaugenblick/dpdk-1.6.0r2/x86_64-default-linuxapp-gcc/lib/librte_pmd_ixgbe.a(ixgbe_rxtx.o)
                                                  /home/vadim/projects/ipaugenblick/dpdk-1.6.0r2/x86_64-default-linuxapp-gcc/lib/librte_pmd_ixgbe.a(ixgbe_ethdev.o)
ixgbe_dev_rx_queue_count                          /home/vadim/projects/ipaugenblick/dpdk-1.6.0r2/x86_64-default-linuxapp-gcc/lib/librte_pmd_ixgbe.a(ixgbe_rxtx.o)
                                                  /home/vadim/projects/ipaugenblick/dpdk-1.6.0r2/x86_64-default-linuxapp-gcc/lib/librte_pmd_ixgbe.a(ixgbe_ethdev.o)
ixgbe_dev_rx_queue_release                        /home/vadim/projects/ipaugenblick/dpdk-1.6.0r2/x86_64-default-linuxapp-gcc/lib/librte_pmd_ixgbe.a(ixgbe_rxtx.o)
                                                  /home/vadim/projects/ipaugenblick/dpdk-1.6.0r2/x86_64-default-linuxapp-gcc/lib/librte_pmd_ixgbe.a(ixgbe_ethdev.o)
ixgbe_dev_rx_queue_setup                          /home/vadim/projects/ipaugenblick/dpdk-1.6.0r2/x86_64-default-linuxapp-gcc/lib/librte_pmd_ixgbe.a(ixgbe_rxtx.o)
                                                  /home/vadim/projects/ipaugenblick/dpdk-1.6.0r2/x86_64-default-linuxapp-gcc/lib/librte_pmd_ixgbe.a(ixgbe_ethdev.o)
ixgbe_dev_rxtx_start                              /home/vadim/projects/ipaugenblick/dpdk-1.6.0r2/x86_64-default-linuxapp-gcc/lib/librte_pmd_ixgbe.a(ixgbe_rxtx.o)
                                                  /home/vadim/projects/ipaugenblick/dpdk-1.6.0r2/x86_64-default-linuxapp-gcc/lib/librte_pmd_ixgbe.a(ixgbe_ethdev.o)
ixgbe_dev_tx_init                                 /home/vadim/projects/ipaugenblick/dpdk-1.6.0r2/x86_64-default-linuxapp-gcc/lib/librte_pmd_ixgbe.a(ixgbe_rxtx.o)
                                                  /home/vadim/projects/ipaugenblick/dpdk-1.6.0r2/x86_64-default-linuxapp-gcc/lib/librte_pmd_ixgbe.a(ixgbe_ethdev.o)
ixgbe_dev_tx_queue_release                        /home/vadim/projects/ipaugenblick/dpdk-1.6.0r2/x86_64-default-linuxapp-gcc/lib/librte_pmd_ixgbe.a(ixgbe_rxtx.o)
                                                  /home/vadim/projects/ipaugenblick/dpdk-1.6.0r2/x86_64-default-linuxapp-gcc/lib/librte_pmd_ixgbe.a(ixgbe_ethdev.o)
ixgbe_dev_tx_queue_setup                          /home/vadim/projects/ipaugenblick/dpdk-1.6.0r2/x86_64-default-linuxapp-gcc/lib/librte_pmd_ixgbe.a(ixgbe_rxtx.o)
                                                  /home/vadim/projects/ipaugenblick/dpdk-1.6.0r2/x86_64-default-linuxapp-gcc/lib/librte_pmd_ixgbe.a(ixgbe_ethdev.o)
ixgbe_device_supports_autoneg_fc                  /home/vadim/projects/ipaugenblick/dpdk-1.6.0r2/x86_64-default-linuxapp-gcc/lib/librte_pmd_ixgbe.a(ixgbe_common.o)
ixgbe_disable_mc                                  /home/vadim/projects/ipaugenblick/dpdk-1.6.0r2/x86_64-default-linuxapp-gcc/lib/librte_pmd_ixgbe.a(ixgbe_api.o)
ixgbe_disable_mc_generic                          /home/vadim/projects/ipaugenblick/dpdk-1.6.0r2/x86_64-default-linuxapp-gcc/lib/librte_pmd_ixgbe.a(ixgbe_common.o)
ixgbe_disable_pcie_master                         /home/vadim/projects/ipaugenblick/dpdk-1.6.0r2/x86_64-default-linuxapp-gcc/lib/librte_pmd_ixgbe.a(ixgbe_common.o)
                                                  /home/vadim/projects/ipaugenblick/dpdk-1.6.0r2/x86_64-default-linuxapp-gcc/lib/librte_pmd_ixgbe.a(ixgbe_ethdev.o)
ixgbe_disable_sec_rx_path                         /home/vadim/projects/ipaugenblick/dpdk-1.6.0r2/x86_64-default-linuxapp-gcc/lib/librte_pmd_ixgbe.a(ixgbe_api.o)
ixgbe_disable_sec_rx_path_generic                 /home/vadim/projects/ipaugenblick/dpdk-1.6.0r2/x86_64-default-linuxapp-gcc/lib/librte_pmd_ixgbe.a(ixgbe_common.o)
                                                  /home/vadim/projects/ipaugenblick/dpdk-1.6.0r2/x86_64-default-linuxapp-gcc/lib/librte_pmd_ixgbe.a(ixgbe_x540.o)
                                                  /home/vadim/projects/ipaugenblick/dpdk-1.6.0r2/x86_64-default-linuxapp-gcc/lib/librte_pmd_ixgbe.a(ixgbe_82599.o)
ixgbe_disable_tx_laser                            /home/vadim/projects/ipaugenblick/dpdk-1.6.0r2/x86_64-default-linuxapp-gcc/lib/librte_pmd_ixgbe.a(ixgbe_api.o)
                                                  /home/vadim/projects/ipaugenblick/dpdk-1.6.0r2/x86_64-default-linuxapp-gcc/lib/librte_pmd_ixgbe.a(ixgbe_ethdev.o)
ixgbe_disable_tx_laser_multispeed_fiber           /home/vadim/projects/ipaugenblick/dpdk-1.6.0r2/x86_64-default-linuxapp-gcc/lib/librte_pmd_ixgbe.a(ixgbe_82599.o)
ixgbe_enable_mc                                   /home/vadim/projects/ipaugenblick/dpdk-1.6.0r2/x86_64-default-linuxapp-gcc/lib/librte_pmd_ixgbe.a(ixgbe_api.o)
ixgbe_enable_mc_generic                           /home/vadim/projects/ipaugenblick/dpdk-1.6.0r2/x86_64-default-linuxapp-gcc/lib/librte_pmd_ixgbe.a(ixgbe_common.o)
ixgbe_enable_relaxed_ordering                     /home/vadim/projects/ipaugenblick/dpdk-1.6.0r2/x86_64-default-linuxapp-gcc/lib/librte_pmd_ixgbe.a(ixgbe_api.o)
ixgbe_enable_relaxed_ordering_82598               /home/vadim/projects/ipaugenblick/dpdk-1.6.0r2/x86_64-default-linuxapp-gcc/lib/librte_pmd_ixgbe.a(ixgbe_82598.o)
ixgbe_enable_relaxed_ordering_gen2                /home/vadim/projects/ipaugenblick/dpdk-1.6.0r2/x86_64-default-linuxapp-gcc/lib/librte_pmd_ixgbe.a(ixgbe_common.o)
                                                  /home/vadim/projects/ipaugenblick/dpdk-1.6.0r2/x86_64-default-linuxapp-gcc/lib/librte_pmd_ixgbe.a(ixgbe_x540.o)
                                                  /home/vadim/projects/ipaugenblick/dpdk-1.6.0r2/x86_64-default-linuxapp-gcc/lib/librte_pmd_ixgbe.a(ixgbe_82599.o)
ixgbe_enable_rx_dma                               /home/vadim/projects/ipaugenblick/dpdk-1.6.0r2/x86_64-default-linuxapp-gcc/lib/librte_pmd_ixgbe.a(ixgbe_api.o)
ixgbe_enable_rx_dma_82599                         /home/vadim/projects/ipaugenblick/dpdk-1.6.0r2/x86_64-default-linuxapp-gcc/lib/librte_pmd_ixgbe.a(ixgbe_82599.o)
ixgbe_enable_rx_dma_generic                       /home/vadim/projects/ipaugenblick/dpdk-1.6.0r2/x86_64-default-linuxapp-gcc/lib/librte_pmd_ixgbe.a(ixgbe_common.o)
ixgbe_enable_sec_rx_path                          /home/vadim/projects/ipaugenblick/dpdk-1.6.0r2/x86_64-default-linuxapp-gcc/lib/librte_pmd_ixgbe.a(ixgbe_api.o)
ixgbe_enable_sec_rx_path_generic                  /home/vadim/projects/ipaugenblick/dpdk-1.6.0r2/x86_64-default-linuxapp-gcc/lib/librte_pmd_ixgbe.a(ixgbe_common.o)
                                                  /home/vadim/projects/ipaugenblick/dpdk-1.6.0r2/x86_64-default-linuxapp-gcc/lib/librte_pmd_ixgbe.a(ixgbe_x540.o)
                                                  /home/vadim/projects/ipaugenblick/dpdk-1.6.0r2/x86_64-default-linuxapp-gcc/lib/librte_pmd_ixgbe.a(ixgbe_82599.o)
ixgbe_enable_tx_laser                             /home/vadim/projects/ipaugenblick/dpdk-1.6.0r2/x86_64-default-linuxapp-gcc/lib/librte_pmd_ixgbe.a(ixgbe_api.o)
                                                  /home/vadim/projects/ipaugenblick/dpdk-1.6.0r2/x86_64-default-linuxapp-gcc/lib/librte_pmd_ixgbe.a(ixgbe_ethdev.o)
ixgbe_enable_tx_laser_multispeed_fiber            /home/vadim/projects/ipaugenblick/dpdk-1.6.0r2/x86_64-default-linuxapp-gcc/lib/librte_pmd_ixgbe.a(ixgbe_82599.o)
ixgbe_fc_autoneg                                  /home/vadim/projects/ipaugenblick/dpdk-1.6.0r2/x86_64-default-linuxapp-gcc/lib/librte_pmd_ixgbe.a(ixgbe_common.o)
                                                  /home/vadim/projects/ipaugenblick/dpdk-1.6.0r2/x86_64-default-linuxapp-gcc/lib/librte_pmd_ixgbe.a(ixgbe_ethdev.o)
                                                  /home/vadim/projects/ipaugenblick/dpdk-1.6.0r2/x86_64-default-linuxapp-gcc/lib/librte_pmd_ixgbe.a(ixgbe_82598.o)
ixgbe_fc_enable                                   /home/vadim/projects/ipaugenblick/dpdk-1.6.0r2/x86_64-default-linuxapp-gcc/lib/librte_pmd_ixgbe.a(ixgbe_api.o)
                                                  /home/vadim/projects/ipaugenblick/dpdk-1.6.0r2/x86_64-default-linuxapp-gcc/lib/librte_pmd_ixgbe.a(ixgbe_ethdev.o)
ixgbe_fc_enable_82598                             /home/vadim/projects/ipaugenblick/dpdk-1.6.0r2/x86_64-default-linuxapp-gcc/lib/librte_pmd_ixgbe.a(ixgbe_82598.o)
ixgbe_fc_enable_generic                           /home/vadim/projects/ipaugenblick/dpdk-1.6.0r2/x86_64-default-linuxapp-gcc/lib/librte_pmd_ixgbe.a(ixgbe_common.o)
ixgbe_fdir_add_perfect_filter                     /home/vadim/projects/ipaugenblick/dpdk-1.6.0r2/x86_64-default-linuxapp-gcc/lib/librte_pmd_ixgbe.a(ixgbe_fdir.o)
                                                  /home/vadim/projects/ipaugenblick/dpdk-1.6.0r2/x86_64-default-linuxapp-gcc/lib/librte_pmd_ixgbe.a(ixgbe_ethdev.o)
ixgbe_fdir_add_perfect_filter_82599               /home/vadim/projects/ipaugenblick/dpdk-1.6.0r2/x86_64-default-linuxapp-gcc/lib/librte_pmd_ixgbe.a(ixgbe_82599.o)
ixgbe_fdir_add_signature_filter                   /home/vadim/projects/ipaugenblick/dpdk-1.6.0r2/x86_64-default-linuxapp-gcc/lib/librte_pmd_ixgbe.a(ixgbe_fdir.o)
                                                  /home/vadim/projects/ipaugenblick/dpdk-1.6.0r2/x86_64-default-linuxapp-gcc/lib/librte_pmd_ixgbe.a(ixgbe_ethdev.o)
ixgbe_fdir_add_signature_filter_82599             /home/vadim/projects/ipaugenblick/dpdk-1.6.0r2/x86_64-default-linuxapp-gcc/lib/librte_pmd_ixgbe.a(ixgbe_82599.o)
ixgbe_fdir_configure                              /home/vadim/projects/ipaugenblick/dpdk-1.6.0r2/x86_64-default-linuxapp-gcc/lib/librte_pmd_ixgbe.a(ixgbe_fdir.o)
                                                  /home/vadim/projects/ipaugenblick/dpdk-1.6.0r2/x86_64-default-linuxapp-gcc/lib/librte_pmd_ixgbe.a(ixgbe_ethdev.o)
ixgbe_fdir_erase_perfect_filter_82599             /home/vadim/projects/ipaugenblick/dpdk-1.6.0r2/x86_64-default-linuxapp-gcc/lib/librte_pmd_ixgbe.a(ixgbe_82599.o)
ixgbe_fdir_info_get                               /home/vadim/projects/ipaugenblick/dpdk-1.6.0r2/x86_64-default-linuxapp-gcc/lib/librte_pmd_ixgbe.a(ixgbe_fdir.o)
                                                  /home/vadim/projects/ipaugenblick/dpdk-1.6.0r2/x86_64-default-linuxapp-gcc/lib/librte_pmd_ixgbe.a(ixgbe_ethdev.o)
ixgbe_fdir_remove_perfect_filter                  /home/vadim/projects/ipaugenblick/dpdk-1.6.0r2/x86_64-default-linuxapp-gcc/lib/librte_pmd_ixgbe.a(ixgbe_fdir.o)
                                                  /home/vadim/projects/ipaugenblick/dpdk-1.6.0r2/x86_64-default-linuxapp-gcc/lib/librte_pmd_ixgbe.a(ixgbe_ethdev.o)
ixgbe_fdir_remove_signature_filter                /home/vadim/projects/ipaugenblick/dpdk-1.6.0r2/x86_64-default-linuxapp-gcc/lib/librte_pmd_ixgbe.a(ixgbe_fdir.o)
                                                  /home/vadim/projects/ipaugenblick/dpdk-1.6.0r2/x86_64-default-linuxapp-gcc/lib/librte_pmd_ixgbe.a(ixgbe_ethdev.o)
ixgbe_fdir_set_input_mask_82599                   /home/vadim/projects/ipaugenblick/dpdk-1.6.0r2/x86_64-default-linuxapp-gcc/lib/librte_pmd_ixgbe.a(ixgbe_82599.o)
ixgbe_fdir_set_masks                              /home/vadim/projects/ipaugenblick/dpdk-1.6.0r2/x86_64-default-linuxapp-gcc/lib/librte_pmd_ixgbe.a(ixgbe_fdir.o)
                                                  /home/vadim/projects/ipaugenblick/dpdk-1.6.0r2/x86_64-default-linuxapp-gcc/lib/librte_pmd_ixgbe.a(ixgbe_ethdev.o)
ixgbe_fdir_update_perfect_filter                  /home/vadim/projects/ipaugenblick/dpdk-1.6.0r2/x86_64-default-linuxapp-gcc/lib/librte_pmd_ixgbe.a(ixgbe_fdir.o)
                                                  /home/vadim/projects/ipaugenblick/dpdk-1.6.0r2/x86_64-default-linuxapp-gcc/lib/librte_pmd_ixgbe.a(ixgbe_ethdev.o)
ixgbe_fdir_update_signature_filter                /home/vadim/projects/ipaugenblick/dpdk-1.6.0r2/x86_64-default-linuxapp-gcc/lib/librte_pmd_ixgbe.a(ixgbe_fdir.o)
                                                  /home/vadim/projects/ipaugenblick/dpdk-1.6.0r2/x86_64-default-linuxapp-gcc/lib/librte_pmd_ixgbe.a(ixgbe_ethdev.o)
ixgbe_fdir_write_perfect_filter_82599             /home/vadim/projects/ipaugenblick/dpdk-1.6.0r2/x86_64-default-linuxapp-gcc/lib/librte_pmd_ixgbe.a(ixgbe_82599.o)
ixgbe_find_vlvf_slot                              /home/vadim/projects/ipaugenblick/dpdk-1.6.0r2/x86_64-default-linuxapp-gcc/lib/librte_pmd_ixgbe.a(ixgbe_common.o)
                                                  /home/vadim/projects/ipaugenblick/dpdk-1.6.0r2/x86_64-default-linuxapp-gcc/lib/librte_pmd_ixgbe.a(ixgbe_ethdev.o)
ixgbe_flap_tx_laser                               /home/vadim/projects/ipaugenblick/dpdk-1.6.0r2/x86_64-default-linuxapp-gcc/lib/librte_pmd_ixgbe.a(ixgbe_api.o)
                                                  /home/vadim/projects/ipaugenblick/dpdk-1.6.0r2/x86_64-default-linuxapp-gcc/lib/librte_pmd_ixgbe.a(ixgbe_82599.o)
ixgbe_flap_tx_laser_multispeed_fiber              /home/vadim/projects/ipaugenblick/dpdk-1.6.0r2/x86_64-default-linuxapp-gcc/lib/librte_pmd_ixgbe.a(ixgbe_82599.o)
ixgbe_get_bus_info                                /home/vadim/projects/ipaugenblick/dpdk-1.6.0r2/x86_64-default-linuxapp-gcc/lib/librte_pmd_ixgbe.a(ixgbe_api.o)
                                                  /home/vadim/projects/ipaugenblick/dpdk-1.6.0r2/x86_64-default-linuxapp-gcc/lib/librte_pmd_ixgbe.a(ixgbe_ethdev.o)
ixgbe_get_bus_info_generic                        /home/vadim/projects/ipaugenblick/dpdk-1.6.0r2/x86_64-default-linuxapp-gcc/lib/librte_pmd_ixgbe.a(ixgbe_common.o)
ixgbe_get_copper_link_capabilities_generic        /home/vadim/projects/ipaugenblick/dpdk-1.6.0r2/x86_64-default-linuxapp-gcc/lib/librte_pmd_ixgbe.a(ixgbe_phy.o)
                                                  /home/vadim/projects/ipaugenblick/dpdk-1.6.0r2/x86_64-default-linuxapp-gcc/lib/librte_pmd_ixgbe.a(ixgbe_x540.o)
                                                  /home/vadim/projects/ipaugenblick/dpdk-1.6.0r2/x86_64-default-linuxapp-gcc/lib/librte_pmd_ixgbe.a(ixgbe_82599.o)
                                                  /home/vadim/projects/ipaugenblick/dpdk-1.6.0r2/x86_64-default-linuxapp-gcc/lib/librte_pmd_ixgbe.a(ixgbe_82598.o)
ixgbe_get_device_caps                             /home/vadim/projects/ipaugenblick/dpdk-1.6.0r2/x86_64-default-linuxapp-gcc/lib/librte_pmd_ixgbe.a(ixgbe_api.o)
                                                  /home/vadim/projects/ipaugenblick/dpdk-1.6.0r2/x86_64-default-linuxapp-gcc/lib/librte_pmd_ixgbe.a(ixgbe_phy.o)
ixgbe_get_device_caps_generic                     /home/vadim/projects/ipaugenblick/dpdk-1.6.0r2/x86_64-default-linuxapp-gcc/lib/librte_pmd_ixgbe.a(ixgbe_common.o)
                                                  /home/vadim/projects/ipaugenblick/dpdk-1.6.0r2/x86_64-default-linuxapp-gcc/lib/librte_pmd_ixgbe.a(ixgbe_x540.o)
                                                  /home/vadim/projects/ipaugenblick/dpdk-1.6.0r2/x86_64-default-linuxapp-gcc/lib/librte_pmd_ixgbe.a(ixgbe_82599.o)
ixgbe_get_fcoe_boot_status                        /home/vadim/projects/ipaugenblick/dpdk-1.6.0r2/x86_64-default-linuxapp-gcc/lib/librte_pmd_ixgbe.a(ixgbe_api.o)
ixgbe_get_fcoe_boot_status_generic                /home/vadim/projects/ipaugenblick/dpdk-1.6.0r2/x86_64-default-linuxapp-gcc/lib/librte_pmd_ixgbe.a(ixgbe_common.o)
                                                  /home/vadim/projects/ipaugenblick/dpdk-1.6.0r2/x86_64-default-linuxapp-gcc/lib/librte_pmd_ixgbe.a(ixgbe_x540.o)
                                                  /home/vadim/projects/ipaugenblick/dpdk-1.6.0r2/x86_64-default-linuxapp-gcc/lib/librte_pmd_ixgbe.a(ixgbe_82599.o)
ixgbe_get_link_capabilities                       /home/vadim/projects/ipaugenblick/dpdk-1.6.0r2/x86_64-default-linuxapp-gcc/lib/librte_pmd_ixgbe.a(ixgbe_api.o)
                                                  /home/vadim/projects/ipaugenblick/dpdk-1.6.0r2/x86_64-default-linuxapp-gcc/lib/librte_pmd_ixgbe.a(ixgbe_ethdev.o)
                                                  /home/vadim/projects/ipaugenblick/dpdk-1.6.0r2/x86_64-default-linuxapp-gcc/lib/librte_pmd_ixgbe.a(ixgbe_82599.o)
                                                  /home/vadim/projects/ipaugenblick/dpdk-1.6.0r2/x86_64-default-linuxapp-gcc/lib/librte_pmd_ixgbe.a(ixgbe_82598.o)
ixgbe_get_link_capabilities_82599                 /home/vadim/projects/ipaugenblick/dpdk-1.6.0r2/x86_64-default-linuxapp-gcc/lib/librte_pmd_ixgbe.a(ixgbe_82599.o)
ixgbe_get_link_capabilities_X540                  /home/vadim/projects/ipaugenblick/dpdk-1.6.0r2/x86_64-default-linuxapp-gcc/lib/librte_pmd_ixgbe.a(ixgbe_x540.o)
ixgbe_get_mac_addr                                /home/vadim/projects/ipaugenblick/dpdk-1.6.0r2/x86_64-default-linuxapp-gcc/lib/librte_pmd_ixgbe.a(ixgbe_api.o)
ixgbe_get_mac_addr_generic                        /home/vadim/projects/ipaugenblick/dpdk-1.6.0r2/x86_64-default-linuxapp-gcc/lib/librte_pmd_ixgbe.a(ixgbe_common.o)
ixgbe_get_mac_addr_vf                             /home/vadim/projects/ipaugenblick/dpdk-1.6.0r2/x86_64-default-linuxapp-gcc/lib/librte_pmd_ixgbe.a(ixgbe_vf.o)
ixgbe_get_media_type                              /home/vadim/projects/ipaugenblick/dpdk-1.6.0r2/x86_64-default-linuxapp-gcc/lib/librte_pmd_ixgbe.a(ixgbe_api.o)
                                                  /home/vadim/projects/ipaugenblick/dpdk-1.6.0r2/x86_64-default-linuxapp-gcc/lib/librte_pmd_ixgbe.a(ixgbe_82599.o)
ixgbe_get_media_type_82599                        /home/vadim/projects/ipaugenblick/dpdk-1.6.0r2/x86_64-default-linuxapp-gcc/lib/librte_pmd_ixgbe.a(ixgbe_82599.o)
ixgbe_get_media_type_X540                         /home/vadim/projects/ipaugenblick/dpdk-1.6.0r2/x86_64-default-linuxapp-gcc/lib/librte_pmd_ixgbe.a(ixgbe_x540.o)
ixgbe_get_num_of_rx_queues                        /home/vadim/projects/ipaugenblick/dpdk-1.6.0r2/x86_64-default-linuxapp-gcc/lib/librte_pmd_ixgbe.a(ixgbe_api.o)
ixgbe_get_num_of_rx_queues_vf                     /home/vadim/projects/ipaugenblick/dpdk-1.6.0r2/x86_64-default-linuxapp-gcc/lib/librte_pmd_ixgbe.a(ixgbe_vf.o)
ixgbe_get_num_of_tx_queues                        /home/vadim/projects/ipaugenblick/dpdk-1.6.0r2/x86_64-default-linuxapp-gcc/lib/librte_pmd_ixgbe.a(ixgbe_api.o)
ixgbe_get_num_of_tx_queues_vf                     /home/vadim/projects/ipaugenblick/dpdk-1.6.0r2/x86_64-default-linuxapp-gcc/lib/librte_pmd_ixgbe.a(ixgbe_vf.o)
ixgbe_get_num_rx_addrs                            /home/vadim/projects/ipaugenblick/dpdk-1.6.0r2/x86_64-default-linuxapp-gcc/lib/librte_pmd_ixgbe.a(ixgbe_api.o)
ixgbe_get_pba_block_size                          /home/vadim/projects/ipaugenblick/dpdk-1.6.0r2/x86_64-default-linuxapp-gcc/lib/librte_pmd_ixgbe.a(ixgbe_common.o)
ixgbe_get_pcie_msix_count_generic                 /home/vadim/projects/ipaugenblick/dpdk-1.6.0r2/x86_64-default-linuxapp-gcc/lib/librte_pmd_ixgbe.a(ixgbe_common.o)
                                                  /home/vadim/projects/ipaugenblick/dpdk-1.6.0r2/x86_64-default-linuxapp-gcc/lib/librte_pmd_ixgbe.a(ixgbe_x540.o)
                                                  /home/vadim/projects/ipaugenblick/dpdk-1.6.0r2/x86_64-default-linuxapp-gcc/lib/librte_pmd_ixgbe.a(ixgbe_82599.o)
                                                  /home/vadim/projects/ipaugenblick/dpdk-1.6.0r2/x86_64-default-linuxapp-gcc/lib/librte_pmd_ixgbe.a(ixgbe_82598.o)
ixgbe_get_phy_firmware_version                    /home/vadim/projects/ipaugenblick/dpdk-1.6.0r2/x86_64-default-linuxapp-gcc/lib/librte_pmd_ixgbe.a(ixgbe_api.o)
ixgbe_get_phy_firmware_version_generic            /home/vadim/projects/ipaugenblick/dpdk-1.6.0r2/x86_64-default-linuxapp-gcc/lib/librte_pmd_ixgbe.a(ixgbe_phy.o)
ixgbe_get_phy_firmware_version_tnx                /home/vadim/projects/ipaugenblick/dpdk-1.6.0r2/x86_64-default-linuxapp-gcc/lib/librte_pmd_ixgbe.a(ixgbe_phy.o)
                                                  /home/vadim/projects/ipaugenblick/dpdk-1.6.0r2/x86_64-default-linuxapp-gcc/lib/librte_pmd_ixgbe.a(ixgbe_82599.o)
                                                  /home/vadim/projects/ipaugenblick/dpdk-1.6.0r2/x86_64-default-linuxapp-gcc/lib/librte_pmd_ixgbe.a(ixgbe_82598.o)
ixgbe_get_phy_id                                  /home/vadim/projects/ipaugenblick/dpdk-1.6.0r2/x86_64-default-linuxapp-gcc/lib/librte_pmd_ixgbe.a(ixgbe_phy.o)
ixgbe_get_phy_type_from_id                        /home/vadim/projects/ipaugenblick/dpdk-1.6.0r2/x86_64-default-linuxapp-gcc/lib/librte_pmd_ixgbe.a(ixgbe_phy.o)
ixgbe_get_san_mac_addr                            /home/vadim/projects/ipaugenblick/dpdk-1.6.0r2/x86_64-default-linuxapp-gcc/lib/librte_pmd_ixgbe.a(ixgbe_api.o)
ixgbe_get_san_mac_addr_generic                    /home/vadim/projects/ipaugenblick/dpdk-1.6.0r2/x86_64-default-linuxapp-gcc/lib/librte_pmd_ixgbe.a(ixgbe_common.o)
                                                  /home/vadim/projects/ipaugenblick/dpdk-1.6.0r2/x86_64-default-linuxapp-gcc/lib/librte_pmd_ixgbe.a(ixgbe_x540.o)
                                                  /home/vadim/projects/ipaugenblick/dpdk-1.6.0r2/x86_64-default-linuxapp-gcc/lib/librte_pmd_ixgbe.a(ixgbe_82599.o)
ixgbe_get_sfp_init_sequence_offsets               /home/vadim/projects/ipaugenblick/dpdk-1.6.0r2/x86_64-default-linuxapp-gcc/lib/librte_pmd_ixgbe.a(ixgbe_phy.o)
                                                  /home/vadim/projects/ipaugenblick/dpdk-1.6.0r2/x86_64-default-linuxapp-gcc/lib/librte_pmd_ixgbe.a(ixgbe_82599.o)
                                                  /home/vadim/projects/ipaugenblick/dpdk-1.6.0r2/x86_64-default-linuxapp-gcc/lib/librte_pmd_ixgbe.a(ixgbe_82598.o)
ixgbe_get_supported_physical_layer                /home/vadim/projects/ipaugenblick/dpdk-1.6.0r2/x86_64-default-linuxapp-gcc/lib/librte_pmd_ixgbe.a(ixgbe_api.o)
ixgbe_get_supported_physical_layer_82598          /home/vadim/projects/ipaugenblick/dpdk-1.6.0r2/x86_64-default-linuxapp-gcc/lib/librte_pmd_ixgbe.a(ixgbe_82598.o)
ixgbe_get_supported_physical_layer_82599          /home/vadim/projects/ipaugenblick/dpdk-1.6.0r2/x86_64-default-linuxapp-gcc/lib/librte_pmd_ixgbe.a(ixgbe_82599.o)
ixgbe_get_supported_physical_layer_X540           /home/vadim/projects/ipaugenblick/dpdk-1.6.0r2/x86_64-default-linuxapp-gcc/lib/librte_pmd_ixgbe.a(ixgbe_x540.o)
ixgbe_get_wwn_prefix                              /home/vadim/projects/ipaugenblick/dpdk-1.6.0r2/x86_64-default-linuxapp-gcc/lib/librte_pmd_ixgbe.a(ixgbe_api.o)
ixgbe_get_wwn_prefix_generic                      /home/vadim/projects/ipaugenblick/dpdk-1.6.0r2/x86_64-default-linuxapp-gcc/lib/librte_pmd_ixgbe.a(ixgbe_common.o)
                                                  /home/vadim/projects/ipaugenblick/dpdk-1.6.0r2/x86_64-default-linuxapp-gcc/lib/librte_pmd_ixgbe.a(ixgbe_x540.o)
                                                  /home/vadim/projects/ipaugenblick/dpdk-1.6.0r2/x86_64-default-linuxapp-gcc/lib/librte_pmd_ixgbe.a(ixgbe_82599.o)
ixgbe_i2c_bus_clear                               /home/vadim/projects/ipaugenblick/dpdk-1.6.0r2/x86_64-default-linuxapp-gcc/lib/librte_pmd_ixgbe.a(ixgbe_phy.o)
ixgbe_identify_module_generic                     /home/vadim/projects/ipaugenblick/dpdk-1.6.0r2/x86_64-default-linuxapp-gcc/lib/librte_pmd_ixgbe.a(ixgbe_phy.o)
                                                  /home/vadim/projects/ipaugenblick/dpdk-1.6.0r2/x86_64-default-linuxapp-gcc/lib/librte_pmd_ixgbe.a(ixgbe_82599.o)
ixgbe_identify_phy                                /home/vadim/projects/ipaugenblick/dpdk-1.6.0r2/x86_64-default-linuxapp-gcc/lib/librte_pmd_ixgbe.a(ixgbe_api.o)
                                                  /home/vadim/projects/ipaugenblick/dpdk-1.6.0r2/x86_64-default-linuxapp-gcc/lib/librte_pmd_ixgbe.a(ixgbe_common.o)
ixgbe_identify_phy_82599                          /home/vadim/projects/ipaugenblick/dpdk-1.6.0r2/x86_64-default-linuxapp-gcc/lib/librte_pmd_ixgbe.a(ixgbe_82599.o)
ixgbe_identify_phy_generic                        /home/vadim/projects/ipaugenblick/dpdk-1.6.0r2/x86_64-default-linuxapp-gcc/lib/librte_pmd_ixgbe.a(ixgbe_phy.o)
                                                  /home/vadim/projects/ipaugenblick/dpdk-1.6.0r2/x86_64-default-linuxapp-gcc/lib/librte_pmd_ixgbe.a(ixgbe_82599.o)
ixgbe_identify_sfp_module_generic                 /home/vadim/projects/ipaugenblick/dpdk-1.6.0r2/x86_64-default-linuxapp-gcc/lib/librte_pmd_ixgbe.a(ixgbe_phy.o)
ixgbe_init_eeprom_params                          /home/vadim/projects/ipaugenblick/dpdk-1.6.0r2/x86_64-default-linuxapp-gcc/lib/librte_pmd_ixgbe.a(ixgbe_api.o)
ixgbe_init_eeprom_params_X540                     /home/vadim/projects/ipaugenblick/dpdk-1.6.0r2/x86_64-default-linuxapp-gcc/lib/librte_pmd_ixgbe.a(ixgbe_x540.o)
ixgbe_init_eeprom_params_generic                  /home/vadim/projects/ipaugenblick/dpdk-1.6.0r2/x86_64-default-linuxapp-gcc/lib/librte_pmd_ixgbe.a(ixgbe_common.o)
ixgbe_init_fdir_perfect_82599                     /home/vadim/projects/ipaugenblick/dpdk-1.6.0r2/x86_64-default-linuxapp-gcc/lib/librte_pmd_ixgbe.a(ixgbe_82599.o)
ixgbe_init_fdir_signature_82599                   /home/vadim/projects/ipaugenblick/dpdk-1.6.0r2/x86_64-default-linuxapp-gcc/lib/librte_pmd_ixgbe.a(ixgbe_82599.o)
ixgbe_init_hw                                     /home/vadim/projects/ipaugenblick/dpdk-1.6.0r2/x86_64-default-linuxapp-gcc/lib/librte_pmd_ixgbe.a(ixgbe_api.o)
                                                  /home/vadim/projects/ipaugenblick/dpdk-1.6.0r2/x86_64-default-linuxapp-gcc/lib/librte_pmd_ixgbe.a(ixgbe_ethdev.o)
ixgbe_init_hw_generic                             /home/vadim/projects/ipaugenblick/dpdk-1.6.0r2/x86_64-default-linuxapp-gcc/lib/librte_pmd_ixgbe.a(ixgbe_common.o)
ixgbe_init_hw_vf                                  /home/vadim/projects/ipaugenblick/dpdk-1.6.0r2/x86_64-default-linuxapp-gcc/lib/librte_pmd_ixgbe.a(ixgbe_vf.o)
ixgbe_init_mac_link_ops_82599                     /home/vadim/projects/ipaugenblick/dpdk-1.6.0r2/x86_64-default-linuxapp-gcc/lib/librte_pmd_ixgbe.a(ixgbe_82599.o)
ixgbe_init_mbx_ops_generic                        /home/vadim/projects/ipaugenblick/dpdk-1.6.0r2/x86_64-default-linuxapp-gcc/lib/librte_pmd_ixgbe.a(ixgbe_mbx.o)
ixgbe_init_mbx_params_pf                          /home/vadim/projects/ipaugenblick/dpdk-1.6.0r2/x86_64-default-linuxapp-gcc/lib/librte_pmd_ixgbe.a(ixgbe_mbx.o)
                                                  /home/vadim/projects/ipaugenblick/dpdk-1.6.0r2/x86_64-default-linuxapp-gcc/lib/librte_pmd_ixgbe.a(ixgbe_x540.o)
                                                  /home/vadim/projects/ipaugenblick/dpdk-1.6.0r2/x86_64-default-linuxapp-gcc/lib/librte_pmd_ixgbe.a(ixgbe_82599.o)
ixgbe_init_mbx_params_vf                          /home/vadim/projects/ipaugenblick/dpdk-1.6.0r2/x86_64-default-linuxapp-gcc/lib/librte_pmd_ixgbe.a(ixgbe_mbx.o)
                                                  /home/vadim/projects/ipaugenblick/dpdk-1.6.0r2/x86_64-default-linuxapp-gcc/lib/librte_pmd_ixgbe.a(ixgbe_vf.o)
ixgbe_init_ops_82598                              /home/vadim/projects/ipaugenblick/dpdk-1.6.0r2/x86_64-default-linuxapp-gcc/lib/librte_pmd_ixgbe.a(ixgbe_82598.o)
                                                  /home/vadim/projects/ipaugenblick/dpdk-1.6.0r2/x86_64-default-linuxapp-gcc/lib/librte_pmd_ixgbe.a(ixgbe_api.o)
ixgbe_init_ops_82599                              /home/vadim/projects/ipaugenblick/dpdk-1.6.0r2/x86_64-default-linuxapp-gcc/lib/librte_pmd_ixgbe.a(ixgbe_82599.o)
                                                  /home/vadim/projects/ipaugenblick/dpdk-1.6.0r2/x86_64-default-linuxapp-gcc/lib/librte_pmd_ixgbe.a(ixgbe_api.o)
ixgbe_init_ops_X540                               /home/vadim/projects/ipaugenblick/dpdk-1.6.0r2/x86_64-default-linuxapp-gcc/lib/librte_pmd_ixgbe.a(ixgbe_x540.o)
                                                  /home/vadim/projects/ipaugenblick/dpdk-1.6.0r2/x86_64-default-linuxapp-gcc/lib/librte_pmd_ixgbe.a(ixgbe_api.o)
ixgbe_init_ops_generic                            /home/vadim/projects/ipaugenblick/dpdk-1.6.0r2/x86_64-default-linuxapp-gcc/lib/librte_pmd_ixgbe.a(ixgbe_common.o)
                                                  /home/vadim/projects/ipaugenblick/dpdk-1.6.0r2/x86_64-default-linuxapp-gcc/lib/librte_pmd_ixgbe.a(ixgbe_x540.o)
                                                  /home/vadim/projects/ipaugenblick/dpdk-1.6.0r2/x86_64-default-linuxapp-gcc/lib/librte_pmd_ixgbe.a(ixgbe_82599.o)
                                                  /home/vadim/projects/ipaugenblick/dpdk-1.6.0r2/x86_64-default-linuxapp-gcc/lib/librte_pmd_ixgbe.a(ixgbe_82598.o)
ixgbe_init_ops_vf                                 /home/vadim/projects/ipaugenblick/dpdk-1.6.0r2/x86_64-default-linuxapp-gcc/lib/librte_pmd_ixgbe.a(ixgbe_vf.o)
                                                  /home/vadim/projects/ipaugenblick/dpdk-1.6.0r2/x86_64-default-linuxapp-gcc/lib/librte_pmd_ixgbe.a(ixgbe_api.o)
ixgbe_init_phy_ops_82598                          /home/vadim/projects/ipaugenblick/dpdk-1.6.0r2/x86_64-default-linuxapp-gcc/lib/librte_pmd_ixgbe.a(ixgbe_82598.o)
ixgbe_init_phy_ops_82599                          /home/vadim/projects/ipaugenblick/dpdk-1.6.0r2/x86_64-default-linuxapp-gcc/lib/librte_pmd_ixgbe.a(ixgbe_82599.o)
ixgbe_init_phy_ops_generic                        /home/vadim/projects/ipaugenblick/dpdk-1.6.0r2/x86_64-default-linuxapp-gcc/lib/librte_pmd_ixgbe.a(ixgbe_phy.o)
                                                  /home/vadim/projects/ipaugenblick/dpdk-1.6.0r2/x86_64-default-linuxapp-gcc/lib/librte_pmd_ixgbe.a(ixgbe_x540.o)
                                                  /home/vadim/projects/ipaugenblick/dpdk-1.6.0r2/x86_64-default-linuxapp-gcc/lib/librte_pmd_ixgbe.a(ixgbe_82599.o)
                                                  /home/vadim/projects/ipaugenblick/dpdk-1.6.0r2/x86_64-default-linuxapp-gcc/lib/librte_pmd_ixgbe.a(ixgbe_82598.o)
ixgbe_init_rx_addrs                               /home/vadim/projects/ipaugenblick/dpdk-1.6.0r2/x86_64-default-linuxapp-gcc/lib/librte_pmd_ixgbe.a(ixgbe_api.o)
ixgbe_init_rx_addrs_generic                       /home/vadim/projects/ipaugenblick/dpdk-1.6.0r2/x86_64-default-linuxapp-gcc/lib/librte_pmd_ixgbe.a(ixgbe_common.o)
ixgbe_init_shared_code                            /home/vadim/projects/ipaugenblick/dpdk-1.6.0r2/x86_64-default-linuxapp-gcc/lib/librte_pmd_ixgbe.a(ixgbe_api.o)
                                                  /home/vadim/projects/ipaugenblick/dpdk-1.6.0r2/x86_64-default-linuxapp-gcc/lib/librte_pmd_ixgbe.a(ixgbe_ethdev.o)
ixgbe_init_uta_tables                             /home/vadim/projects/ipaugenblick/dpdk-1.6.0r2/x86_64-default-linuxapp-gcc/lib/librte_pmd_ixgbe.a(ixgbe_api.o)
                                                  /home/vadim/projects/ipaugenblick/dpdk-1.6.0r2/x86_64-default-linuxapp-gcc/lib/librte_pmd_ixgbe.a(ixgbe_common.o)
ixgbe_init_uta_tables_generic                     /home/vadim/projects/ipaugenblick/dpdk-1.6.0r2/x86_64-default-linuxapp-gcc/lib/librte_pmd_ixgbe.a(ixgbe_common.o)
                                                  /home/vadim/projects/ipaugenblick/dpdk-1.6.0r2/x86_64-default-linuxapp-gcc/lib/librte_pmd_ixgbe.a(ixgbe_x540.o)
                                                  /home/vadim/projects/ipaugenblick/dpdk-1.6.0r2/x86_64-default-linuxapp-gcc/lib/librte_pmd_ixgbe.a(ixgbe_82599.o)
ixgbe_insert_mac_addr                             /home/vadim/projects/ipaugenblick/dpdk-1.6.0r2/x86_64-default-linuxapp-gcc/lib/librte_pmd_ixgbe.a(ixgbe_api.o)
ixgbe_insert_mac_addr_generic                     /home/vadim/projects/ipaugenblick/dpdk-1.6.0r2/x86_64-default-linuxapp-gcc/lib/librte_pmd_ixgbe.a(ixgbe_common.o)
                                                  /home/vadim/projects/ipaugenblick/dpdk-1.6.0r2/x86_64-default-linuxapp-gcc/lib/librte_pmd_ixgbe.a(ixgbe_x540.o)
                                                  /home/vadim/projects/ipaugenblick/dpdk-1.6.0r2/x86_64-default-linuxapp-gcc/lib/librte_pmd_ixgbe.a(ixgbe_82599.o)
ixgbe_led_off                                     /home/vadim/projects/ipaugenblick/dpdk-1.6.0r2/x86_64-default-linuxapp-gcc/lib/librte_pmd_ixgbe.a(ixgbe_api.o)
                                                  /home/vadim/projects/ipaugenblick/dpdk-1.6.0r2/x86_64-default-linuxapp-gcc/lib/librte_pmd_ixgbe.a(ixgbe_ethdev.o)
ixgbe_led_off_generic                             /home/vadim/projects/ipaugenblick/dpdk-1.6.0r2/x86_64-default-linuxapp-gcc/lib/librte_pmd_ixgbe.a(ixgbe_common.o)
ixgbe_led_on                                      /home/vadim/projects/ipaugenblick/dpdk-1.6.0r2/x86_64-default-linuxapp-gcc/lib/librte_pmd_ixgbe.a(ixgbe_api.o)
                                                  /home/vadim/projects/ipaugenblick/dpdk-1.6.0r2/x86_64-default-linuxapp-gcc/lib/librte_pmd_ixgbe.a(ixgbe_ethdev.o)
ixgbe_led_on_generic                              /home/vadim/projects/ipaugenblick/dpdk-1.6.0r2/x86_64-default-linuxapp-gcc/lib/librte_pmd_ixgbe.a(ixgbe_common.o)
ixgbe_pf_host_configure                           /home/vadim/projects/ipaugenblick/dpdk-1.6.0r2/x86_64-default-linuxapp-gcc/lib/librte_pmd_ixgbe.a(ixgbe_pf.o)
                                                  /home/vadim/projects/ipaugenblick/dpdk-1.6.0r2/x86_64-default-linuxapp-gcc/lib/librte_pmd_ixgbe.a(ixgbe_ethdev.o)
ixgbe_pf_host_init                                /home/vadim/projects/ipaugenblick/dpdk-1.6.0r2/x86_64-default-linuxapp-gcc/lib/librte_pmd_ixgbe.a(ixgbe_pf.o)
                                                  /home/vadim/projects/ipaugenblick/dpdk-1.6.0r2/x86_64-default-linuxapp-gcc/lib/librte_pmd_ixgbe.a(ixgbe_ethdev.o)
ixgbe_pf_mbx_process                              /home/vadim/projects/ipaugenblick/dpdk-1.6.0r2/x86_64-default-linuxapp-gcc/lib/librte_pmd_ixgbe.a(ixgbe_pf.o)
                                                  /home/vadim/projects/ipaugenblick/dpdk-1.6.0r2/x86_64-default-linuxapp-gcc/lib/librte_pmd_ixgbe.a(ixgbe_ethdev.o)
ixgbe_poll_eerd_eewr_done                         /home/vadim/projects/ipaugenblick/dpdk-1.6.0r2/x86_64-default-linuxapp-gcc/lib/librte_pmd_ixgbe.a(ixgbe_common.o)
ixgbe_read_analog_reg8                            /home/vadim/projects/ipaugenblick/dpdk-1.6.0r2/x86_64-default-linuxapp-gcc/lib/librte_pmd_ixgbe.a(ixgbe_api.o)
ixgbe_read_analog_reg8_82598                      /home/vadim/projects/ipaugenblick/dpdk-1.6.0r2/x86_64-default-linuxapp-gcc/lib/librte_pmd_ixgbe.a(ixgbe_82598.o)
ixgbe_read_analog_reg8_82599                      /home/vadim/projects/ipaugenblick/dpdk-1.6.0r2/x86_64-default-linuxapp-gcc/lib/librte_pmd_ixgbe.a(ixgbe_82599.o)
ixgbe_read_eeprom                                 /home/vadim/projects/ipaugenblick/dpdk-1.6.0r2/x86_64-default-linuxapp-gcc/lib/librte_pmd_ixgbe.a(ixgbe_api.o)
ixgbe_read_eeprom_bit_bang_generic                /home/vadim/projects/ipaugenblick/dpdk-1.6.0r2/x86_64-default-linuxapp-gcc/lib/librte_pmd_ixgbe.a(ixgbe_common.o)
                                                  /home/vadim/projects/ipaugenblick/dpdk-1.6.0r2/x86_64-default-linuxapp-gcc/lib/librte_pmd_ixgbe.a(ixgbe_82599.o)
ixgbe_read_eeprom_buffer                          /home/vadim/projects/ipaugenblick/dpdk-1.6.0r2/x86_64-default-linuxapp-gcc/lib/librte_pmd_ixgbe.a(ixgbe_api.o)
ixgbe_read_eeprom_buffer_bit_bang_generic         /home/vadim/projects/ipaugenblick/dpdk-1.6.0r2/x86_64-default-linuxapp-gcc/lib/librte_pmd_ixgbe.a(ixgbe_common.o)
                                                  /home/vadim/projects/ipaugenblick/dpdk-1.6.0r2/x86_64-default-linuxapp-gcc/lib/librte_pmd_ixgbe.a(ixgbe_82599.o)
ixgbe_read_eerd_X540                              /home/vadim/projects/ipaugenblick/dpdk-1.6.0r2/x86_64-default-linuxapp-gcc/lib/librte_pmd_ixgbe.a(ixgbe_x540.o)
ixgbe_read_eerd_buffer_X540                       /home/vadim/projects/ipaugenblick/dpdk-1.6.0r2/x86_64-default-linuxapp-gcc/lib/librte_pmd_ixgbe.a(ixgbe_x540.o)
ixgbe_read_eerd_buffer_generic                    /home/vadim/projects/ipaugenblick/dpdk-1.6.0r2/x86_64-default-linuxapp-gcc/lib/librte_pmd_ixgbe.a(ixgbe_common.o)
                                                  /home/vadim/projects/ipaugenblick/dpdk-1.6.0r2/x86_64-default-linuxapp-gcc/lib/librte_pmd_ixgbe.a(ixgbe_x540.o)
                                                  /home/vadim/projects/ipaugenblick/dpdk-1.6.0r2/x86_64-default-linuxapp-gcc/lib/librte_pmd_ixgbe.a(ixgbe_82599.o)
ixgbe_read_eerd_generic                           /home/vadim/projects/ipaugenblick/dpdk-1.6.0r2/x86_64-default-linuxapp-gcc/lib/librte_pmd_ixgbe.a(ixgbe_common.o)
                                                  /home/vadim/projects/ipaugenblick/dpdk-1.6.0r2/x86_64-default-linuxapp-gcc/lib/librte_pmd_ixgbe.a(ixgbe_x540.o)
                                                  /home/vadim/projects/ipaugenblick/dpdk-1.6.0r2/x86_64-default-linuxapp-gcc/lib/librte_pmd_ixgbe.a(ixgbe_82599.o)
ixgbe_read_i2c_byte                               /home/vadim/projects/ipaugenblick/dpdk-1.6.0r2/x86_64-default-linuxapp-gcc/lib/librte_pmd_ixgbe.a(ixgbe_api.o)
ixgbe_read_i2c_byte_generic                       /home/vadim/projects/ipaugenblick/dpdk-1.6.0r2/x86_64-default-linuxapp-gcc/lib/librte_pmd_ixgbe.a(ixgbe_phy.o)
ixgbe_read_i2c_eeprom                             /home/vadim/projects/ipaugenblick/dpdk-1.6.0r2/x86_64-default-linuxapp-gcc/lib/librte_pmd_ixgbe.a(ixgbe_api.o)
ixgbe_read_i2c_eeprom_82598                       /home/vadim/projects/ipaugenblick/dpdk-1.6.0r2/x86_64-default-linuxapp-gcc/lib/librte_pmd_ixgbe.a(ixgbe_82598.o)
ixgbe_read_i2c_eeprom_generic                     /home/vadim/projects/ipaugenblick/dpdk-1.6.0r2/x86_64-default-linuxapp-gcc/lib/librte_pmd_ixgbe.a(ixgbe_phy.o)
ixgbe_read_mbx                                    /home/vadim/projects/ipaugenblick/dpdk-1.6.0r2/x86_64-default-linuxapp-gcc/lib/librte_pmd_ixgbe.a(ixgbe_mbx.o)
                                                  /home/vadim/projects/ipaugenblick/dpdk-1.6.0r2/x86_64-default-linuxapp-gcc/lib/librte_pmd_ixgbe.a(ixgbe_pf.o)
ixgbe_read_pba_num                                /home/vadim/projects/ipaugenblick/dpdk-1.6.0r2/x86_64-default-linuxapp-gcc/lib/librte_pmd_ixgbe.a(ixgbe_api.o)
ixgbe_read_pba_num_generic                        /home/vadim/projects/ipaugenblick/dpdk-1.6.0r2/x86_64-default-linuxapp-gcc/lib/librte_pmd_ixgbe.a(ixgbe_common.o)
                                                  /home/vadim/projects/ipaugenblick/dpdk-1.6.0r2/x86_64-default-linuxapp-gcc/lib/librte_pmd_ixgbe.a(ixgbe_api.o)
ixgbe_read_pba_raw                                /home/vadim/projects/ipaugenblick/dpdk-1.6.0r2/x86_64-default-linuxapp-gcc/lib/librte_pmd_ixgbe.a(ixgbe_common.o)
ixgbe_read_pba_string                             /home/vadim/projects/ipaugenblick/dpdk-1.6.0r2/x86_64-default-linuxapp-gcc/lib/librte_pmd_ixgbe.a(ixgbe_api.o)
ixgbe_read_pba_string_generic                     /home/vadim/projects/ipaugenblick/dpdk-1.6.0r2/x86_64-default-linuxapp-gcc/lib/librte_pmd_ixgbe.a(ixgbe_common.o)
                                                  /home/vadim/projects/ipaugenblick/dpdk-1.6.0r2/x86_64-default-linuxapp-gcc/lib/librte_pmd_ixgbe.a(ixgbe_api.o)
ixgbe_read_phy_reg                                /home/vadim/projects/ipaugenblick/dpdk-1.6.0r2/x86_64-default-linuxapp-gcc/lib/librte_pmd_ixgbe.a(ixgbe_api.o)
ixgbe_read_phy_reg_generic                        /home/vadim/projects/ipaugenblick/dpdk-1.6.0r2/x86_64-default-linuxapp-gcc/lib/librte_pmd_ixgbe.a(ixgbe_phy.o)
ixgbe_read_posted_mbx                             /home/vadim/projects/ipaugenblick/dpdk-1.6.0r2/x86_64-default-linuxapp-gcc/lib/librte_pmd_ixgbe.a(ixgbe_mbx.o)
ixgbe_recv_pkts                                   /home/vadim/projects/ipaugenblick/dpdk-1.6.0r2/x86_64-default-linuxapp-gcc/lib/librte_pmd_ixgbe.a(ixgbe_rxtx.o)
                                                  /home/vadim/projects/ipaugenblick/dpdk-1.6.0r2/x86_64-default-linuxapp-gcc/lib/librte_pmd_ixgbe.a(ixgbe_ethdev.o)
ixgbe_recv_pkts_bulk_alloc                        /home/vadim/projects/ipaugenblick/dpdk-1.6.0r2/x86_64-default-linuxapp-gcc/lib/librte_pmd_ixgbe.a(ixgbe_rxtx.o)
ixgbe_recv_scattered_pkts                         /home/vadim/projects/ipaugenblick/dpdk-1.6.0r2/x86_64-default-linuxapp-gcc/lib/librte_pmd_ixgbe.a(ixgbe_rxtx.o)
                                                  /home/vadim/projects/ipaugenblick/dpdk-1.6.0r2/x86_64-default-linuxapp-gcc/lib/librte_pmd_ixgbe.a(ixgbe_ethdev.o)
ixgbe_reinit_fdir_tables_82599                    /home/vadim/projects/ipaugenblick/dpdk-1.6.0r2/x86_64-default-linuxapp-gcc/lib/librte_pmd_ixgbe.a(ixgbe_82599.o)
                                                  /home/vadim/projects/ipaugenblick/dpdk-1.6.0r2/x86_64-default-linuxapp-gcc/lib/librte_pmd_ixgbe.a(ixgbe_fdir.o)
ixgbe_release_swfw_semaphore                      /home/vadim/projects/ipaugenblick/dpdk-1.6.0r2/x86_64-default-linuxapp-gcc/lib/librte_pmd_ixgbe.a(ixgbe_api.o)
                                                  /home/vadim/projects/ipaugenblick/dpdk-1.6.0r2/x86_64-default-linuxapp-gcc/lib/librte_pmd_ixgbe.a(ixgbe_ethdev.o)
ixgbe_release_swfw_sync                           /home/vadim/projects/ipaugenblick/dpdk-1.6.0r2/x86_64-default-linuxapp-gcc/lib/librte_pmd_ixgbe.a(ixgbe_common.o)
ixgbe_release_swfw_sync_X540                      /home/vadim/projects/ipaugenblick/dpdk-1.6.0r2/x86_64-default-linuxapp-gcc/lib/librte_pmd_ixgbe.a(ixgbe_x540.o)
ixgbe_reset_hw                                    /home/vadim/projects/ipaugenblick/dpdk-1.6.0r2/x86_64-default-linuxapp-gcc/lib/librte_pmd_ixgbe.a(ixgbe_api.o)
                                                  /home/vadim/projects/ipaugenblick/dpdk-1.6.0r2/x86_64-default-linuxapp-gcc/lib/librte_pmd_ixgbe.a(ixgbe_ethdev.o)
ixgbe_reset_hw_82599                              /home/vadim/projects/ipaugenblick/dpdk-1.6.0r2/x86_64-default-linuxapp-gcc/lib/librte_pmd_ixgbe.a(ixgbe_82599.o)
ixgbe_reset_hw_X540                               /home/vadim/projects/ipaugenblick/dpdk-1.6.0r2/x86_64-default-linuxapp-gcc/lib/librte_pmd_ixgbe.a(ixgbe_x540.o)
ixgbe_reset_hw_vf                                 /home/vadim/projects/ipaugenblick/dpdk-1.6.0r2/x86_64-default-linuxapp-gcc/lib/librte_pmd_ixgbe.a(ixgbe_vf.o)
ixgbe_reset_phy                                   /home/vadim/projects/ipaugenblick/dpdk-1.6.0r2/x86_64-default-linuxapp-gcc/lib/librte_pmd_ixgbe.a(ixgbe_api.o)
ixgbe_reset_phy_generic                           /home/vadim/projects/ipaugenblick/dpdk-1.6.0r2/x86_64-default-linuxapp-gcc/lib/librte_pmd_ixgbe.a(ixgbe_phy.o)
ixgbe_reset_phy_nl                                /home/vadim/projects/ipaugenblick/dpdk-1.6.0r2/x86_64-default-linuxapp-gcc/lib/librte_pmd_ixgbe.a(ixgbe_phy.o)
                                                  /home/vadim/projects/ipaugenblick/dpdk-1.6.0r2/x86_64-default-linuxapp-gcc/lib/librte_pmd_ixgbe.a(ixgbe_82598.o)
ixgbe_reset_pipeline_82599                        /home/vadim/projects/ipaugenblick/dpdk-1.6.0r2/x86_64-default-linuxapp-gcc/lib/librte_pmd_ixgbe.a(ixgbe_82599.o)
                                                  /home/vadim/projects/ipaugenblick/dpdk-1.6.0r2/x86_64-default-linuxapp-gcc/lib/librte_pmd_ixgbe.a(ixgbe_rxtx.o)
                                                  /home/vadim/projects/ipaugenblick/dpdk-1.6.0r2/x86_64-default-linuxapp-gcc/lib/librte_pmd_ixgbe.a(ixgbe_common.o)
ixgbe_set_fw_drv_ver                              /home/vadim/projects/ipaugenblick/dpdk-1.6.0r2/x86_64-default-linuxapp-gcc/lib/librte_pmd_ixgbe.a(ixgbe_api.o)
ixgbe_set_fw_drv_ver_generic                      /home/vadim/projects/ipaugenblick/dpdk-1.6.0r2/x86_64-default-linuxapp-gcc/lib/librte_pmd_ixgbe.a(ixgbe_common.o)
                                                  /home/vadim/projects/ipaugenblick/dpdk-1.6.0r2/x86_64-default-linuxapp-gcc/lib/librte_pmd_ixgbe.a(ixgbe_x540.o)
                                                  /home/vadim/projects/ipaugenblick/dpdk-1.6.0r2/x86_64-default-linuxapp-gcc/lib/librte_pmd_ixgbe.a(ixgbe_82599.o)
ixgbe_set_lan_id_multi_port_pcie                  /home/vadim/projects/ipaugenblick/dpdk-1.6.0r2/x86_64-default-linuxapp-gcc/lib/librte_pmd_ixgbe.a(ixgbe_common.o)
                                                  /home/vadim/projects/ipaugenblick/dpdk-1.6.0r2/x86_64-default-linuxapp-gcc/lib/librte_pmd_ixgbe.a(ixgbe_82598.o)
ixgbe_set_lan_id_multi_port_pcie_82598            /home/vadim/projects/ipaugenblick/dpdk-1.6.0r2/x86_64-default-linuxapp-gcc/lib/librte_pmd_ixgbe.a(ixgbe_82598.o)
ixgbe_set_mac_anti_spoofing                       /home/vadim/projects/ipaugenblick/dpdk-1.6.0r2/x86_64-default-linuxapp-gcc/lib/librte_pmd_ixgbe.a(ixgbe_common.o)
                                                  /home/vadim/projects/ipaugenblick/dpdk-1.6.0r2/x86_64-default-linuxapp-gcc/lib/librte_pmd_ixgbe.a(ixgbe_x540.o)
                                                  /home/vadim/projects/ipaugenblick/dpdk-1.6.0r2/x86_64-default-linuxapp-gcc/lib/librte_pmd_ixgbe.a(ixgbe_82599.o)
ixgbe_set_mac_type                                /home/vadim/projects/ipaugenblick/dpdk-1.6.0r2/x86_64-default-linuxapp-gcc/lib/librte_pmd_ixgbe.a(ixgbe_api.o)
ixgbe_set_mta                                     /home/vadim/projects/ipaugenblick/dpdk-1.6.0r2/x86_64-default-linuxapp-gcc/lib/librte_pmd_ixgbe.a(ixgbe_common.o)
ixgbe_set_pcie_completion_timeout                 /home/vadim/projects/ipaugenblick/dpdk-1.6.0r2/x86_64-default-linuxapp-gcc/lib/librte_pmd_ixgbe.a(ixgbe_82598.o)
ixgbe_set_rar                                     /home/vadim/projects/ipaugenblick/dpdk-1.6.0r2/x86_64-default-linuxapp-gcc/lib/librte_pmd_ixgbe.a(ixgbe_api.o)
                                                  /home/vadim/projects/ipaugenblick/dpdk-1.6.0r2/x86_64-default-linuxapp-gcc/lib/librte_pmd_ixgbe.a(ixgbe_ethdev.o)
                                                  /home/vadim/projects/ipaugenblick/dpdk-1.6.0r2/x86_64-default-linuxapp-gcc/lib/librte_pmd_ixgbe.a(ixgbe_common.o)
ixgbe_set_rar_generic                             /home/vadim/projects/ipaugenblick/dpdk-1.6.0r2/x86_64-default-linuxapp-gcc/lib/librte_pmd_ixgbe.a(ixgbe_common.o)
ixgbe_set_rar_vf                                  /home/vadim/projects/ipaugenblick/dpdk-1.6.0r2/x86_64-default-linuxapp-gcc/lib/librte_pmd_ixgbe.a(ixgbe_vf.o)
ixgbe_set_rxpba_generic                           /home/vadim/projects/ipaugenblick/dpdk-1.6.0r2/x86_64-default-linuxapp-gcc/lib/librte_pmd_ixgbe.a(ixgbe_common.o)
                                                  /home/vadim/projects/ipaugenblick/dpdk-1.6.0r2/x86_64-default-linuxapp-gcc/lib/librte_pmd_ixgbe.a(ixgbe_x540.o)
                                                  /home/vadim/projects/ipaugenblick/dpdk-1.6.0r2/x86_64-default-linuxapp-gcc/lib/librte_pmd_ixgbe.a(ixgbe_82599.o)
ixgbe_set_san_mac_addr                            /home/vadim/projects/ipaugenblick/dpdk-1.6.0r2/x86_64-default-linuxapp-gcc/lib/librte_pmd_ixgbe.a(ixgbe_api.o)
ixgbe_set_san_mac_addr_generic                    /home/vadim/projects/ipaugenblick/dpdk-1.6.0r2/x86_64-default-linuxapp-gcc/lib/librte_pmd_ixgbe.a(ixgbe_common.o)
                                                  /home/vadim/projects/ipaugenblick/dpdk-1.6.0r2/x86_64-default-linuxapp-gcc/lib/librte_pmd_ixgbe.a(ixgbe_x540.o)
                                                  /home/vadim/projects/ipaugenblick/dpdk-1.6.0r2/x86_64-default-linuxapp-gcc/lib/librte_pmd_ixgbe.a(ixgbe_82599.o)
ixgbe_set_vfta                                    /home/vadim/projects/ipaugenblick/dpdk-1.6.0r2/x86_64-default-linuxapp-gcc/lib/librte_pmd_ixgbe.a(ixgbe_api.o)
                                                  /home/vadim/projects/ipaugenblick/dpdk-1.6.0r2/x86_64-default-linuxapp-gcc/lib/librte_pmd_ixgbe.a(ixgbe_ethdev.o)
ixgbe_set_vfta_82598                              /home/vadim/projects/ipaugenblick/dpdk-1.6.0r2/x86_64-default-linuxapp-gcc/lib/librte_pmd_ixgbe.a(ixgbe_82598.o)
ixgbe_set_vfta_generic                            /home/vadim/projects/ipaugenblick/dpdk-1.6.0r2/x86_64-default-linuxapp-gcc/lib/librte_pmd_ixgbe.a(ixgbe_common.o)
                                                  /home/vadim/projects/ipaugenblick/dpdk-1.6.0r2/x86_64-default-linuxapp-gcc/lib/librte_pmd_ixgbe.a(ixgbe_x540.o)
                                                  /home/vadim/projects/ipaugenblick/dpdk-1.6.0r2/x86_64-default-linuxapp-gcc/lib/librte_pmd_ixgbe.a(ixgbe_82599.o)
ixgbe_set_vfta_vf                                 /home/vadim/projects/ipaugenblick/dpdk-1.6.0r2/x86_64-default-linuxapp-gcc/lib/librte_pmd_ixgbe.a(ixgbe_vf.o)
ixgbe_set_vlan_anti_spoofing                      /home/vadim/projects/ipaugenblick/dpdk-1.6.0r2/x86_64-default-linuxapp-gcc/lib/librte_pmd_ixgbe.a(ixgbe_common.o)
                                                  /home/vadim/projects/ipaugenblick/dpdk-1.6.0r2/x86_64-default-linuxapp-gcc/lib/librte_pmd_ixgbe.a(ixgbe_x540.o)
                                                  /home/vadim/projects/ipaugenblick/dpdk-1.6.0r2/x86_64-default-linuxapp-gcc/lib/librte_pmd_ixgbe.a(ixgbe_82599.o)
ixgbe_set_vlvf                                    /home/vadim/projects/ipaugenblick/dpdk-1.6.0r2/x86_64-default-linuxapp-gcc/lib/librte_pmd_ixgbe.a(ixgbe_api.o)
ixgbe_set_vlvf_generic                            /home/vadim/projects/ipaugenblick/dpdk-1.6.0r2/x86_64-default-linuxapp-gcc/lib/librte_pmd_ixgbe.a(ixgbe_common.o)
                                                  /home/vadim/projects/ipaugenblick/dpdk-1.6.0r2/x86_64-default-linuxapp-gcc/lib/librte_pmd_ixgbe.a(ixgbe_x540.o)
                                                  /home/vadim/projects/ipaugenblick/dpdk-1.6.0r2/x86_64-default-linuxapp-gcc/lib/librte_pmd_ixgbe.a(ixgbe_82599.o)
ixgbe_set_vmdq                                    /home/vadim/projects/ipaugenblick/dpdk-1.6.0r2/x86_64-default-linuxapp-gcc/lib/librte_pmd_ixgbe.a(ixgbe_api.o)
                                                  /home/vadim/projects/ipaugenblick/dpdk-1.6.0r2/x86_64-default-linuxapp-gcc/lib/librte_pmd_ixgbe.a(ixgbe_common.o)
ixgbe_set_vmdq_82598                              /home/vadim/projects/ipaugenblick/dpdk-1.6.0r2/x86_64-default-linuxapp-gcc/lib/librte_pmd_ixgbe.a(ixgbe_82598.o)
ixgbe_set_vmdq_generic                            /home/vadim/projects/ipaugenblick/dpdk-1.6.0r2/x86_64-default-linuxapp-gcc/lib/librte_pmd_ixgbe.a(ixgbe_common.o)
                                                  /home/vadim/projects/ipaugenblick/dpdk-1.6.0r2/x86_64-default-linuxapp-gcc/lib/librte_pmd_ixgbe.a(ixgbe_x540.o)
                                                  /home/vadim/projects/ipaugenblick/dpdk-1.6.0r2/x86_64-default-linuxapp-gcc/lib/librte_pmd_ixgbe.a(ixgbe_82599.o)
ixgbe_set_vmdq_san_mac                            /home/vadim/projects/ipaugenblick/dpdk-1.6.0r2/x86_64-default-linuxapp-gcc/lib/librte_pmd_ixgbe.a(ixgbe_api.o)
ixgbe_set_vmdq_san_mac_generic                    /home/vadim/projects/ipaugenblick/dpdk-1.6.0r2/x86_64-default-linuxapp-gcc/lib/librte_pmd_ixgbe.a(ixgbe_common.o)
                                                  /home/vadim/projects/ipaugenblick/dpdk-1.6.0r2/x86_64-default-linuxapp-gcc/lib/librte_pmd_ixgbe.a(ixgbe_x540.o)
                                                  /home/vadim/projects/ipaugenblick/dpdk-1.6.0r2/x86_64-default-linuxapp-gcc/lib/librte_pmd_ixgbe.a(ixgbe_82599.o)
ixgbe_setup_link                                  /home/vadim/projects/ipaugenblick/dpdk-1.6.0r2/x86_64-default-linuxapp-gcc/lib/librte_pmd_ixgbe.a(ixgbe_api.o)
                                                  /home/vadim/projects/ipaugenblick/dpdk-1.6.0r2/x86_64-default-linuxapp-gcc/lib/librte_pmd_ixgbe.a(ixgbe_ethdev.o)
ixgbe_setup_mac_link_82599                        /home/vadim/projects/ipaugenblick/dpdk-1.6.0r2/x86_64-default-linuxapp-gcc/lib/librte_pmd_ixgbe.a(ixgbe_82599.o)
ixgbe_setup_mac_link_X540                         /home/vadim/projects/ipaugenblick/dpdk-1.6.0r2/x86_64-default-linuxapp-gcc/lib/librte_pmd_ixgbe.a(ixgbe_x540.o)
ixgbe_setup_mac_link_multispeed_fiber             /home/vadim/projects/ipaugenblick/dpdk-1.6.0r2/x86_64-default-linuxapp-gcc/lib/librte_pmd_ixgbe.a(ixgbe_82599.o)
ixgbe_setup_mac_link_smartspeed                   /home/vadim/projects/ipaugenblick/dpdk-1.6.0r2/x86_64-default-linuxapp-gcc/lib/librte_pmd_ixgbe.a(ixgbe_82599.o)
ixgbe_setup_mac_link_vf                           /home/vadim/projects/ipaugenblick/dpdk-1.6.0r2/x86_64-default-linuxapp-gcc/lib/librte_pmd_ixgbe.a(ixgbe_vf.o)
ixgbe_setup_phy_link                              /home/vadim/projects/ipaugenblick/dpdk-1.6.0r2/x86_64-default-linuxapp-gcc/lib/librte_pmd_ixgbe.a(ixgbe_api.o)
ixgbe_setup_phy_link_generic                      /home/vadim/projects/ipaugenblick/dpdk-1.6.0r2/x86_64-default-linuxapp-gcc/lib/librte_pmd_ixgbe.a(ixgbe_phy.o)
ixgbe_setup_phy_link_speed                        /home/vadim/projects/ipaugenblick/dpdk-1.6.0r2/x86_64-default-linuxapp-gcc/lib/librte_pmd_ixgbe.a(ixgbe_api.o)
ixgbe_setup_phy_link_speed_generic                /home/vadim/projects/ipaugenblick/dpdk-1.6.0r2/x86_64-default-linuxapp-gcc/lib/librte_pmd_ixgbe.a(ixgbe_phy.o)
ixgbe_setup_phy_link_tnx                          /home/vadim/projects/ipaugenblick/dpdk-1.6.0r2/x86_64-default-linuxapp-gcc/lib/librte_pmd_ixgbe.a(ixgbe_phy.o)
                                                  /home/vadim/projects/ipaugenblick/dpdk-1.6.0r2/x86_64-default-linuxapp-gcc/lib/librte_pmd_ixgbe.a(ixgbe_82599.o)
                                                  /home/vadim/projects/ipaugenblick/dpdk-1.6.0r2/x86_64-default-linuxapp-gcc/lib/librte_pmd_ixgbe.a(ixgbe_82598.o)
ixgbe_setup_sfp_modules_82599                     /home/vadim/projects/ipaugenblick/dpdk-1.6.0r2/x86_64-default-linuxapp-gcc/lib/librte_pmd_ixgbe.a(ixgbe_82599.o)
ixgbe_start_hw                                    /home/vadim/projects/ipaugenblick/dpdk-1.6.0r2/x86_64-default-linuxapp-gcc/lib/librte_pmd_ixgbe.a(ixgbe_api.o)
ixgbe_start_hw_82598                              /home/vadim/projects/ipaugenblick/dpdk-1.6.0r2/x86_64-default-linuxapp-gcc/lib/librte_pmd_ixgbe.a(ixgbe_82598.o)
ixgbe_start_hw_82599                              /home/vadim/projects/ipaugenblick/dpdk-1.6.0r2/x86_64-default-linuxapp-gcc/lib/librte_pmd_ixgbe.a(ixgbe_82599.o)
ixgbe_start_hw_X540                               /home/vadim/projects/ipaugenblick/dpdk-1.6.0r2/x86_64-default-linuxapp-gcc/lib/librte_pmd_ixgbe.a(ixgbe_x540.o)
ixgbe_start_hw_gen2                               /home/vadim/projects/ipaugenblick/dpdk-1.6.0r2/x86_64-default-linuxapp-gcc/lib/librte_pmd_ixgbe.a(ixgbe_common.o)
                                                  /home/vadim/projects/ipaugenblick/dpdk-1.6.0r2/x86_64-default-linuxapp-gcc/lib/librte_pmd_ixgbe.a(ixgbe_x540.o)
                                                  /home/vadim/projects/ipaugenblick/dpdk-1.6.0r2/x86_64-default-linuxapp-gcc/lib/librte_pmd_ixgbe.a(ixgbe_82599.o)
ixgbe_start_hw_generic                            /home/vadim/projects/ipaugenblick/dpdk-1.6.0r2/x86_64-default-linuxapp-gcc/lib/librte_pmd_ixgbe.a(ixgbe_common.o)
                                                  /home/vadim/projects/ipaugenblick/dpdk-1.6.0r2/x86_64-default-linuxapp-gcc/lib/librte_pmd_ixgbe.a(ixgbe_x540.o)
                                                  /home/vadim/projects/ipaugenblick/dpdk-1.6.0r2/x86_64-default-linuxapp-gcc/lib/librte_pmd_ixgbe.a(ixgbe_82599.o)
                                                  /home/vadim/projects/ipaugenblick/dpdk-1.6.0r2/x86_64-default-linuxapp-gcc/lib/librte_pmd_ixgbe.a(ixgbe_82598.o)
ixgbe_start_hw_vf                                 /home/vadim/projects/ipaugenblick/dpdk-1.6.0r2/x86_64-default-linuxapp-gcc/lib/librte_pmd_ixgbe.a(ixgbe_vf.o)
ixgbe_start_mac_link_82599                        /home/vadim/projects/ipaugenblick/dpdk-1.6.0r2/x86_64-default-linuxapp-gcc/lib/librte_pmd_ixgbe.a(ixgbe_82599.o)
ixgbe_stop_adapter                                /home/vadim/projects/ipaugenblick/dpdk-1.6.0r2/x86_64-default-linuxapp-gcc/lib/librte_pmd_ixgbe.a(ixgbe_api.o)
                                                  /home/vadim/projects/ipaugenblick/dpdk-1.6.0r2/x86_64-default-linuxapp-gcc/lib/librte_pmd_ixgbe.a(ixgbe_ethdev.o)
ixgbe_stop_adapter_generic                        /home/vadim/projects/ipaugenblick/dpdk-1.6.0r2/x86_64-default-linuxapp-gcc/lib/librte_pmd_ixgbe.a(ixgbe_common.o)
ixgbe_stop_adapter_vf                             /home/vadim/projects/ipaugenblick/dpdk-1.6.0r2/x86_64-default-linuxapp-gcc/lib/librte_pmd_ixgbe.a(ixgbe_vf.o)
ixgbe_tn_check_overtemp                           /home/vadim/projects/ipaugenblick/dpdk-1.6.0r2/x86_64-default-linuxapp-gcc/lib/librte_pmd_ixgbe.a(ixgbe_phy.o)
ixgbe_update_eeprom_checksum                      /home/vadim/projects/ipaugenblick/dpdk-1.6.0r2/x86_64-default-linuxapp-gcc/lib/librte_pmd_ixgbe.a(ixgbe_api.o)
ixgbe_update_eeprom_checksum_X540                 /home/vadim/projects/ipaugenblick/dpdk-1.6.0r2/x86_64-default-linuxapp-gcc/lib/librte_pmd_ixgbe.a(ixgbe_x540.o)
ixgbe_update_eeprom_checksum_generic              /home/vadim/projects/ipaugenblick/dpdk-1.6.0r2/x86_64-default-linuxapp-gcc/lib/librte_pmd_ixgbe.a(ixgbe_common.o)
ixgbe_update_mc_addr_list                         /home/vadim/projects/ipaugenblick/dpdk-1.6.0r2/x86_64-default-linuxapp-gcc/lib/librte_pmd_ixgbe.a(ixgbe_api.o)
ixgbe_update_mc_addr_list_generic                 /home/vadim/projects/ipaugenblick/dpdk-1.6.0r2/x86_64-default-linuxapp-gcc/lib/librte_pmd_ixgbe.a(ixgbe_common.o)
ixgbe_update_mc_addr_list_vf                      /home/vadim/projects/ipaugenblick/dpdk-1.6.0r2/x86_64-default-linuxapp-gcc/lib/librte_pmd_ixgbe.a(ixgbe_vf.o)
ixgbe_update_uc_addr_list                         /home/vadim/projects/ipaugenblick/dpdk-1.6.0r2/x86_64-default-linuxapp-gcc/lib/librte_pmd_ixgbe.a(ixgbe_api.o)
ixgbe_update_uc_addr_list_generic                 /home/vadim/projects/ipaugenblick/dpdk-1.6.0r2/x86_64-default-linuxapp-gcc/lib/librte_pmd_ixgbe.a(ixgbe_common.o)
ixgbe_validate_eeprom_checksum                    /home/vadim/projects/ipaugenblick/dpdk-1.6.0r2/x86_64-default-linuxapp-gcc/lib/librte_pmd_ixgbe.a(ixgbe_api.o)
                                                  /home/vadim/projects/ipaugenblick/dpdk-1.6.0r2/x86_64-default-linuxapp-gcc/lib/librte_pmd_ixgbe.a(ixgbe_ethdev.o)
ixgbe_validate_eeprom_checksum_X540               /home/vadim/projects/ipaugenblick/dpdk-1.6.0r2/x86_64-default-linuxapp-gcc/lib/librte_pmd_ixgbe.a(ixgbe_x540.o)
ixgbe_validate_eeprom_checksum_generic            /home/vadim/projects/ipaugenblick/dpdk-1.6.0r2/x86_64-default-linuxapp-gcc/lib/librte_pmd_ixgbe.a(ixgbe_common.o)
ixgbe_validate_mac_addr                           /home/vadim/projects/ipaugenblick/dpdk-1.6.0r2/x86_64-default-linuxapp-gcc/lib/librte_pmd_ixgbe.a(ixgbe_common.o)
                                                  /home/vadim/projects/ipaugenblick/dpdk-1.6.0r2/x86_64-default-linuxapp-gcc/lib/librte_pmd_ixgbe.a(ixgbe_x540.o)
                                                  /home/vadim/projects/ipaugenblick/dpdk-1.6.0r2/x86_64-default-linuxapp-gcc/lib/librte_pmd_ixgbe.a(ixgbe_82599.o)
ixgbe_validate_phy_addr                           /home/vadim/projects/ipaugenblick/dpdk-1.6.0r2/x86_64-default-linuxapp-gcc/lib/librte_pmd_ixgbe.a(ixgbe_phy.o)
ixgbe_verify_lesm_fw_enabled_82599                /home/vadim/projects/ipaugenblick/dpdk-1.6.0r2/x86_64-default-linuxapp-gcc/lib/librte_pmd_ixgbe.a(ixgbe_82599.o)
                                                  /home/vadim/projects/ipaugenblick/dpdk-1.6.0r2/x86_64-default-linuxapp-gcc/lib/librte_pmd_ixgbe.a(ixgbe_rxtx.o)
                                                  /home/vadim/projects/ipaugenblick/dpdk-1.6.0r2/x86_64-default-linuxapp-gcc/lib/librte_pmd_ixgbe.a(ixgbe_common.o)
ixgbe_vlan_hw_filter_disable                      /home/vadim/projects/ipaugenblick/dpdk-1.6.0r2/x86_64-default-linuxapp-gcc/lib/librte_pmd_ixgbe.a(ixgbe_ethdev.o)
ixgbe_vlan_hw_filter_enable                       /home/vadim/projects/ipaugenblick/dpdk-1.6.0r2/x86_64-default-linuxapp-gcc/lib/librte_pmd_ixgbe.a(ixgbe_ethdev.o)
ixgbe_vlan_hw_strip_disable_all                   /home/vadim/projects/ipaugenblick/dpdk-1.6.0r2/x86_64-default-linuxapp-gcc/lib/librte_pmd_ixgbe.a(ixgbe_ethdev.o)
                                                  /home/vadim/projects/ipaugenblick/dpdk-1.6.0r2/x86_64-default-linuxapp-gcc/lib/librte_pmd_ixgbe.a(ixgbe_pf.o)
ixgbe_vlan_hw_strip_enable_all                    /home/vadim/projects/ipaugenblick/dpdk-1.6.0r2/x86_64-default-linuxapp-gcc/lib/librte_pmd_ixgbe.a(ixgbe_ethdev.o)
                                                  /home/vadim/projects/ipaugenblick/dpdk-1.6.0r2/x86_64-default-linuxapp-gcc/lib/librte_pmd_ixgbe.a(ixgbe_pf.o)
ixgbe_write_analog_reg8                           /home/vadim/projects/ipaugenblick/dpdk-1.6.0r2/x86_64-default-linuxapp-gcc/lib/librte_pmd_ixgbe.a(ixgbe_api.o)
ixgbe_write_analog_reg8_82598                     /home/vadim/projects/ipaugenblick/dpdk-1.6.0r2/x86_64-default-linuxapp-gcc/lib/librte_pmd_ixgbe.a(ixgbe_82598.o)
ixgbe_write_analog_reg8_82599                     /home/vadim/projects/ipaugenblick/dpdk-1.6.0r2/x86_64-default-linuxapp-gcc/lib/librte_pmd_ixgbe.a(ixgbe_82599.o)
ixgbe_write_eeprom                                /home/vadim/projects/ipaugenblick/dpdk-1.6.0r2/x86_64-default-linuxapp-gcc/lib/librte_pmd_ixgbe.a(ixgbe_api.o)
ixgbe_write_eeprom_buffer                         /home/vadim/projects/ipaugenblick/dpdk-1.6.0r2/x86_64-default-linuxapp-gcc/lib/librte_pmd_ixgbe.a(ixgbe_api.o)
ixgbe_write_eeprom_buffer_bit_bang_generic        /home/vadim/projects/ipaugenblick/dpdk-1.6.0r2/x86_64-default-linuxapp-gcc/lib/librte_pmd_ixgbe.a(ixgbe_common.o)
ixgbe_write_eeprom_generic                        /home/vadim/projects/ipaugenblick/dpdk-1.6.0r2/x86_64-default-linuxapp-gcc/lib/librte_pmd_ixgbe.a(ixgbe_common.o)
ixgbe_write_eewr_X540                             /home/vadim/projects/ipaugenblick/dpdk-1.6.0r2/x86_64-default-linuxapp-gcc/lib/librte_pmd_ixgbe.a(ixgbe_x540.o)
ixgbe_write_eewr_buffer_X540                      /home/vadim/projects/ipaugenblick/dpdk-1.6.0r2/x86_64-default-linuxapp-gcc/lib/librte_pmd_ixgbe.a(ixgbe_x540.o)
ixgbe_write_eewr_buffer_generic                   /home/vadim/projects/ipaugenblick/dpdk-1.6.0r2/x86_64-default-linuxapp-gcc/lib/librte_pmd_ixgbe.a(ixgbe_common.o)
                                                  /home/vadim/projects/ipaugenblick/dpdk-1.6.0r2/x86_64-default-linuxapp-gcc/lib/librte_pmd_ixgbe.a(ixgbe_x540.o)
ixgbe_write_eewr_generic                          /home/vadim/projects/ipaugenblick/dpdk-1.6.0r2/x86_64-default-linuxapp-gcc/lib/librte_pmd_ixgbe.a(ixgbe_common.o)
                                                  /home/vadim/projects/ipaugenblick/dpdk-1.6.0r2/x86_64-default-linuxapp-gcc/lib/librte_pmd_ixgbe.a(ixgbe_x540.o)
ixgbe_write_i2c_byte                              /home/vadim/projects/ipaugenblick/dpdk-1.6.0r2/x86_64-default-linuxapp-gcc/lib/librte_pmd_ixgbe.a(ixgbe_api.o)
ixgbe_write_i2c_byte_generic                      /home/vadim/projects/ipaugenblick/dpdk-1.6.0r2/x86_64-default-linuxapp-gcc/lib/librte_pmd_ixgbe.a(ixgbe_phy.o)
ixgbe_write_i2c_eeprom                            /home/vadim/projects/ipaugenblick/dpdk-1.6.0r2/x86_64-default-linuxapp-gcc/lib/librte_pmd_ixgbe.a(ixgbe_api.o)
ixgbe_write_i2c_eeprom_generic                    /home/vadim/projects/ipaugenblick/dpdk-1.6.0r2/x86_64-default-linuxapp-gcc/lib/librte_pmd_ixgbe.a(ixgbe_phy.o)
ixgbe_write_mbx                                   /home/vadim/projects/ipaugenblick/dpdk-1.6.0r2/x86_64-default-linuxapp-gcc/lib/librte_pmd_ixgbe.a(ixgbe_mbx.o)
                                                  /home/vadim/projects/ipaugenblick/dpdk-1.6.0r2/x86_64-default-linuxapp-gcc/lib/librte_pmd_ixgbe.a(ixgbe_pf.o)
ixgbe_write_pba_raw                               /home/vadim/projects/ipaugenblick/dpdk-1.6.0r2/x86_64-default-linuxapp-gcc/lib/librte_pmd_ixgbe.a(ixgbe_common.o)
ixgbe_write_phy_reg                               /home/vadim/projects/ipaugenblick/dpdk-1.6.0r2/x86_64-default-linuxapp-gcc/lib/librte_pmd_ixgbe.a(ixgbe_api.o)
ixgbe_write_phy_reg_generic                       /home/vadim/projects/ipaugenblick/dpdk-1.6.0r2/x86_64-default-linuxapp-gcc/lib/librte_pmd_ixgbe.a(ixgbe_phy.o)
ixgbe_write_posted_mbx                            /home/vadim/projects/ipaugenblick/dpdk-1.6.0r2/x86_64-default-linuxapp-gcc/lib/librte_pmd_ixgbe.a(ixgbe_mbx.o)
ixgbe_xmit_pkts                                   /home/vadim/projects/ipaugenblick/dpdk-1.6.0r2/x86_64-default-linuxapp-gcc/lib/librte_pmd_ixgbe.a(ixgbe_rxtx.o)
                                                  /home/vadim/projects/ipaugenblick/dpdk-1.6.0r2/x86_64-default-linuxapp-gcc/lib/librte_pmd_ixgbe.a(ixgbe_ethdev.o)
ixgbe_xmit_pkts_simple                            /home/vadim/projects/ipaugenblick/dpdk-1.6.0r2/x86_64-default-linuxapp-gcc/lib/librte_pmd_ixgbe.a(ixgbe_rxtx.o)
ixgbevf_dev_rx_init                               /home/vadim/projects/ipaugenblick/dpdk-1.6.0r2/x86_64-default-linuxapp-gcc/lib/librte_pmd_ixgbe.a(ixgbe_rxtx.o)
                                                  /home/vadim/projects/ipaugenblick/dpdk-1.6.0r2/x86_64-default-linuxapp-gcc/lib/librte_pmd_ixgbe.a(ixgbe_ethdev.o)
ixgbevf_dev_rxtx_start                            /home/vadim/projects/ipaugenblick/dpdk-1.6.0r2/x86_64-default-linuxapp-gcc/lib/librte_pmd_ixgbe.a(ixgbe_rxtx.o)
                                                  /home/vadim/projects/ipaugenblick/dpdk-1.6.0r2/x86_64-default-linuxapp-gcc/lib/librte_pmd_ixgbe.a(ixgbe_ethdev.o)
ixgbevf_dev_tx_init                               /home/vadim/projects/ipaugenblick/dpdk-1.6.0r2/x86_64-default-linuxapp-gcc/lib/librte_pmd_ixgbe.a(ixgbe_rxtx.o)
                                                  /home/vadim/projects/ipaugenblick/dpdk-1.6.0r2/x86_64-default-linuxapp-gcc/lib/librte_pmd_ixgbe.a(ixgbe_ethdev.o)
ixgbevf_get_queues                                /home/vadim/projects/ipaugenblick/dpdk-1.6.0r2/x86_64-default-linuxapp-gcc/lib/librte_pmd_ixgbe.a(ixgbe_vf.o)
                                                  /home/vadim/projects/ipaugenblick/dpdk-1.6.0r2/x86_64-default-linuxapp-gcc/lib/librte_pmd_ixgbe.a(ixgbe_ethdev.o)
ixgbevf_negotiate_api_version                     /home/vadim/projects/ipaugenblick/dpdk-1.6.0r2/x86_64-default-linuxapp-gcc/lib/librte_pmd_ixgbe.a(ixgbe_vf.o)
                                                  /home/vadim/projects/ipaugenblick/dpdk-1.6.0r2/x86_64-default-linuxapp-gcc/lib/librte_pmd_ixgbe.a(ixgbe_ethdev.o)
ixgbevf_rlpml_set_vf                              /home/vadim/projects/ipaugenblick/dpdk-1.6.0r2/x86_64-default-linuxapp-gcc/lib/librte_pmd_ixgbe.a(ixgbe_vf.o)
ixgbevf_set_uc_addr_vf                            /home/vadim/projects/ipaugenblick/dpdk-1.6.0r2/x86_64-default-linuxapp-gcc/lib/librte_pmd_ixgbe.a(ixgbe_vf.o)
jrand48_r                                         /lib/x86_64-linux-gnu/libc.so.6
jrand48_r@@GLIBC_2.2.5                            /lib/x86_64-linux-gnu/libc.so.6
jrand48_r@GLIBC_2.2.5                             /lib/x86_64-linux-gnu/libc.so.6
kill                                              /lib/x86_64-linux-gnu/libc.so.6
kill@@GLIBC_2.2.5                                 /lib/x86_64-linux-gnu/libc.so.6
kill@GLIBC_2.2.5                                  /lib/x86_64-linux-gnu/libc.so.6
launch_args_parse                                 parameters.o
                                                  testpmd.o
lchown                                            /lib/x86_64-linux-gnu/libc.so.6
lchown@@GLIBC_2.2.5                               /lib/x86_64-linux-gnu/libc.so.6
lchown@GLIBC_2.2.5                                /lib/x86_64-linux-gnu/libc.so.6
lckpwdf                                           /lib/x86_64-linux-gnu/libc.so.6
lckpwdf@@GLIBC_2.2.5                              /lib/x86_64-linux-gnu/libc.so.6
lckpwdf@GLIBC_2.2.5                               /lib/x86_64-linux-gnu/libc.so.6
lcong48_r                                         /lib/x86_64-linux-gnu/libc.so.6
lcong48_r@@GLIBC_2.2.5                            /lib/x86_64-linux-gnu/libc.so.6
lcong48_r@GLIBC_2.2.5                             /lib/x86_64-linux-gnu/libc.so.6
lcore_config                                      /home/vadim/projects/ipaugenblick/dpdk-1.6.0r2/x86_64-default-linuxapp-gcc/lib/librte_eal.a(eal_common_launch.o)
                                                  /home/vadim/projects/ipaugenblick/dpdk-1.6.0r2/x86_64-default-linuxapp-gcc/lib/librte_eal.a(eal_lcore.o)
                                                  /home/vadim/projects/ipaugenblick/dpdk-1.6.0r2/x86_64-default-linuxapp-gcc/lib/librte_eal.a(eal_thread.o)
                                                  /home/vadim/projects/ipaugenblick/dpdk-1.6.0r2/x86_64-default-linuxapp-gcc/lib/librte_eal.a(eal.o)
                                                  /home/vadim/projects/ipaugenblick/dpdk-1.6.0r2/x86_64-default-linuxapp-gcc/lib/librte_malloc.a(rte_malloc.o)
                                                  /home/vadim/projects/ipaugenblick/dpdk-1.6.0r2/x86_64-default-linuxapp-gcc/lib/librte_pmd_ring.a(rte_eth_ring.o)
                                                  /home/vadim/projects/ipaugenblick/dpdk-1.6.0r2/x86_64-default-linuxapp-gcc/lib/libethdev.a(rte_ethdev.o)
                                                  /home/vadim/projects/ipaugenblick/dpdk-1.6.0r2/x86_64-default-linuxapp-gcc/lib/librte_pmd_vmxnet3_uio.a(vmxnet3_ethdev.o)
                                                  config.o
                                                  testpmd.o
ldexp                                             /lib/x86_64-linux-gnu/libc.so.6
ldexp@@GLIBC_2.2.5                                /lib/x86_64-linux-gnu/libc.so.6
ldexp@GLIBC_2.2.5                                 /lib/x86_64-linux-gnu/libc.so.6
ldexpf                                            /lib/x86_64-linux-gnu/libc.so.6
ldexpf@@GLIBC_2.2.5                               /lib/x86_64-linux-gnu/libc.so.6
ldexpf@GLIBC_2.2.5                                /lib/x86_64-linux-gnu/libc.so.6
ldexpl                                            /lib/x86_64-linux-gnu/libc.so.6
ldexpl@@GLIBC_2.2.5                               /lib/x86_64-linux-gnu/libc.so.6
ldexpl@GLIBC_2.2.5                                /lib/x86_64-linux-gnu/libc.so.6
link                                              /lib/x86_64-linux-gnu/libc.so.6
link@@GLIBC_2.2.5                                 /lib/x86_64-linux-gnu/libc.so.6
link@GLIBC_2.2.5                                  /lib/x86_64-linux-gnu/libc.so.6
                                                  /lib/x86_64-linux-gnu/libpthread.so.0
listen                                            /lib/x86_64-linux-gnu/libc.so.6
listen@@GLIBC_2.2.5                               /lib/x86_64-linux-gnu/libc.so.6
listen@GLIBC_2.2.5                                /lib/x86_64-linux-gnu/libc.so.6
llseek                                            /lib/x86_64-linux-gnu/libc.so.6
llseek@@GLIBC_2.2.5                               /lib/x86_64-linux-gnu/libc.so.6
llseek@GLIBC_2.2.5                                /lib/x86_64-linux-gnu/libc.so.6
localtime_r                                       /lib/x86_64-linux-gnu/libc.so.6
localtime_r@@GLIBC_2.2.5                          /lib/x86_64-linux-gnu/libc.so.6
localtime_r@GLIBC_2.2.5                           /lib/x86_64-linux-gnu/libc.so.6
lockf64                                           /lib/x86_64-linux-gnu/libc.so.6
lockf64@@GLIBC_2.2.5                              /lib/x86_64-linux-gnu/libc.so.6
lockf64@GLIBC_2.2.5                               /lib/x86_64-linux-gnu/libc.so.6
lrand48                                           /lib/x86_64-linux-gnu/libc.so.6
                                                  /home/vadim/projects/ipaugenblick/dpdk-1.6.0r2/x86_64-default-linuxapp-gcc/lib/librte_sched.a(rte_red.o)
                                                  /home/vadim/projects/ipaugenblick/dpdk-1.6.0r2/x86_64-default-linuxapp-gcc/lib/librte_timer.a(rte_timer.o)
                                                  /home/vadim/projects/ipaugenblick/dpdk-1.6.0r2/x86_64-default-linuxapp-gcc/lib/librte_pmd_virtio_uio.a(virtio_ethdev.o)
                                                  /home/vadim/projects/ipaugenblick/dpdk-1.6.0r2/x86_64-default-linuxapp-gcc/lib/librte_pmd_ixgbe.a(ixgbe_pf.o)
                                                  /home/vadim/projects/ipaugenblick/dpdk-1.6.0r2/x86_64-default-linuxapp-gcc/lib/librte_pmd_e1000.a(igb_pf.o)
lrand48@@GLIBC_2.2.5                              /lib/x86_64-linux-gnu/libc.so.6
lrand48@GLIBC_2.2.5                               /lib/x86_64-linux-gnu/libc.so.6
lseek                                             /lib/x86_64-linux-gnu/libpthread.so.0
lseek64                                           /lib/x86_64-linux-gnu/libpthread.so.0
                                                  /home/vadim/projects/ipaugenblick/dpdk-1.6.0r2/x86_64-default-linuxapp-gcc/lib/librte_eal.a(eal_memory.o)
lseek64@@GLIBC_2.2.5                              /lib/x86_64-linux-gnu/libpthread.so.0
                                                  /lib/x86_64-linux-gnu/libc.so.6
lseek64@GLIBC_2.2.5                               /lib/x86_64-linux-gnu/libpthread.so.0
lseek@@GLIBC_2.2.5                                /lib/x86_64-linux-gnu/libpthread.so.0
                                                  /lib/x86_64-linux-gnu/libc.so.6
lseek@GLIBC_2.2.5                                 /lib/x86_64-linux-gnu/libpthread.so.0
mac_fwd_engine                                    macfwd.o
                                                  testpmd.o
mac_retry_fwd_engine                              macfwd-retry.o
                                                  testpmd.o
main                                              testpmd.o
                                                  /usr/lib/gcc/x86_64-linux-gnu/4.6/../../../x86_64-linux-gnu/crt1.o
main_ctx                                          cmdline.o
makecontext                                       /lib/x86_64-linux-gnu/libc.so.6
makecontext@@GLIBC_2.2.5                          /lib/x86_64-linux-gnu/libc.so.6
makecontext@GLIBC_2.2.5                           /lib/x86_64-linux-gnu/libc.so.6
mallinfo                                          /lib/x86_64-linux-gnu/libc.so.6
mallinfo@@GLIBC_2.2.5                             /lib/x86_64-linux-gnu/libc.so.6
mallinfo@GLIBC_2.2.5                              /lib/x86_64-linux-gnu/libc.so.6
malloc                                            /lib/x86_64-linux-gnu/libc.so.6
                                                  /home/vadim/projects/ipaugenblick/dpdk-1.6.0r2/x86_64-default-linuxapp-gcc/lib/librte_cmdline.a(cmdline.o)
                                                  /home/vadim/projects/ipaugenblick/dpdk-1.6.0r2/x86_64-default-linuxapp-gcc/lib/librte_eal.a(eal_common_devargs.o)
                                                  /home/vadim/projects/ipaugenblick/dpdk-1.6.0r2/x86_64-default-linuxapp-gcc/lib/librte_eal.a(eal_pci.o)
                                                  /home/vadim/projects/ipaugenblick/dpdk-1.6.0r2/x86_64-default-linuxapp-gcc/lib/librte_eal.a(eal_memory.o)
                                                  /home/vadim/projects/ipaugenblick/dpdk-1.6.0r2/x86_64-default-linuxapp-gcc/lib/librte_eal.a(eal.o)
                                                  /home/vadim/projects/ipaugenblick/dpdk-1.6.0r2/x86_64-default-linuxapp-gcc/lib/librte_kvargs.a(rte_kvargs.o)
malloc@@GLIBC_2.2.5                               /lib/x86_64-linux-gnu/libc.so.6
                                                  /lib/x86_64-linux-gnu/ld-linux-x86-64.so.2
malloc@GLIBC_2.2.5                                /lib/x86_64-linux-gnu/libc.so.6
                                                  /lib/x86_64-linux-gnu/libpthread.so.0
                                                  /usr/lib/gcc/x86_64-linux-gnu/4.6/../../../x86_64-linux-gnu/librt.so
malloc_elem_alloc                                 /home/vadim/projects/ipaugenblick/dpdk-1.6.0r2/x86_64-default-linuxapp-gcc/lib/librte_malloc.a(malloc_elem.o)
                                                  /home/vadim/projects/ipaugenblick/dpdk-1.6.0r2/x86_64-default-linuxapp-gcc/lib/librte_malloc.a(malloc_heap.o)
malloc_elem_can_hold                              /home/vadim/projects/ipaugenblick/dpdk-1.6.0r2/x86_64-default-linuxapp-gcc/lib/librte_malloc.a(malloc_elem.o)
                                                  /home/vadim/projects/ipaugenblick/dpdk-1.6.0r2/x86_64-default-linuxapp-gcc/lib/librte_malloc.a(malloc_heap.o)
malloc_elem_free                                  /home/vadim/projects/ipaugenblick/dpdk-1.6.0r2/x86_64-default-linuxapp-gcc/lib/librte_malloc.a(malloc_elem.o)
                                                  /home/vadim/projects/ipaugenblick/dpdk-1.6.0r2/x86_64-default-linuxapp-gcc/lib/librte_malloc.a(rte_malloc.o)
malloc_elem_init                                  /home/vadim/projects/ipaugenblick/dpdk-1.6.0r2/x86_64-default-linuxapp-gcc/lib/librte_malloc.a(malloc_elem.o)
                                                  /home/vadim/projects/ipaugenblick/dpdk-1.6.0r2/x86_64-default-linuxapp-gcc/lib/librte_malloc.a(malloc_heap.o)
malloc_elem_mkend                                 /home/vadim/projects/ipaugenblick/dpdk-1.6.0r2/x86_64-default-linuxapp-gcc/lib/librte_malloc.a(malloc_elem.o)
                                                  /home/vadim/projects/ipaugenblick/dpdk-1.6.0r2/x86_64-default-linuxapp-gcc/lib/librte_malloc.a(malloc_heap.o)
malloc_elem_resize                                /home/vadim/projects/ipaugenblick/dpdk-1.6.0r2/x86_64-default-linuxapp-gcc/lib/librte_malloc.a(malloc_elem.o)
                                                  /home/vadim/projects/ipaugenblick/dpdk-1.6.0r2/x86_64-default-linuxapp-gcc/lib/librte_malloc.a(rte_malloc.o)
malloc_get_state                                  /lib/x86_64-linux-gnu/libc.so.6
malloc_get_state@@GLIBC_2.2.5                     /lib/x86_64-linux-gnu/libc.so.6
malloc_get_state@GLIBC_2.2.5                      /lib/x86_64-linux-gnu/libc.so.6
malloc_heap_alloc                                 /home/vadim/projects/ipaugenblick/dpdk-1.6.0r2/x86_64-default-linuxapp-gcc/lib/librte_malloc.a(malloc_heap.o)
                                                  /home/vadim/projects/ipaugenblick/dpdk-1.6.0r2/x86_64-default-linuxapp-gcc/lib/librte_malloc.a(rte_malloc.o)
malloc_heap_get_stats                             /home/vadim/projects/ipaugenblick/dpdk-1.6.0r2/x86_64-default-linuxapp-gcc/lib/librte_malloc.a(malloc_heap.o)
                                                  /home/vadim/projects/ipaugenblick/dpdk-1.6.0r2/x86_64-default-linuxapp-gcc/lib/librte_malloc.a(rte_malloc.o)
malloc_set_state                                  /lib/x86_64-linux-gnu/libc.so.6
malloc_set_state@@GLIBC_2.2.5                     /lib/x86_64-linux-gnu/libc.so.6
malloc_set_state@GLIBC_2.2.5                      /lib/x86_64-linux-gnu/libc.so.6
malloc_stats                                      /lib/x86_64-linux-gnu/libc.so.6
malloc_stats@@GLIBC_2.2.5                         /lib/x86_64-linux-gnu/libc.so.6
malloc_stats@GLIBC_2.2.5                          /lib/x86_64-linux-gnu/libc.so.6
malloc_trim                                       /lib/x86_64-linux-gnu/libc.so.6
malloc_trim@@GLIBC_2.2.5                          /lib/x86_64-linux-gnu/libc.so.6
malloc_trim@GLIBC_2.2.5                           /lib/x86_64-linux-gnu/libc.so.6
malloc_usable_size                                /lib/x86_64-linux-gnu/libc.so.6
malloc_usable_size@@GLIBC_2.2.5                   /lib/x86_64-linux-gnu/libc.so.6
malloc_usable_size@GLIBC_2.2.5                    /lib/x86_64-linux-gnu/libc.so.6
mallopt                                           /lib/x86_64-linux-gnu/libc.so.6
mallopt@@GLIBC_2.2.5                              /lib/x86_64-linux-gnu/libc.so.6
mallopt@GLIBC_2.2.5                               /lib/x86_64-linux-gnu/libc.so.6
mb_mempool_cache                                  testpmd.o
                                                  parameters.o
mbrlen                                            /lib/x86_64-linux-gnu/libc.so.6
mbrlen@@GLIBC_2.2.5                               /lib/x86_64-linux-gnu/libc.so.6
mbrlen@GLIBC_2.2.5                                /lib/x86_64-linux-gnu/libc.so.6
mbrtowc                                           /lib/x86_64-linux-gnu/libc.so.6
mbrtowc@@GLIBC_2.2.5                              /lib/x86_64-linux-gnu/libc.so.6
mbrtowc@GLIBC_2.2.5                               /lib/x86_64-linux-gnu/libc.so.6
mbsinit                                           /lib/x86_64-linux-gnu/libc.so.6
mbsinit@@GLIBC_2.2.5                              /lib/x86_64-linux-gnu/libc.so.6
mbsinit@GLIBC_2.2.5                               /lib/x86_64-linux-gnu/libc.so.6
mbsnrtowcs                                        /lib/x86_64-linux-gnu/libc.so.6
mbsnrtowcs@@GLIBC_2.2.5                           /lib/x86_64-linux-gnu/libc.so.6
mbsnrtowcs@GLIBC_2.2.5                            /lib/x86_64-linux-gnu/libc.so.6
mbsrtowcs                                         /lib/x86_64-linux-gnu/libc.so.6
mbsrtowcs@@GLIBC_2.2.5                            /lib/x86_64-linux-gnu/libc.so.6
mbsrtowcs@GLIBC_2.2.5                             /lib/x86_64-linux-gnu/libc.so.6
mbuf_data_size                                    testpmd.o
                                                  config.o
                                                  parameters.o
mcount                                            /lib/x86_64-linux-gnu/libc.so.6
mcount@@GLIBC_2.2.5                               /lib/x86_64-linux-gnu/libc.so.6
mcount@GLIBC_2.2.5                                /lib/x86_64-linux-gnu/libc.so.6
memalign                                          /lib/x86_64-linux-gnu/libc.so.6
memalign@@GLIBC_2.2.5                             /lib/x86_64-linux-gnu/libc.so.6
memalign@GLIBC_2.2.5                              /lib/x86_64-linux-gnu/libc.so.6
memccpy                                           /lib/x86_64-linux-gnu/libc.so.6
memccpy@@GLIBC_2.2.5                              /lib/x86_64-linux-gnu/libc.so.6
memccpy@GLIBC_2.2.5                               /lib/x86_64-linux-gnu/libc.so.6
memcmp                                            /lib/x86_64-linux-gnu/libc.so.6
                                                  /home/vadim/projects/ipaugenblick/dpdk-1.6.0r2/x86_64-default-linuxapp-gcc/lib/librte_cmdline.a(cmdline.o)
                                                  /home/vadim/projects/ipaugenblick/dpdk-1.6.0r2/x86_64-default-linuxapp-gcc/lib/librte_eal.a(eal_common_pci.o)
                                                  /home/vadim/projects/ipaugenblick/dpdk-1.6.0r2/x86_64-default-linuxapp-gcc/lib/librte_eal.a(eal_pci.o)
                                                  /home/vadim/projects/ipaugenblick/dpdk-1.6.0r2/x86_64-default-linuxapp-gcc/lib/libethdev.a(rte_ethdev.o)
                                                  /home/vadim/projects/ipaugenblick/dpdk-1.6.0r2/x86_64-default-linuxapp-gcc/lib/librte_lpm.a(rte_lpm6.o)
                                                  /home/vadim/projects/ipaugenblick/dpdk-1.6.0r2/x86_64-default-linuxapp-gcc/lib/librte_hash.a(rte_hash.o)
memcmp@@GLIBC_2.2.5                               /lib/x86_64-linux-gnu/libc.so.6
memcmp@GLIBC_2.2.5                                /lib/x86_64-linux-gnu/libc.so.6
memcpy                                            /lib/x86_64-linux-gnu/libc.so.6
                                                  /home/vadim/projects/ipaugenblick/dpdk-1.6.0r2/x86_64-default-linuxapp-gcc/lib/librte_cmdline.a(cmdline_rdline.o)
                                                  /home/vadim/projects/ipaugenblick/dpdk-1.6.0r2/x86_64-default-linuxapp-gcc/lib/librte_cmdline.a(cmdline_parse_string.o)
                                                  /home/vadim/projects/ipaugenblick/dpdk-1.6.0r2/x86_64-default-linuxapp-gcc/lib/librte_cmdline.a(cmdline_cirbuf.o)
                                                  /home/vadim/projects/ipaugenblick/dpdk-1.6.0r2/x86_64-default-linuxapp-gcc/lib/librte_eal.a(eal_common_log.o)
                                                  /home/vadim/projects/ipaugenblick/dpdk-1.6.0r2/x86_64-default-linuxapp-gcc/lib/librte_eal.a(eal.o)
                                                  /home/vadim/projects/ipaugenblick/dpdk-1.6.0r2/x86_64-default-linuxapp-gcc/lib/librte_mempool.a(rte_mempool.o)
                                                  /home/vadim/projects/ipaugenblick/dpdk-1.6.0r2/x86_64-default-linuxapp-gcc/lib/librte_pmd_ixgbe.a(ixgbe_common.o)
                                                  /home/vadim/projects/ipaugenblick/dpdk-1.6.0r2/x86_64-default-linuxapp-gcc/lib/librte_pmd_e1000.a(e1000_nvm.o)
memcpy@@GLIBC_2.14                                /lib/x86_64-linux-gnu/libc.so.6
memcpy@GLIBC_2.14                                 /lib/x86_64-linux-gnu/libc.so.6
                                                  /lib/x86_64-linux-gnu/libpthread.so.0
                                                  /usr/lib/gcc/x86_64-linux-gnu/4.6/../../../x86_64-linux-gnu/librt.so
mempcpy                                           /lib/x86_64-linux-gnu/libc.so.6
mempcpy@@GLIBC_2.2.5                              /lib/x86_64-linux-gnu/libc.so.6
mempcpy@GLIBC_2.2.5                               /lib/x86_64-linux-gnu/libc.so.6
                                                  /lib/x86_64-linux-gnu/libpthread.so.0
                                                  /usr/lib/gcc/x86_64-linux-gnu/4.6/../../../x86_64-linux-gnu/librt.so
mempool_anon_create                               mempool_anon.o
                                                  testpmd.o
memset                                            /lib/x86_64-linux-gnu/libc.so.6
                                                  /home/vadim/projects/ipaugenblick/dpdk-1.6.0r2/x86_64-default-linuxapp-gcc/lib/librte_cmdline.a(cmdline_rdline.o)
                                                  /home/vadim/projects/ipaugenblick/dpdk-1.6.0r2/x86_64-default-linuxapp-gcc/lib/librte_cmdline.a(cmdline.o)
                                                  /home/vadim/projects/ipaugenblick/dpdk-1.6.0r2/x86_64-default-linuxapp-gcc/lib/librte_eal.a(eal_common_memzone.o)
                                                  /home/vadim/projects/ipaugenblick/dpdk-1.6.0r2/x86_64-default-linuxapp-gcc/lib/librte_eal.a(eal_memory.o)
                                                  /home/vadim/projects/ipaugenblick/dpdk-1.6.0r2/x86_64-default-linuxapp-gcc/lib/librte_mempool.a(rte_mempool.o)
                                                  /home/vadim/projects/ipaugenblick/dpdk-1.6.0r2/x86_64-default-linuxapp-gcc/lib/librte_malloc.a(rte_malloc.o)
                                                  /home/vadim/projects/ipaugenblick/dpdk-1.6.0r2/x86_64-default-linuxapp-gcc/lib/libethdev.a(rte_ethdev.o)
                                                  /home/vadim/projects/ipaugenblick/dpdk-1.6.0r2/x86_64-default-linuxapp-gcc/lib/librte_mbuf.a(rte_mbuf.o)
                                                  /home/vadim/projects/ipaugenblick/dpdk-1.6.0r2/x86_64-default-linuxapp-gcc/lib/librte_sched.a(rte_sched.o)
                                                  /home/vadim/projects/ipaugenblick/dpdk-1.6.0r2/x86_64-default-linuxapp-gcc/lib/librte_lpm.a(rte_lpm6.o)
                                                  /home/vadim/projects/ipaugenblick/dpdk-1.6.0r2/x86_64-default-linuxapp-gcc/lib/librte_lpm.a(rte_lpm.o)
                                                  /home/vadim/projects/ipaugenblick/dpdk-1.6.0r2/x86_64-default-linuxapp-gcc/lib/librte_hash.a(rte_fbk_hash.o)
                                                  /home/vadim/projects/ipaugenblick/dpdk-1.6.0r2/x86_64-default-linuxapp-gcc/lib/librte_pmd_vmxnet3_uio.a(vmxnet3_ethdev.o)
                                                  /home/vadim/projects/ipaugenblick/dpdk-1.6.0r2/x86_64-default-linuxapp-gcc/lib/librte_pmd_vmxnet3_uio.a(vmxnet3_rxtx.o)
                                                  /home/vadim/projects/ipaugenblick/dpdk-1.6.0r2/x86_64-default-linuxapp-gcc/lib/librte_pmd_virtio_uio.a(virtio_ethdev.o)
                                                  /home/vadim/projects/ipaugenblick/dpdk-1.6.0r2/x86_64-default-linuxapp-gcc/lib/librte_pmd_virtio_uio.a(virtio_rxtx.o)
                                                  /home/vadim/projects/ipaugenblick/dpdk-1.6.0r2/x86_64-default-linuxapp-gcc/lib/librte_pmd_ixgbe.a(ixgbe_rxtx.o)
memset@@GLIBC_2.2.5                               /lib/x86_64-linux-gnu/libc.so.6
memset@GLIBC_2.2.5                                /lib/x86_64-linux-gnu/libc.so.6
                                                  /lib/x86_64-linux-gnu/libpthread.so.0
mkdir                                             /lib/x86_64-linux-gnu/libc.so.6
mkdir@@GLIBC_2.2.5                                /lib/x86_64-linux-gnu/libc.so.6
mkdir@GLIBC_2.2.5                                 /lib/x86_64-linux-gnu/libc.so.6
mkostemp64                                        /lib/x86_64-linux-gnu/libc.so.6
mkostemp64@@GLIBC_2.7                             /lib/x86_64-linux-gnu/libc.so.6
mkostemp64@GLIBC_2.7                              /lib/x86_64-linux-gnu/libc.so.6
mkstemp64                                         /lib/x86_64-linux-gnu/libc.so.6
mkstemp64@@GLIBC_2.2.5                            /lib/x86_64-linux-gnu/libc.so.6
mkstemp64@GLIBC_2.2.5                             /lib/x86_64-linux-gnu/libc.so.6
mlock                                             /lib/x86_64-linux-gnu/libc.so.6
                                                  /home/vadim/projects/ipaugenblick/dpdk-1.6.0r2/x86_64-default-linuxapp-gcc/lib/librte_eal.a(eal_memory.o)
mlock@@GLIBC_2.2.5                                /lib/x86_64-linux-gnu/libc.so.6
mlock@GLIBC_2.2.5                                 /lib/x86_64-linux-gnu/libc.so.6
mmap                                              /lib/x86_64-linux-gnu/libc.so.6
                                                  /home/vadim/projects/ipaugenblick/dpdk-1.6.0r2/x86_64-default-linuxapp-gcc/lib/librte_eal.a(eal_pci.o)
                                                  /home/vadim/projects/ipaugenblick/dpdk-1.6.0r2/x86_64-default-linuxapp-gcc/lib/librte_eal.a(eal.o)
                                                  mempool_anon.o
mmap64                                            /lib/x86_64-linux-gnu/libc.so.6
                                                  /home/vadim/projects/ipaugenblick/dpdk-1.6.0r2/x86_64-default-linuxapp-gcc/lib/librte_eal.a(eal_memory.o)
mmap64@@GLIBC_2.2.5                               /lib/x86_64-linux-gnu/libc.so.6
mmap64@GLIBC_2.2.5                                /lib/x86_64-linux-gnu/libc.so.6
mmap@@GLIBC_2.2.5                                 /lib/x86_64-linux-gnu/libc.so.6
mmap@GLIBC_2.2.5                                  /lib/x86_64-linux-gnu/libc.so.6
                                                  /lib/x86_64-linux-gnu/libpthread.so.0
modf                                              /lib/x86_64-linux-gnu/libc.so.6
modf@@GLIBC_2.2.5                                 /lib/x86_64-linux-gnu/libc.so.6
modf@GLIBC_2.2.5                                  /lib/x86_64-linux-gnu/libc.so.6
modff                                             /lib/x86_64-linux-gnu/libc.so.6
modff@@GLIBC_2.2.5                                /lib/x86_64-linux-gnu/libc.so.6
modff@GLIBC_2.2.5                                 /lib/x86_64-linux-gnu/libc.so.6
modfl                                             /lib/x86_64-linux-gnu/libc.so.6
modfl@@GLIBC_2.2.5                                /lib/x86_64-linux-gnu/libc.so.6
modfl@GLIBC_2.2.5                                 /lib/x86_64-linux-gnu/libc.so.6
modify_ldt                                        /lib/x86_64-linux-gnu/libc.so.6
modify_ldt@@GLIBC_2.2.5                           /lib/x86_64-linux-gnu/libc.so.6
modify_ldt@GLIBC_2.2.5                            /lib/x86_64-linux-gnu/libc.so.6
moncontrol                                        /lib/x86_64-linux-gnu/libc.so.6
moncontrol@@GLIBC_2.2.5                           /lib/x86_64-linux-gnu/libc.so.6
moncontrol@GLIBC_2.2.5                            /lib/x86_64-linux-gnu/libc.so.6
monstartup                                        /lib/x86_64-linux-gnu/libc.so.6
monstartup@@GLIBC_2.2.5                           /lib/x86_64-linux-gnu/libc.so.6
monstartup@GLIBC_2.2.5                            /lib/x86_64-linux-gnu/libc.so.6
mount                                             /lib/x86_64-linux-gnu/libc.so.6
mount@@GLIBC_2.2.5                                /lib/x86_64-linux-gnu/libc.so.6
mount@GLIBC_2.2.5                                 /lib/x86_64-linux-gnu/libc.so.6
mp_anon                                           testpmd.o
                                                  config.o
                                                  parameters.o
mprotect                                          /lib/x86_64-linux-gnu/libc.so.6
mprotect@@GLIBC_2.2.5                             /lib/x86_64-linux-gnu/libc.so.6
mprotect@GLIBC_2.2.5                              /lib/x86_64-linux-gnu/libc.so.6
                                                  /lib/x86_64-linux-gnu/libpthread.so.0
mq_setattr                                        /usr/lib/gcc/x86_64-linux-gnu/4.6/../../../x86_64-linux-gnu/librt.so
mq_setattr@@GLIBC_2.3.4                           /usr/lib/gcc/x86_64-linux-gnu/4.6/../../../x86_64-linux-gnu/librt.so
mq_setattr@GLIBC_2.3.4                            /usr/lib/gcc/x86_64-linux-gnu/4.6/../../../x86_64-linux-gnu/librt.so
mq_timedreceive                                   /usr/lib/gcc/x86_64-linux-gnu/4.6/../../../x86_64-linux-gnu/librt.so
mq_timedreceive@@GLIBC_2.3.4                      /usr/lib/gcc/x86_64-linux-gnu/4.6/../../../x86_64-linux-gnu/librt.so
mq_timedreceive@GLIBC_2.3.4                       /usr/lib/gcc/x86_64-linux-gnu/4.6/../../../x86_64-linux-gnu/librt.so
mq_timedsend                                      /usr/lib/gcc/x86_64-linux-gnu/4.6/../../../x86_64-linux-gnu/librt.so
mq_timedsend@@GLIBC_2.3.4                         /usr/lib/gcc/x86_64-linux-gnu/4.6/../../../x86_64-linux-gnu/librt.so
mq_timedsend@GLIBC_2.3.4                          /usr/lib/gcc/x86_64-linux-gnu/4.6/../../../x86_64-linux-gnu/librt.so
mremap                                            /lib/x86_64-linux-gnu/libc.so.6
mremap@@GLIBC_2.2.5                               /lib/x86_64-linux-gnu/libc.so.6
mremap@GLIBC_2.2.5                                /lib/x86_64-linux-gnu/libc.so.6
msgctl                                            /lib/x86_64-linux-gnu/libc.so.6
msgctl@@GLIBC_2.2.5                               /lib/x86_64-linux-gnu/libc.so.6
msgctl@GLIBC_2.2.5                                /lib/x86_64-linux-gnu/libc.so.6
msgget                                            /lib/x86_64-linux-gnu/libc.so.6
msgget@@GLIBC_2.2.5                               /lib/x86_64-linux-gnu/libc.so.6
msgget@GLIBC_2.2.5                                /lib/x86_64-linux-gnu/libc.so.6
msgrcv                                            /lib/x86_64-linux-gnu/libc.so.6
msgrcv@@GLIBC_2.2.5                               /lib/x86_64-linux-gnu/libc.so.6
msgrcv@GLIBC_2.2.5                                /lib/x86_64-linux-gnu/libc.so.6
msgsnd                                            /lib/x86_64-linux-gnu/libc.so.6
msgsnd@@GLIBC_2.2.5                               /lib/x86_64-linux-gnu/libc.so.6
msgsnd@GLIBC_2.2.5                                /lib/x86_64-linux-gnu/libc.so.6
msync                                             /lib/x86_64-linux-gnu/libpthread.so.0
msync@@GLIBC_2.2.5                                /lib/x86_64-linux-gnu/libpthread.so.0
                                                  /lib/x86_64-linux-gnu/libc.so.6
msync@GLIBC_2.2.5                                 /lib/x86_64-linux-gnu/libpthread.so.0
munmap                                            /lib/x86_64-linux-gnu/libc.so.6
                                                  /home/vadim/projects/ipaugenblick/dpdk-1.6.0r2/x86_64-default-linuxapp-gcc/lib/librte_eal.a(eal_memory.o)
                                                  mempool_anon.o
munmap@@GLIBC_2.2.5                               /lib/x86_64-linux-gnu/libc.so.6
munmap@GLIBC_2.2.5                                /lib/x86_64-linux-gnu/libc.so.6
                                                  /lib/x86_64-linux-gnu/libpthread.so.0
nanosleep                                         /lib/x86_64-linux-gnu/libpthread.so.0
                                                  /home/vadim/projects/ipaugenblick/dpdk-1.6.0r2/x86_64-default-linuxapp-gcc/lib/librte_eal.a(eal_timer.o)
nanosleep@@GLIBC_2.2.5                            /lib/x86_64-linux-gnu/libpthread.so.0
                                                  /lib/x86_64-linux-gnu/libc.so.6
nanosleep@GLIBC_2.2.5                             /lib/x86_64-linux-gnu/libpthread.so.0
nb_cfg_lcores                                     config.o
                                                  testpmd.o
nb_cfg_ports                                      config.o
                                                  testpmd.o
nb_fwd_lcores                                     config.o
                                                  parameters.o
                                                  testpmd.o
nb_fwd_ports                                      config.o
                                                  parameters.o
                                                  testpmd.o
nb_fwd_streams                                    testpmd.o
nb_lcores                                         parameters.o
                                                  testpmd.o
nb_peer_eth_addrs                                 testpmd.o
                                                  parameters.o
nb_pkt_per_burst                                  testpmd.o
                                                  csumonly.o
                                                  txonly.o
                                                  rxonly.o
                                                  macfwd-retry.o
                                                  macfwd.o
                                                  iofwd.o
                                                  config.o
                                                  cmdline.o
                                                  parameters.o
nb_ports                                          config.o
                                                  cmdline.o
                                                  parameters.o
                                                  testpmd.o
nb_rx_queue_stats_mappings                        testpmd.o
                                                  config.o
                                                  parameters.o
nb_rxd                                            testpmd.o
                                                  config.o
                                                  cmdline.o
                                                  parameters.o
nb_rxq                                            testpmd.o
                                                  config.o
                                                  cmdline.o
                                                  parameters.o
nb_tx_queue_stats_mappings                        testpmd.o
                                                  config.o
                                                  parameters.o
nb_txd                                            testpmd.o
                                                  config.o
                                                  cmdline.o
                                                  parameters.o
nb_txq                                            testpmd.o
                                                  config.o
                                                  cmdline.o
                                                  parameters.o
newlocale                                         /lib/x86_64-linux-gnu/libc.so.6
newlocale@@GLIBC_2.3                              /lib/x86_64-linux-gnu/libc.so.6
newlocale@GLIBC_2.3                               /lib/x86_64-linux-gnu/libc.so.6
ngettext                                          /lib/x86_64-linux-gnu/libc.so.6
ngettext@@GLIBC_2.2.5                             /lib/x86_64-linux-gnu/libc.so.6
ngettext@GLIBC_2.2.5                              /lib/x86_64-linux-gnu/libc.so.6
nic_stats_clear                                   config.o
                                                  cmdline.o
nic_stats_display                                 config.o
                                                  cmdline.o
nic_stats_mapping_display                         config.o
                                                  cmdline.o
nl_langinfo_l                                     /lib/x86_64-linux-gnu/libc.so.6
nl_langinfo_l@@GLIBC_2.3                          /lib/x86_64-linux-gnu/libc.so.6
nl_langinfo_l@GLIBC_2.3                           /lib/x86_64-linux-gnu/libc.so.6
no_flush_rx                                       testpmd.o
                                                  cmdline.o
                                                  parameters.o
nrand48_r                                         /lib/x86_64-linux-gnu/libc.so.6
nrand48_r@@GLIBC_2.2.5                            /lib/x86_64-linux-gnu/libc.so.6
nrand48_r@GLIBC_2.2.5                             /lib/x86_64-linux-gnu/libc.so.6
ntohl                                             /lib/x86_64-linux-gnu/libc.so.6
ntohl@@GLIBC_2.2.5                                /lib/x86_64-linux-gnu/libc.so.6
ntohl@GLIBC_2.2.5                                 /lib/x86_64-linux-gnu/libc.so.6
ntohs                                             /lib/x86_64-linux-gnu/libc.so.6
ntohs@@GLIBC_2.2.5                                /lib/x86_64-linux-gnu/libc.so.6
ntohs@GLIBC_2.2.5                                 /lib/x86_64-linux-gnu/libc.so.6
ntp_adjtime                                       /lib/x86_64-linux-gnu/libc.so.6
ntp_adjtime@@GLIBC_2.2.5                          /lib/x86_64-linux-gnu/libc.so.6
ntp_adjtime@GLIBC_2.2.5                           /lib/x86_64-linux-gnu/libc.so.6
numa_support                                      testpmd.o
                                                  config.o
                                                  parameters.o
obstack_printf                                    /lib/x86_64-linux-gnu/libc.so.6
obstack_printf@@GLIBC_2.2.5                       /lib/x86_64-linux-gnu/libc.so.6
obstack_printf@GLIBC_2.2.5                        /lib/x86_64-linux-gnu/libc.so.6
obstack_vprintf                                   /lib/x86_64-linux-gnu/libc.so.6
obstack_vprintf@@GLIBC_2.2.5                      /lib/x86_64-linux-gnu/libc.so.6
obstack_vprintf@GLIBC_2.2.5                       /lib/x86_64-linux-gnu/libc.so.6
on_exit                                           /lib/x86_64-linux-gnu/libc.so.6
on_exit@@GLIBC_2.2.5                              /lib/x86_64-linux-gnu/libc.so.6
on_exit@GLIBC_2.2.5                               /lib/x86_64-linux-gnu/libc.so.6
open                                              /lib/x86_64-linux-gnu/libpthread.so.0
                                                  /home/vadim/projects/ipaugenblick/dpdk-1.6.0r2/x86_64-default-linuxapp-gcc/lib/librte_cmdline.a(cmdline_socket.o)
                                                  /home/vadim/projects/ipaugenblick/dpdk-1.6.0r2/x86_64-default-linuxapp-gcc/lib/librte_eal.a(eal_pci.o)
                                                  /home/vadim/projects/ipaugenblick/dpdk-1.6.0r2/x86_64-default-linuxapp-gcc/lib/librte_eal.a(eal_hugepage_info.o)
                                                  /home/vadim/projects/ipaugenblick/dpdk-1.6.0r2/x86_64-default-linuxapp-gcc/lib/librte_eal.a(eal.o)
                                                  /home/vadim/projects/ipaugenblick/dpdk-1.6.0r2/x86_64-default-linuxapp-gcc/lib/librte_kni.a(rte_kni.o)
                                                  mempool_anon.o
open64                                            /lib/x86_64-linux-gnu/libpthread.so.0
                                                  /home/vadim/projects/ipaugenblick/dpdk-1.6.0r2/x86_64-default-linuxapp-gcc/lib/librte_eal.a(eal_memory.o)
open64@@GLIBC_2.2.5                               /lib/x86_64-linux-gnu/libpthread.so.0
                                                  /lib/x86_64-linux-gnu/libc.so.6
open64@GLIBC_2.2.5                                /lib/x86_64-linux-gnu/libpthread.so.0
open@@GLIBC_2.2.5                                 /lib/x86_64-linux-gnu/libpthread.so.0
                                                  /lib/x86_64-linux-gnu/libc.so.6
open@GLIBC_2.2.5                                  /lib/x86_64-linux-gnu/libpthread.so.0
                                                  /usr/lib/gcc/x86_64-linux-gnu/4.6/../../../x86_64-linux-gnu/librt.so
openat                                            /lib/x86_64-linux-gnu/libc.so.6
                                                  /home/vadim/projects/ipaugenblick/dpdk-1.6.0r2/x86_64-default-linuxapp-gcc/lib/librte_eal.a(eal_hugepage_info.o)
openat64                                          /lib/x86_64-linux-gnu/libc.so.6
openat64@@GLIBC_2.4                               /lib/x86_64-linux-gnu/libc.so.6
openat64@GLIBC_2.4                                /lib/x86_64-linux-gnu/libc.so.6
openat@@GLIBC_2.4                                 /lib/x86_64-linux-gnu/libc.so.6
openat@GLIBC_2.4                                  /lib/x86_64-linux-gnu/libc.so.6
opendir                                           /lib/x86_64-linux-gnu/libc.so.6
                                                  /home/vadim/projects/ipaugenblick/dpdk-1.6.0r2/x86_64-default-linuxapp-gcc/lib/librte_eal.a(eal_lcore.o)
                                                  /home/vadim/projects/ipaugenblick/dpdk-1.6.0r2/x86_64-default-linuxapp-gcc/lib/librte_eal.a(eal_pci.o)
                                                  /home/vadim/projects/ipaugenblick/dpdk-1.6.0r2/x86_64-default-linuxapp-gcc/lib/librte_eal.a(eal_hugepage_info.o)
opendir@@GLIBC_2.2.5                              /lib/x86_64-linux-gnu/libc.so.6
opendir@GLIBC_2.2.5                               /lib/x86_64-linux-gnu/libc.so.6
openlog                                           /lib/x86_64-linux-gnu/libc.so.6
                                                  /home/vadim/projects/ipaugenblick/dpdk-1.6.0r2/x86_64-default-linuxapp-gcc/lib/librte_eal.a(eal_log.o)
openlog@@GLIBC_2.2.5                              /lib/x86_64-linux-gnu/libc.so.6
openlog@GLIBC_2.2.5                               /lib/x86_64-linux-gnu/libc.so.6
optarg                                            /lib/x86_64-linux-gnu/libc.so.6
                                                  /home/vadim/projects/ipaugenblick/dpdk-1.6.0r2/x86_64-default-linuxapp-gcc/lib/librte_eal.a(eal.o)
                                                  parameters.o
optarg@@GLIBC_2.2.5                               /lib/x86_64-linux-gnu/libc.so.6
optarg@GLIBC_2.2.5                                /lib/x86_64-linux-gnu/libc.so.6
optind                                            /lib/x86_64-linux-gnu/libc.so.6
                                                  /home/vadim/projects/ipaugenblick/dpdk-1.6.0r2/x86_64-default-linuxapp-gcc/lib/librte_eal.a(eal.o)
optind@@GLIBC_2.2.5                               /lib/x86_64-linux-gnu/libc.so.6
optind@GLIBC_2.2.5                                /lib/x86_64-linux-gnu/libc.so.6
param_total_num_mbufs                             testpmd.o
                                                  parameters.o
pathconf                                          /lib/x86_64-linux-gnu/libc.so.6
pathconf@@GLIBC_2.2.5                             /lib/x86_64-linux-gnu/libc.so.6
pathconf@GLIBC_2.2.5                              /lib/x86_64-linux-gnu/libc.so.6
pause                                             /lib/x86_64-linux-gnu/libpthread.so.0
pause@@GLIBC_2.2.5                                /lib/x86_64-linux-gnu/libpthread.so.0
                                                  /lib/x86_64-linux-gnu/libc.so.6
pause@GLIBC_2.2.5                                 /lib/x86_64-linux-gnu/libpthread.so.0
pci_device_list                                   /home/vadim/projects/ipaugenblick/dpdk-1.6.0r2/x86_64-default-linuxapp-gcc/lib/librte_eal.a(eal_common_pci.o)
                                                  /home/vadim/projects/ipaugenblick/dpdk-1.6.0r2/x86_64-default-linuxapp-gcc/lib/librte_eal.a(eal_pci.o)
pci_driver_list                                   /home/vadim/projects/ipaugenblick/dpdk-1.6.0r2/x86_64-default-linuxapp-gcc/lib/librte_eal.a(eal_common_pci.o)
                                                  /home/vadim/projects/ipaugenblick/dpdk-1.6.0r2/x86_64-default-linuxapp-gcc/lib/librte_eal.a(eal_pci.o)
peer_eth_addrs                                    txonly.o
                                                  macfwd-retry.o
                                                  macfwd.o
                                                  config.o
                                                  parameters.o
                                                  testpmd.o
per_lcore__lcore_id                               /home/vadim/projects/ipaugenblick/dpdk-1.6.0r2/x86_64-default-linuxapp-gcc/lib/librte_eal.a(eal_thread.o)
                                                  /home/vadim/projects/ipaugenblick/dpdk-1.6.0r2/x86_64-default-linuxapp-gcc/lib/librte_eal.a(eal_common_log.o)
                                                  /home/vadim/projects/ipaugenblick/dpdk-1.6.0r2/x86_64-default-linuxapp-gcc/lib/librte_malloc.a(rte_malloc.o)
                                                  /home/vadim/projects/ipaugenblick/dpdk-1.6.0r2/x86_64-default-linuxapp-gcc/lib/librte_pmd_ring.a(rte_eth_ring.o)
                                                  /home/vadim/projects/ipaugenblick/dpdk-1.6.0r2/x86_64-default-linuxapp-gcc/lib/libethdev.a(rte_ethdev.o)
                                                  /home/vadim/projects/ipaugenblick/dpdk-1.6.0r2/x86_64-default-linuxapp-gcc/lib/librte_sched.a(rte_sched.o)
                                                  /home/vadim/projects/ipaugenblick/dpdk-1.6.0r2/x86_64-default-linuxapp-gcc/lib/librte_timer.a(rte_timer.o)
                                                  /home/vadim/projects/ipaugenblick/dpdk-1.6.0r2/x86_64-default-linuxapp-gcc/lib/librte_pmd_vmxnet3_uio.a(vmxnet3_ethdev.o)
                                                  /home/vadim/projects/ipaugenblick/dpdk-1.6.0r2/x86_64-default-linuxapp-gcc/lib/librte_pmd_vmxnet3_uio.a(vmxnet3_rxtx.o)
                                                  /home/vadim/projects/ipaugenblick/dpdk-1.6.0r2/x86_64-default-linuxapp-gcc/lib/librte_pmd_virtio_uio.a(virtio_ethdev.o)
                                                  /home/vadim/projects/ipaugenblick/dpdk-1.6.0r2/x86_64-default-linuxapp-gcc/lib/librte_pmd_virtio_uio.a(virtio_rxtx.o)
                                                  /home/vadim/projects/ipaugenblick/dpdk-1.6.0r2/x86_64-default-linuxapp-gcc/lib/librte_pmd_ixgbe.a(ixgbe_rxtx.o)
                                                  /home/vadim/projects/ipaugenblick/dpdk-1.6.0r2/x86_64-default-linuxapp-gcc/lib/librte_pmd_e1000.a(em_rxtx.o)
                                                  /home/vadim/projects/ipaugenblick/dpdk-1.6.0r2/x86_64-default-linuxapp-gcc/lib/librte_pmd_e1000.a(igb_rxtx.o)
                                                  /home/vadim/projects/ipaugenblick/dpdk-1.6.0r2/x86_64-default-linuxapp-gcc/lib/librte_kni.a(rte_kni.o)
                                                  csumonly.o
                                                  txonly.o
                                                  rxonly.o
                                                  macfwd-retry.o
                                                  macfwd.o
                                                  iofwd.o
                                                  testpmd.o
per_lcore__rte_errno                              /home/vadim/projects/ipaugenblick/dpdk-1.6.0r2/x86_64-default-linuxapp-gcc/lib/librte_eal.a(eal_common_errno.o)
                                                  /home/vadim/projects/ipaugenblick/dpdk-1.6.0r2/x86_64-default-linuxapp-gcc/lib/librte_eal.a(eal_common_memzone.o)
                                                  /home/vadim/projects/ipaugenblick/dpdk-1.6.0r2/x86_64-default-linuxapp-gcc/lib/librte_eal.a(eal_alarm.o)
                                                  /home/vadim/projects/ipaugenblick/dpdk-1.6.0r2/x86_64-default-linuxapp-gcc/lib/librte_ring.a(rte_ring.o)
                                                  /home/vadim/projects/ipaugenblick/dpdk-1.6.0r2/x86_64-default-linuxapp-gcc/lib/librte_mempool.a(rte_mempool.o)
                                                  /home/vadim/projects/ipaugenblick/dpdk-1.6.0r2/x86_64-default-linuxapp-gcc/lib/librte_lpm.a(rte_lpm6.o)
                                                  /home/vadim/projects/ipaugenblick/dpdk-1.6.0r2/x86_64-default-linuxapp-gcc/lib/librte_lpm.a(rte_lpm.o)
                                                  /home/vadim/projects/ipaugenblick/dpdk-1.6.0r2/x86_64-default-linuxapp-gcc/lib/librte_hash.a(rte_fbk_hash.o)
                                                  /home/vadim/projects/ipaugenblick/dpdk-1.6.0r2/x86_64-default-linuxapp-gcc/lib/librte_hash.a(rte_hash.o)
                                                  mempool_anon.o
perror                                            /lib/x86_64-linux-gnu/libc.so.6
                                                  parameters.o
perror@@GLIBC_2.2.5                               /lib/x86_64-linux-gnu/libc.so.6
perror@GLIBC_2.2.5                                /lib/x86_64-linux-gnu/libc.so.6
personality                                       /lib/x86_64-linux-gnu/libc.so.6
personality@@GLIBC_2.2.5                          /lib/x86_64-linux-gnu/libc.so.6
personality@GLIBC_2.2.5                           /lib/x86_64-linux-gnu/libc.so.6
pipe                                              /lib/x86_64-linux-gnu/libc.so.6
                                                  /home/vadim/projects/ipaugenblick/dpdk-1.6.0r2/x86_64-default-linuxapp-gcc/lib/librte_eal.a(eal_interrupts.o)
                                                  /home/vadim/projects/ipaugenblick/dpdk-1.6.0r2/x86_64-default-linuxapp-gcc/lib/librte_eal.a(eal.o)
pipe2                                             /lib/x86_64-linux-gnu/libc.so.6
pipe2@@GLIBC_2.9                                  /lib/x86_64-linux-gnu/libc.so.6
pipe2@GLIBC_2.9                                   /lib/x86_64-linux-gnu/libc.so.6
pipe@@GLIBC_2.2.5                                 /lib/x86_64-linux-gnu/libc.so.6
pipe@GLIBC_2.2.5                                  /lib/x86_64-linux-gnu/libc.so.6
pmd_test_exit                                     testpmd.o
                                                  cmdline.o
poll                                              /lib/x86_64-linux-gnu/libc.so.6
poll@@GLIBC_2.2.5                                 /lib/x86_64-linux-gnu/libc.so.6
poll@GLIBC_2.2.5                                  /lib/x86_64-linux-gnu/libc.so.6
port_infos_display                                config.o
                                                  cmdline.o
port_numa                                         csumonly.o
                                                  txonly.o
                                                  rxonly.o
                                                  macfwd-retry.o
                                                  macfwd.o
                                                  iofwd.o
                                                  config.o
                                                  cmdline.o
                                                  parameters.o
                                                  testpmd.o
port_reg_bit_display                              config.o
                                                  cmdline.o
port_reg_bit_field_display                        config.o
                                                  cmdline.o
port_reg_bit_field_set                            config.o
                                                  cmdline.o
port_reg_bit_set                                  config.o
                                                  cmdline.o
port_reg_display                                  config.o
                                                  cmdline.o
port_reg_set                                      config.o
                                                  cmdline.o
port_rss_reta_info                                config.o
                                                  cmdline.o
port_topology                                     testpmd.o
                                                  config.o
                                                  parameters.o
ports                                             csumonly.o
                                                  txonly.o
                                                  macfwd-retry.o
                                                  macfwd.o
                                                  config.o
                                                  cmdline.o
                                                  testpmd.o
posix_memalign                                    /lib/x86_64-linux-gnu/libc.so.6
posix_memalign@@GLIBC_2.2.5                       /lib/x86_64-linux-gnu/libc.so.6
posix_memalign@GLIBC_2.2.5                        /lib/x86_64-linux-gnu/libc.so.6
posix_openpt                                      /lib/x86_64-linux-gnu/libc.so.6
posix_openpt@@GLIBC_2.2.5                         /lib/x86_64-linux-gnu/libc.so.6
posix_openpt@GLIBC_2.2.5                          /lib/x86_64-linux-gnu/libc.so.6
prctl                                             /lib/x86_64-linux-gnu/libc.so.6
prctl@@GLIBC_2.2.5                                /lib/x86_64-linux-gnu/libc.so.6
prctl@GLIBC_2.2.5                                 /lib/x86_64-linux-gnu/libc.so.6
                                                  /lib/x86_64-linux-gnu/libpthread.so.0
pread                                             /lib/x86_64-linux-gnu/libpthread.so.0
                                                  mempool_anon.o
pread64                                           /lib/x86_64-linux-gnu/libpthread.so.0
pread64@@GLIBC_2.2.5                              /lib/x86_64-linux-gnu/libpthread.so.0
                                                  /lib/x86_64-linux-gnu/libc.so.6
pread64@GLIBC_2.2.5                               /lib/x86_64-linux-gnu/libpthread.so.0
pread@@GLIBC_2.2.5                                /lib/x86_64-linux-gnu/libpthread.so.0
                                                  /lib/x86_64-linux-gnu/libc.so.6
pread@GLIBC_2.2.5                                 /lib/x86_64-linux-gnu/libpthread.so.0
                                                  /usr/lib/gcc/x86_64-linux-gnu/4.6/../../../x86_64-linux-gnu/librt.so
prlimit64                                         /lib/x86_64-linux-gnu/libc.so.6
prlimit64@@GLIBC_2.13                             /lib/x86_64-linux-gnu/libc.so.6
prlimit64@GLIBC_2.13                              /lib/x86_64-linux-gnu/libc.so.6
profil                                            /lib/x86_64-linux-gnu/libc.so.6
profil@@GLIBC_2.2.5                               /lib/x86_64-linux-gnu/libc.so.6
profil@GLIBC_2.2.5                                /lib/x86_64-linux-gnu/libc.so.6
program_invocation_name                           /lib/x86_64-linux-gnu/libc.so.6
program_invocation_name@@GLIBC_2.2.5              /lib/x86_64-linux-gnu/libc.so.6
program_invocation_name@GLIBC_2.2.5               /lib/x86_64-linux-gnu/libc.so.6
program_invocation_short_name                     /lib/x86_64-linux-gnu/libc.so.6
program_invocation_short_name@@GLIBC_2.2.5        /lib/x86_64-linux-gnu/libc.so.6
program_invocation_short_name@GLIBC_2.2.5         /lib/x86_64-linux-gnu/libc.so.6
prompt                                            cmdline.o
                                                  testpmd.o
pselect                                           /lib/x86_64-linux-gnu/libc.so.6
pselect@@GLIBC_2.2.5                              /lib/x86_64-linux-gnu/libc.so.6
pselect@GLIBC_2.2.5                               /lib/x86_64-linux-gnu/libc.so.6
pthread_create                                    /lib/x86_64-linux-gnu/libpthread.so.0
                                                  /home/vadim/projects/ipaugenblick/dpdk-1.6.0r2/x86_64-default-linuxapp-gcc/lib/librte_eal.a(eal_interrupts.o)
                                                  /home/vadim/projects/ipaugenblick/dpdk-1.6.0r2/x86_64-default-linuxapp-gcc/lib/librte_eal.a(eal.o)
pthread_create@@GLIBC_2.2.5                       /lib/x86_64-linux-gnu/libpthread.so.0
pthread_create@GLIBC_2.2.5                        /lib/x86_64-linux-gnu/libpthread.so.0
                                                  /usr/lib/gcc/x86_64-linux-gnu/4.6/../../../x86_64-linux-gnu/librt.so
pthread_mutex_consistent_np                       /lib/x86_64-linux-gnu/libpthread.so.0
pthread_mutex_consistent_np@@GLIBC_2.4            /lib/x86_64-linux-gnu/libpthread.so.0
pthread_mutex_consistent_np@GLIBC_2.4             /lib/x86_64-linux-gnu/libpthread.so.0
pthread_mutexattr_getkind_np                      /lib/x86_64-linux-gnu/libpthread.so.0
pthread_mutexattr_getkind_np@@GLIBC_2.2.5         /lib/x86_64-linux-gnu/libpthread.so.0
pthread_mutexattr_getkind_np@GLIBC_2.2.5          /lib/x86_64-linux-gnu/libpthread.so.0
pthread_mutexattr_getrobust_np                    /lib/x86_64-linux-gnu/libpthread.so.0
pthread_mutexattr_getrobust_np@@GLIBC_2.4         /lib/x86_64-linux-gnu/libpthread.so.0
pthread_mutexattr_getrobust_np@GLIBC_2.4          /lib/x86_64-linux-gnu/libpthread.so.0
pthread_mutexattr_setkind_np                      /lib/x86_64-linux-gnu/libpthread.so.0
pthread_mutexattr_setkind_np@@GLIBC_2.2.5         /lib/x86_64-linux-gnu/libpthread.so.0
pthread_mutexattr_setkind_np@GLIBC_2.2.5          /lib/x86_64-linux-gnu/libpthread.so.0
pthread_mutexattr_setrobust_np                    /lib/x86_64-linux-gnu/libpthread.so.0
pthread_mutexattr_setrobust_np@@GLIBC_2.4         /lib/x86_64-linux-gnu/libpthread.so.0
pthread_mutexattr_setrobust_np@GLIBC_2.4          /lib/x86_64-linux-gnu/libpthread.so.0
pthread_self                                      /lib/x86_64-linux-gnu/libpthread.so.0
                                                  /home/vadim/projects/ipaugenblick/dpdk-1.6.0r2/x86_64-default-linuxapp-gcc/lib/librte_eal.a(eal_thread.o)
                                                  /home/vadim/projects/ipaugenblick/dpdk-1.6.0r2/x86_64-default-linuxapp-gcc/lib/librte_eal.a(eal.o)
pthread_self@@GLIBC_2.2.5                         /lib/x86_64-linux-gnu/libpthread.so.0
                                                  /lib/x86_64-linux-gnu/libc.so.6
pthread_self@GLIBC_2.2.5                          /lib/x86_64-linux-gnu/libpthread.so.0
                                                  /usr/lib/gcc/x86_64-linux-gnu/4.6/../../../x86_64-linux-gnu/librt.so
pthread_setaffinity_np                            /lib/x86_64-linux-gnu/libpthread.so.0
                                                  /home/vadim/projects/ipaugenblick/dpdk-1.6.0r2/x86_64-default-linuxapp-gcc/lib/librte_eal.a(eal_thread.o)
pthread_setaffinity_np@@GLIBC_2.3.4               /lib/x86_64-linux-gnu/libpthread.so.0
pthread_setaffinity_np@GLIBC_2.3.4                /lib/x86_64-linux-gnu/libpthread.so.0
ptsname_r                                         /lib/x86_64-linux-gnu/libc.so.6
ptsname_r@@GLIBC_2.2.5                            /lib/x86_64-linux-gnu/libc.so.6
ptsname_r@GLIBC_2.2.5                             /lib/x86_64-linux-gnu/libc.so.6
putc                                              /lib/x86_64-linux-gnu/libc.so.6
putc@@GLIBC_2.2.5                                 /lib/x86_64-linux-gnu/libc.so.6
putc@GLIBC_2.2.5                                  /lib/x86_64-linux-gnu/libc.so.6
putchar                                           /lib/x86_64-linux-gnu/libc.so.6
                                                  /home/vadim/projects/ipaugenblick/dpdk-1.6.0r2/x86_64-default-linuxapp-gcc/lib/librte_eal.a(eal_common_hexdump.o)
                                                  rxonly.o
                                                  config.o
                                                  testpmd.o
putchar@@GLIBC_2.2.5                              /lib/x86_64-linux-gnu/libc.so.6
putchar@GLIBC_2.2.5                               /lib/x86_64-linux-gnu/libc.so.6
puts                                              /lib/x86_64-linux-gnu/libc.so.6
                                                  /home/vadim/projects/ipaugenblick/dpdk-1.6.0r2/x86_64-default-linuxapp-gcc/lib/librte_eal.a(eal_common_devargs.o)
                                                  /home/vadim/projects/ipaugenblick/dpdk-1.6.0r2/x86_64-default-linuxapp-gcc/lib/librte_eal.a(eal_common_hexdump.o)
                                                  /home/vadim/projects/ipaugenblick/dpdk-1.6.0r2/x86_64-default-linuxapp-gcc/lib/librte_eal.a(eal_log.o)
                                                  /home/vadim/projects/ipaugenblick/dpdk-1.6.0r2/x86_64-default-linuxapp-gcc/lib/librte_eal.a(eal.o)
                                                  /home/vadim/projects/ipaugenblick/dpdk-1.6.0r2/x86_64-default-linuxapp-gcc/lib/librte_ring.a(rte_ring.o)
                                                  /home/vadim/projects/ipaugenblick/dpdk-1.6.0r2/x86_64-default-linuxapp-gcc/lib/librte_mempool.a(rte_mempool.o)
                                                  /home/vadim/projects/ipaugenblick/dpdk-1.6.0r2/x86_64-default-linuxapp-gcc/lib/librte_timer.a(rte_timer.o)
                                                  csumonly.o
                                                  config.o
                                                  cmdline.o
                                                  parameters.o
                                                  testpmd.o
puts@@GLIBC_2.2.5                                 /lib/x86_64-linux-gnu/libc.so.6
puts@GLIBC_2.2.5                                  /lib/x86_64-linux-gnu/libc.so.6
pututline                                         /lib/x86_64-linux-gnu/libc.so.6
pututline@@GLIBC_2.2.5                            /lib/x86_64-linux-gnu/libc.so.6
pututline@GLIBC_2.2.5                             /lib/x86_64-linux-gnu/libc.so.6
pvalloc                                           /lib/x86_64-linux-gnu/libc.so.6
pvalloc@@GLIBC_2.2.5                              /lib/x86_64-linux-gnu/libc.so.6
pvalloc@GLIBC_2.2.5                               /lib/x86_64-linux-gnu/libc.so.6
pwrite                                            /lib/x86_64-linux-gnu/libpthread.so.0
pwrite64                                          /lib/x86_64-linux-gnu/libpthread.so.0
pwrite64@@GLIBC_2.2.5                             /lib/x86_64-linux-gnu/libpthread.so.0
                                                  /lib/x86_64-linux-gnu/libc.so.6
pwrite64@GLIBC_2.2.5                              /lib/x86_64-linux-gnu/libpthread.so.0
pwrite@@GLIBC_2.2.5                               /lib/x86_64-linux-gnu/libpthread.so.0
                                                  /lib/x86_64-linux-gnu/libc.so.6
pwrite@GLIBC_2.2.5                                /lib/x86_64-linux-gnu/libpthread.so.0
random                                            /lib/x86_64-linux-gnu/libc.so.6
random@@GLIBC_2.2.5                               /lib/x86_64-linux-gnu/libc.so.6
random@GLIBC_2.2.5                                /lib/x86_64-linux-gnu/libc.so.6
random_r                                          /lib/x86_64-linux-gnu/libc.so.6
random_r@@GLIBC_2.2.5                             /lib/x86_64-linux-gnu/libc.so.6
random_r@GLIBC_2.2.5                              /lib/x86_64-linux-gnu/libc.so.6
rdline_add_history                                /home/vadim/projects/ipaugenblick/dpdk-1.6.0r2/x86_64-default-linuxapp-gcc/lib/librte_cmdline.a(cmdline_rdline.o)
                                                  /home/vadim/projects/ipaugenblick/dpdk-1.6.0r2/x86_64-default-linuxapp-gcc/lib/librte_cmdline.a(cmdline.o)
rdline_char_in                                    /home/vadim/projects/ipaugenblick/dpdk-1.6.0r2/x86_64-default-linuxapp-gcc/lib/librte_cmdline.a(cmdline_rdline.o)
                                                  /home/vadim/projects/ipaugenblick/dpdk-1.6.0r2/x86_64-default-linuxapp-gcc/lib/librte_cmdline.a(cmdline.o)
rdline_clear_history                              /home/vadim/projects/ipaugenblick/dpdk-1.6.0r2/x86_64-default-linuxapp-gcc/lib/librte_cmdline.a(cmdline_rdline.o)
rdline_get_buffer                                 /home/vadim/projects/ipaugenblick/dpdk-1.6.0r2/x86_64-default-linuxapp-gcc/lib/librte_cmdline.a(cmdline_rdline.o)
                                                  /home/vadim/projects/ipaugenblick/dpdk-1.6.0r2/x86_64-default-linuxapp-gcc/lib/librte_cmdline.a(cmdline.o)
rdline_get_history_item                           /home/vadim/projects/ipaugenblick/dpdk-1.6.0r2/x86_64-default-linuxapp-gcc/lib/librte_cmdline.a(cmdline_rdline.o)
                                                  /home/vadim/projects/ipaugenblick/dpdk-1.6.0r2/x86_64-default-linuxapp-gcc/lib/librte_cmdline.a(cmdline.o)
rdline_init                                       /home/vadim/projects/ipaugenblick/dpdk-1.6.0r2/x86_64-default-linuxapp-gcc/lib/librte_cmdline.a(cmdline_rdline.o)
                                                  /home/vadim/projects/ipaugenblick/dpdk-1.6.0r2/x86_64-default-linuxapp-gcc/lib/librte_cmdline.a(cmdline.o)
rdline_newline                                    /home/vadim/projects/ipaugenblick/dpdk-1.6.0r2/x86_64-default-linuxapp-gcc/lib/librte_cmdline.a(cmdline_rdline.o)
                                                  /home/vadim/projects/ipaugenblick/dpdk-1.6.0r2/x86_64-default-linuxapp-gcc/lib/librte_cmdline.a(cmdline.o)
rdline_quit                                       /home/vadim/projects/ipaugenblick/dpdk-1.6.0r2/x86_64-default-linuxapp-gcc/lib/librte_cmdline.a(cmdline_rdline.o)
                                                  /home/vadim/projects/ipaugenblick/dpdk-1.6.0r2/x86_64-default-linuxapp-gcc/lib/librte_cmdline.a(cmdline.o)
rdline_redisplay                                  /home/vadim/projects/ipaugenblick/dpdk-1.6.0r2/x86_64-default-linuxapp-gcc/lib/librte_cmdline.a(cmdline_rdline.o)
rdline_reset                                      /home/vadim/projects/ipaugenblick/dpdk-1.6.0r2/x86_64-default-linuxapp-gcc/lib/librte_cmdline.a(cmdline_rdline.o)
rdline_restart                                    /home/vadim/projects/ipaugenblick/dpdk-1.6.0r2/x86_64-default-linuxapp-gcc/lib/librte_cmdline.a(cmdline_rdline.o)
rdline_stop                                       /home/vadim/projects/ipaugenblick/dpdk-1.6.0r2/x86_64-default-linuxapp-gcc/lib/librte_cmdline.a(cmdline_rdline.o)
re_comp                                           /lib/x86_64-linux-gnu/libc.so.6
re_comp@@GLIBC_2.2.5                              /lib/x86_64-linux-gnu/libc.so.6
re_comp@GLIBC_2.2.5                               /lib/x86_64-linux-gnu/libc.so.6
re_compile_fastmap                                /lib/x86_64-linux-gnu/libc.so.6
re_compile_fastmap@@GLIBC_2.2.5                   /lib/x86_64-linux-gnu/libc.so.6
re_compile_fastmap@GLIBC_2.2.5                    /lib/x86_64-linux-gnu/libc.so.6
re_compile_pattern                                /lib/x86_64-linux-gnu/libc.so.6
re_compile_pattern@@GLIBC_2.2.5                   /lib/x86_64-linux-gnu/libc.so.6
re_compile_pattern@GLIBC_2.2.5                    /lib/x86_64-linux-gnu/libc.so.6
re_exec                                           /lib/x86_64-linux-gnu/libc.so.6
re_exec@@GLIBC_2.2.5                              /lib/x86_64-linux-gnu/libc.so.6
re_exec@GLIBC_2.2.5                               /lib/x86_64-linux-gnu/libc.so.6
re_match                                          /lib/x86_64-linux-gnu/libc.so.6
re_match@@GLIBC_2.2.5                             /lib/x86_64-linux-gnu/libc.so.6
re_match@GLIBC_2.2.5                              /lib/x86_64-linux-gnu/libc.so.6
re_match_2                                        /lib/x86_64-linux-gnu/libc.so.6
re_match_2@@GLIBC_2.2.5                           /lib/x86_64-linux-gnu/libc.so.6
re_match_2@GLIBC_2.2.5                            /lib/x86_64-linux-gnu/libc.so.6
re_search                                         /lib/x86_64-linux-gnu/libc.so.6
re_search@@GLIBC_2.2.5                            /lib/x86_64-linux-gnu/libc.so.6
re_search@GLIBC_2.2.5                             /lib/x86_64-linux-gnu/libc.so.6
re_search_2                                       /lib/x86_64-linux-gnu/libc.so.6
re_search_2@@GLIBC_2.2.5                          /lib/x86_64-linux-gnu/libc.so.6
re_search_2@GLIBC_2.2.5                           /lib/x86_64-linux-gnu/libc.so.6
re_set_registers                                  /lib/x86_64-linux-gnu/libc.so.6
re_set_registers@@GLIBC_2.2.5                     /lib/x86_64-linux-gnu/libc.so.6
re_set_registers@GLIBC_2.2.5                      /lib/x86_64-linux-gnu/libc.so.6
re_set_syntax                                     /lib/x86_64-linux-gnu/libc.so.6
re_set_syntax@@GLIBC_2.2.5                        /lib/x86_64-linux-gnu/libc.so.6
re_set_syntax@GLIBC_2.2.5                         /lib/x86_64-linux-gnu/libc.so.6
read                                              /lib/x86_64-linux-gnu/libpthread.so.0
                                                  /home/vadim/projects/ipaugenblick/dpdk-1.6.0r2/x86_64-default-linuxapp-gcc/lib/librte_cmdline.a(cmdline.o)
                                                  /home/vadim/projects/ipaugenblick/dpdk-1.6.0r2/x86_64-default-linuxapp-gcc/lib/librte_eal.a(eal_interrupts.o)
                                                  /home/vadim/projects/ipaugenblick/dpdk-1.6.0r2/x86_64-default-linuxapp-gcc/lib/librte_eal.a(eal_thread.o)
                                                  /home/vadim/projects/ipaugenblick/dpdk-1.6.0r2/x86_64-default-linuxapp-gcc/lib/librte_eal.a(eal_memory.o)
                                                  testpmd.o
read@@GLIBC_2.2.5                                 /lib/x86_64-linux-gnu/libpthread.so.0
                                                  /lib/x86_64-linux-gnu/libc.so.6
read@GLIBC_2.2.5                                  /lib/x86_64-linux-gnu/libpthread.so.0
                                                  /usr/lib/gcc/x86_64-linux-gnu/4.6/../../../x86_64-linux-gnu/librt.so
readahead                                         /lib/x86_64-linux-gnu/libc.so.6
readahead@@GLIBC_2.3                              /lib/x86_64-linux-gnu/libc.so.6
readahead@GLIBC_2.3                               /lib/x86_64-linux-gnu/libc.so.6
readdir                                           /lib/x86_64-linux-gnu/libc.so.6
                                                  /home/vadim/projects/ipaugenblick/dpdk-1.6.0r2/x86_64-default-linuxapp-gcc/lib/librte_eal.a(eal_lcore.o)
                                                  /home/vadim/projects/ipaugenblick/dpdk-1.6.0r2/x86_64-default-linuxapp-gcc/lib/librte_eal.a(eal_pci.o)
                                                  /home/vadim/projects/ipaugenblick/dpdk-1.6.0r2/x86_64-default-linuxapp-gcc/lib/librte_eal.a(eal_hugepage_info.o)
readdir64                                         /lib/x86_64-linux-gnu/libc.so.6
readdir64@@GLIBC_2.2.5                            /lib/x86_64-linux-gnu/libc.so.6
readdir64@GLIBC_2.2.5                             /lib/x86_64-linux-gnu/libc.so.6
readdir64_r                                       /lib/x86_64-linux-gnu/libc.so.6
readdir64_r@@GLIBC_2.2.5                          /lib/x86_64-linux-gnu/libc.so.6
readdir64_r@GLIBC_2.2.5                           /lib/x86_64-linux-gnu/libc.so.6
readdir@@GLIBC_2.2.5                              /lib/x86_64-linux-gnu/libc.so.6
readdir@GLIBC_2.2.5                               /lib/x86_64-linux-gnu/libc.so.6
readdir_r                                         /lib/x86_64-linux-gnu/libc.so.6
readdir_r@@GLIBC_2.2.5                            /lib/x86_64-linux-gnu/libc.so.6
readdir_r@GLIBC_2.2.5                             /lib/x86_64-linux-gnu/libc.so.6
readlink                                          /lib/x86_64-linux-gnu/libc.so.6
readlink@@GLIBC_2.2.5                             /lib/x86_64-linux-gnu/libc.so.6
readlink@GLIBC_2.2.5                              /lib/x86_64-linux-gnu/libc.so.6
readv                                             /lib/x86_64-linux-gnu/libc.so.6
readv@@GLIBC_2.2.5                                /lib/x86_64-linux-gnu/libc.so.6
readv@GLIBC_2.2.5                                 /lib/x86_64-linux-gnu/libc.so.6
recv                                              /lib/x86_64-linux-gnu/libpthread.so.0
recv@@GLIBC_2.2.5                                 /lib/x86_64-linux-gnu/libpthread.so.0
                                                  /lib/x86_64-linux-gnu/libc.so.6
recv@GLIBC_2.2.5                                  /lib/x86_64-linux-gnu/libpthread.so.0
                                                  /usr/lib/gcc/x86_64-linux-gnu/4.6/../../../x86_64-linux-gnu/librt.so
recvfrom                                          /lib/x86_64-linux-gnu/libpthread.so.0
recvfrom@@GLIBC_2.2.5                             /lib/x86_64-linux-gnu/libpthread.so.0
                                                  /lib/x86_64-linux-gnu/libc.so.6
recvfrom@GLIBC_2.2.5                              /lib/x86_64-linux-gnu/libpthread.so.0
recvmsg                                           /lib/x86_64-linux-gnu/libpthread.so.0
recvmsg@@GLIBC_2.2.5                              /lib/x86_64-linux-gnu/libpthread.so.0
                                                  /lib/x86_64-linux-gnu/libc.so.6
recvmsg@GLIBC_2.2.5                               /lib/x86_64-linux-gnu/libpthread.so.0
regcomp                                           /lib/x86_64-linux-gnu/libc.so.6
regcomp@@GLIBC_2.2.5                              /lib/x86_64-linux-gnu/libc.so.6
regcomp@GLIBC_2.2.5                               /lib/x86_64-linux-gnu/libc.so.6
regerror                                          /lib/x86_64-linux-gnu/libc.so.6
regerror@@GLIBC_2.2.5                             /lib/x86_64-linux-gnu/libc.so.6
regerror@GLIBC_2.2.5                              /lib/x86_64-linux-gnu/libc.so.6
regfree                                           /lib/x86_64-linux-gnu/libc.so.6
regfree@@GLIBC_2.2.5                              /lib/x86_64-linux-gnu/libc.so.6
regfree@GLIBC_2.2.5                               /lib/x86_64-linux-gnu/libc.so.6
register_printf_function                          /lib/x86_64-linux-gnu/libc.so.6
register_printf_function@@GLIBC_2.2.5             /lib/x86_64-linux-gnu/libc.so.6
register_printf_function@GLIBC_2.2.5              /lib/x86_64-linux-gnu/libc.so.6
register_printf_modifier                          /lib/x86_64-linux-gnu/libc.so.6
register_printf_modifier@@GLIBC_2.10              /lib/x86_64-linux-gnu/libc.so.6
register_printf_modifier@GLIBC_2.10               /lib/x86_64-linux-gnu/libc.so.6
register_printf_specifier                         /lib/x86_64-linux-gnu/libc.so.6
register_printf_specifier@@GLIBC_2.10             /lib/x86_64-linux-gnu/libc.so.6
register_printf_specifier@GLIBC_2.10              /lib/x86_64-linux-gnu/libc.so.6
register_printf_type                              /lib/x86_64-linux-gnu/libc.so.6
register_printf_type@@GLIBC_2.10                  /lib/x86_64-linux-gnu/libc.so.6
register_printf_type@GLIBC_2.10                   /lib/x86_64-linux-gnu/libc.so.6
remap_file_pages                                  /lib/x86_64-linux-gnu/libc.so.6
remap_file_pages@@GLIBC_2.3.3                     /lib/x86_64-linux-gnu/libc.so.6
remap_file_pages@GLIBC_2.3.3                      /lib/x86_64-linux-gnu/libc.so.6
rindex                                            /lib/x86_64-linux-gnu/libc.so.6
rindex@@GLIBC_2.2.5                               /lib/x86_64-linux-gnu/libc.so.6
rindex@GLIBC_2.2.5                                /lib/x86_64-linux-gnu/libc.so.6
rmdir                                             /lib/x86_64-linux-gnu/libc.so.6
rmdir@@GLIBC_2.2.5                                /lib/x86_64-linux-gnu/libc.so.6
rmdir@GLIBC_2.2.5                                 /lib/x86_64-linux-gnu/libc.so.6
rss_hf                                            testpmd.o
                                                  cmdline.o
                                                  parameters.o
rte_approx                                        /home/vadim/projects/ipaugenblick/dpdk-1.6.0r2/x86_64-default-linuxapp-gcc/lib/librte_sched.a(rte_approx.o)
                                                  /home/vadim/projects/ipaugenblick/dpdk-1.6.0r2/x86_64-default-linuxapp-gcc/lib/librte_sched.a(rte_sched.o)
rte_calloc                                        /home/vadim/projects/ipaugenblick/dpdk-1.6.0r2/x86_64-default-linuxapp-gcc/lib/librte_malloc.a(rte_malloc.o)
rte_calloc_socket                                 /home/vadim/projects/ipaugenblick/dpdk-1.6.0r2/x86_64-default-linuxapp-gcc/lib/librte_malloc.a(rte_malloc.o)
rte_cpu_check_supported                           /home/vadim/projects/ipaugenblick/dpdk-1.6.0r2/x86_64-default-linuxapp-gcc/lib/librte_eal.a(eal_common_cpuflags.o)
rte_cpu_get_flag_enabled                          /home/vadim/projects/ipaugenblick/dpdk-1.6.0r2/x86_64-default-linuxapp-gcc/lib/librte_eal.a(eal_common_cpuflags.o)
rte_ctrlmbuf_init                                 /home/vadim/projects/ipaugenblick/dpdk-1.6.0r2/x86_64-default-linuxapp-gcc/lib/librte_mbuf.a(rte_mbuf.o)
rte_cycles_vmware_tsc_map                         /home/vadim/projects/ipaugenblick/dpdk-1.6.0r2/x86_64-default-linuxapp-gcc/lib/librte_eal.a(eal_timer.o)
                                                  /home/vadim/projects/ipaugenblick/dpdk-1.6.0r2/x86_64-default-linuxapp-gcc/lib/librte_eal.a(eal.o)
                                                  /home/vadim/projects/ipaugenblick/dpdk-1.6.0r2/x86_64-default-linuxapp-gcc/lib/librte_sched.a(rte_sched.o)
                                                  /home/vadim/projects/ipaugenblick/dpdk-1.6.0r2/x86_64-default-linuxapp-gcc/lib/librte_meter.a(rte_meter.o)
                                                  /home/vadim/projects/ipaugenblick/dpdk-1.6.0r2/x86_64-default-linuxapp-gcc/lib/librte_timer.a(rte_timer.o)
rte_delay_us                                      /home/vadim/projects/ipaugenblick/dpdk-1.6.0r2/x86_64-default-linuxapp-gcc/lib/librte_eal.a(eal_timer.o)
                                                  /home/vadim/projects/ipaugenblick/dpdk-1.6.0r2/x86_64-default-linuxapp-gcc/lib/librte_pmd_ixgbe.a(ixgbe_fdir.o)
                                                  /home/vadim/projects/ipaugenblick/dpdk-1.6.0r2/x86_64-default-linuxapp-gcc/lib/librte_pmd_ixgbe.a(ixgbe_ethdev.o)
                                                  /home/vadim/projects/ipaugenblick/dpdk-1.6.0r2/x86_64-default-linuxapp-gcc/lib/librte_pmd_ixgbe.a(ixgbe_rxtx.o)
                                                  /home/vadim/projects/ipaugenblick/dpdk-1.6.0r2/x86_64-default-linuxapp-gcc/lib/librte_pmd_ixgbe.a(ixgbe_mbx.o)
                                                  /home/vadim/projects/ipaugenblick/dpdk-1.6.0r2/x86_64-default-linuxapp-gcc/lib/librte_pmd_ixgbe.a(ixgbe_vf.o)
                                                  /home/vadim/projects/ipaugenblick/dpdk-1.6.0r2/x86_64-default-linuxapp-gcc/lib/librte_pmd_ixgbe.a(ixgbe_phy.o)
                                                  /home/vadim/projects/ipaugenblick/dpdk-1.6.0r2/x86_64-default-linuxapp-gcc/lib/librte_pmd_ixgbe.a(ixgbe_x540.o)
                                                  /home/vadim/projects/ipaugenblick/dpdk-1.6.0r2/x86_64-default-linuxapp-gcc/lib/librte_pmd_ixgbe.a(ixgbe_82599.o)
                                                  /home/vadim/projects/ipaugenblick/dpdk-1.6.0r2/x86_64-default-linuxapp-gcc/lib/librte_pmd_ixgbe.a(ixgbe_82598.o)
                                                  /home/vadim/projects/ipaugenblick/dpdk-1.6.0r2/x86_64-default-linuxapp-gcc/lib/librte_pmd_ixgbe.a(ixgbe_common.o)
                                                  /home/vadim/projects/ipaugenblick/dpdk-1.6.0r2/x86_64-default-linuxapp-gcc/lib/librte_pmd_e1000.a(em_ethdev.o)
                                                  /home/vadim/projects/ipaugenblick/dpdk-1.6.0r2/x86_64-default-linuxapp-gcc/lib/librte_pmd_e1000.a(igb_ethdev.o)
                                                  /home/vadim/projects/ipaugenblick/dpdk-1.6.0r2/x86_64-default-linuxapp-gcc/lib/librte_pmd_e1000.a(e1000_vf.o)
                                                  /home/vadim/projects/ipaugenblick/dpdk-1.6.0r2/x86_64-default-linuxapp-gcc/lib/librte_pmd_e1000.a(e1000_phy.o)
                                                  /home/vadim/projects/ipaugenblick/dpdk-1.6.0r2/x86_64-default-linuxapp-gcc/lib/librte_pmd_e1000.a(e1000_nvm.o)
                                                  /home/vadim/projects/ipaugenblick/dpdk-1.6.0r2/x86_64-default-linuxapp-gcc/lib/librte_pmd_e1000.a(e1000_mbx.o)
                                                  /home/vadim/projects/ipaugenblick/dpdk-1.6.0r2/x86_64-default-linuxapp-gcc/lib/librte_pmd_e1000.a(e1000_manage.o)
                                                  /home/vadim/projects/ipaugenblick/dpdk-1.6.0r2/x86_64-default-linuxapp-gcc/lib/librte_pmd_e1000.a(e1000_mac.o)
                                                  /home/vadim/projects/ipaugenblick/dpdk-1.6.0r2/x86_64-default-linuxapp-gcc/lib/librte_pmd_e1000.a(e1000_ich8lan.o)
                                                  /home/vadim/projects/ipaugenblick/dpdk-1.6.0r2/x86_64-default-linuxapp-gcc/lib/librte_pmd_e1000.a(e1000_i210.o)
                                                  /home/vadim/projects/ipaugenblick/dpdk-1.6.0r2/x86_64-default-linuxapp-gcc/lib/librte_pmd_e1000.a(e1000_82575.o)
                                                  /home/vadim/projects/ipaugenblick/dpdk-1.6.0r2/x86_64-default-linuxapp-gcc/lib/librte_pmd_e1000.a(e1000_82571.o)
                                                  /home/vadim/projects/ipaugenblick/dpdk-1.6.0r2/x86_64-default-linuxapp-gcc/lib/librte_pmd_e1000.a(e1000_82543.o)
                                                  /home/vadim/projects/ipaugenblick/dpdk-1.6.0r2/x86_64-default-linuxapp-gcc/lib/librte_pmd_e1000.a(e1000_82542.o)
                                                  /home/vadim/projects/ipaugenblick/dpdk-1.6.0r2/x86_64-default-linuxapp-gcc/lib/librte_pmd_e1000.a(e1000_82541.o)
                                                  /home/vadim/projects/ipaugenblick/dpdk-1.6.0r2/x86_64-default-linuxapp-gcc/lib/librte_pmd_e1000.a(e1000_82540.o)
                                                  /home/vadim/projects/ipaugenblick/dpdk-1.6.0r2/x86_64-default-linuxapp-gcc/lib/librte_pmd_e1000.a(e1000_80003es2lan.o)
                                                  macfwd-retry.o
                                                  testpmd.o
rte_dump_physmem_layout                           /home/vadim/projects/ipaugenblick/dpdk-1.6.0r2/x86_64-default-linuxapp-gcc/lib/librte_eal.a(eal_common_memory.o)
                                                  cmdline.o
rte_dump_registers                                /home/vadim/projects/ipaugenblick/dpdk-1.6.0r2/x86_64-default-linuxapp-gcc/lib/librte_eal.a(eal_debug.o)
rte_dump_stack                                    /home/vadim/projects/ipaugenblick/dpdk-1.6.0r2/x86_64-default-linuxapp-gcc/lib/librte_eal.a(eal_debug.o)
rte_dump_tailq                                    /home/vadim/projects/ipaugenblick/dpdk-1.6.0r2/x86_64-default-linuxapp-gcc/lib/librte_eal.a(eal_common_tailqs.o)
rte_eal_alarm_cancel                              /home/vadim/projects/ipaugenblick/dpdk-1.6.0r2/x86_64-default-linuxapp-gcc/lib/librte_eal.a(eal_alarm.o)
rte_eal_alarm_init                                /home/vadim/projects/ipaugenblick/dpdk-1.6.0r2/x86_64-default-linuxapp-gcc/lib/librte_eal.a(eal_alarm.o)
                                                  /home/vadim/projects/ipaugenblick/dpdk-1.6.0r2/x86_64-default-linuxapp-gcc/lib/librte_eal.a(eal.o)
rte_eal_alarm_set                                 /home/vadim/projects/ipaugenblick/dpdk-1.6.0r2/x86_64-default-linuxapp-gcc/lib/librte_eal.a(eal_alarm.o)
                                                  /home/vadim/projects/ipaugenblick/dpdk-1.6.0r2/x86_64-default-linuxapp-gcc/lib/librte_pmd_ixgbe.a(ixgbe_ethdev.o)
rte_eal_common_log_init                           /home/vadim/projects/ipaugenblick/dpdk-1.6.0r2/x86_64-default-linuxapp-gcc/lib/librte_eal.a(eal_common_log.o)
                                                  /home/vadim/projects/ipaugenblick/dpdk-1.6.0r2/x86_64-default-linuxapp-gcc/lib/librte_eal.a(eal_log.o)
rte_eal_cpu_init                                  /home/vadim/projects/ipaugenblick/dpdk-1.6.0r2/x86_64-default-linuxapp-gcc/lib/librte_eal.a(eal_lcore.o)
                                                  /home/vadim/projects/ipaugenblick/dpdk-1.6.0r2/x86_64-default-linuxapp-gcc/lib/librte_eal.a(eal.o)
rte_eal_devargs_add                               /home/vadim/projects/ipaugenblick/dpdk-1.6.0r2/x86_64-default-linuxapp-gcc/lib/librte_eal.a(eal_common_devargs.o)
                                                  /home/vadim/projects/ipaugenblick/dpdk-1.6.0r2/x86_64-default-linuxapp-gcc/lib/librte_eal.a(eal.o)
rte_eal_devargs_dump                              /home/vadim/projects/ipaugenblick/dpdk-1.6.0r2/x86_64-default-linuxapp-gcc/lib/librte_eal.a(eal_common_devargs.o)
                                                  cmdline.o
rte_eal_devargs_type_count                        /home/vadim/projects/ipaugenblick/dpdk-1.6.0r2/x86_64-default-linuxapp-gcc/lib/librte_eal.a(eal_common_devargs.o)
                                                  /home/vadim/projects/ipaugenblick/dpdk-1.6.0r2/x86_64-default-linuxapp-gcc/lib/librte_eal.a(eal_common_pci.o)
                                                  /home/vadim/projects/ipaugenblick/dpdk-1.6.0r2/x86_64-default-linuxapp-gcc/lib/librte_eal.a(eal.o)
rte_eal_get_configuration                         /home/vadim/projects/ipaugenblick/dpdk-1.6.0r2/x86_64-default-linuxapp-gcc/lib/librte_eal.a(eal.o)
                                                  /home/vadim/projects/ipaugenblick/dpdk-1.6.0r2/x86_64-default-linuxapp-gcc/lib/librte_eal.a(eal_common_tailqs.o)
                                                  /home/vadim/projects/ipaugenblick/dpdk-1.6.0r2/x86_64-default-linuxapp-gcc/lib/librte_eal.a(eal_common_memory.o)
                                                  /home/vadim/projects/ipaugenblick/dpdk-1.6.0r2/x86_64-default-linuxapp-gcc/lib/librte_eal.a(eal_common_launch.o)
                                                  /home/vadim/projects/ipaugenblick/dpdk-1.6.0r2/x86_64-default-linuxapp-gcc/lib/librte_eal.a(eal_common_memzone.o)
                                                  /home/vadim/projects/ipaugenblick/dpdk-1.6.0r2/x86_64-default-linuxapp-gcc/lib/librte_eal.a(eal_lcore.o)
                                                  /home/vadim/projects/ipaugenblick/dpdk-1.6.0r2/x86_64-default-linuxapp-gcc/lib/librte_eal.a(eal_thread.o)
                                                  /home/vadim/projects/ipaugenblick/dpdk-1.6.0r2/x86_64-default-linuxapp-gcc/lib/librte_eal.a(eal_memory.o)
                                                  /home/vadim/projects/ipaugenblick/dpdk-1.6.0r2/x86_64-default-linuxapp-gcc/lib/librte_ring.a(rte_ring.o)
                                                  /home/vadim/projects/ipaugenblick/dpdk-1.6.0r2/x86_64-default-linuxapp-gcc/lib/librte_mempool.a(rte_mempool.o)
                                                  /home/vadim/projects/ipaugenblick/dpdk-1.6.0r2/x86_64-default-linuxapp-gcc/lib/librte_malloc.a(malloc_heap.o)
                                                  /home/vadim/projects/ipaugenblick/dpdk-1.6.0r2/x86_64-default-linuxapp-gcc/lib/librte_malloc.a(rte_malloc.o)
                                                  /home/vadim/projects/ipaugenblick/dpdk-1.6.0r2/x86_64-default-linuxapp-gcc/lib/librte_lpm.a(rte_lpm6.o)
                                                  /home/vadim/projects/ipaugenblick/dpdk-1.6.0r2/x86_64-default-linuxapp-gcc/lib/librte_lpm.a(rte_lpm.o)
                                                  /home/vadim/projects/ipaugenblick/dpdk-1.6.0r2/x86_64-default-linuxapp-gcc/lib/librte_hash.a(rte_fbk_hash.o)
                                                  /home/vadim/projects/ipaugenblick/dpdk-1.6.0r2/x86_64-default-linuxapp-gcc/lib/librte_hash.a(rte_hash.o)
                                                  /home/vadim/projects/ipaugenblick/dpdk-1.6.0r2/x86_64-default-linuxapp-gcc/lib/librte_timer.a(rte_timer.o)
                                                  /home/vadim/projects/ipaugenblick/dpdk-1.6.0r2/x86_64-default-linuxapp-gcc/lib/librte_pmd_virtio_uio.a(virtio_ethdev.o)
                                                  config.o
                                                  testpmd.o
rte_eal_get_lcore_state                           /home/vadim/projects/ipaugenblick/dpdk-1.6.0r2/x86_64-default-linuxapp-gcc/lib/librte_eal.a(eal_common_launch.o)
rte_eal_get_physmem_layout                        /home/vadim/projects/ipaugenblick/dpdk-1.6.0r2/x86_64-default-linuxapp-gcc/lib/librte_eal.a(eal_common_memory.o)
                                                  /home/vadim/projects/ipaugenblick/dpdk-1.6.0r2/x86_64-default-linuxapp-gcc/lib/librte_eal.a(eal_common_memzone.o)
                                                  /home/vadim/projects/ipaugenblick/dpdk-1.6.0r2/x86_64-default-linuxapp-gcc/lib/librte_eal.a(eal.o)
rte_eal_get_physmem_size                          /home/vadim/projects/ipaugenblick/dpdk-1.6.0r2/x86_64-default-linuxapp-gcc/lib/librte_eal.a(eal_common_memory.o)
rte_eal_has_hugepages                             /home/vadim/projects/ipaugenblick/dpdk-1.6.0r2/x86_64-default-linuxapp-gcc/lib/librte_eal.a(eal.o)
                                                  /home/vadim/projects/ipaugenblick/dpdk-1.6.0r2/x86_64-default-linuxapp-gcc/lib/librte_mempool.a(rte_mempool.o)
                                                  /home/vadim/projects/ipaugenblick/dpdk-1.6.0r2/x86_64-default-linuxapp-gcc/lib/librte_mbuf.a(rte_mbuf.o)
                                                  /home/vadim/projects/ipaugenblick/dpdk-1.6.0r2/x86_64-default-linuxapp-gcc/lib/librte_sched.a(rte_sched.o)
                                                  /home/vadim/projects/ipaugenblick/dpdk-1.6.0r2/x86_64-default-linuxapp-gcc/lib/librte_pmd_vmxnet3_uio.a(vmxnet3_rxtx.o)
                                                  /home/vadim/projects/ipaugenblick/dpdk-1.6.0r2/x86_64-default-linuxapp-gcc/lib/librte_pmd_virtio_uio.a(virtio_ethdev.o)
                                                  /home/vadim/projects/ipaugenblick/dpdk-1.6.0r2/x86_64-default-linuxapp-gcc/lib/librte_pmd_virtio_uio.a(virtio_rxtx.o)
                                                  /home/vadim/projects/ipaugenblick/dpdk-1.6.0r2/x86_64-default-linuxapp-gcc/lib/librte_pmd_ixgbe.a(ixgbe_rxtx.o)
                                                  /home/vadim/projects/ipaugenblick/dpdk-1.6.0r2/x86_64-default-linuxapp-gcc/lib/librte_pmd_e1000.a(em_rxtx.o)
                                                  /home/vadim/projects/ipaugenblick/dpdk-1.6.0r2/x86_64-default-linuxapp-gcc/lib/librte_pmd_e1000.a(igb_rxtx.o)
                                                  /home/vadim/projects/ipaugenblick/dpdk-1.6.0r2/x86_64-default-linuxapp-gcc/lib/librte_kni.a(rte_kni.o)
                                                  csumonly.o
                                                  txonly.o
                                                  rxonly.o
                                                  macfwd-retry.o
                                                  macfwd.o
                                                  iofwd.o
                                                  testpmd.o
rte_eal_init                                      /home/vadim/projects/ipaugenblick/dpdk-1.6.0r2/x86_64-default-linuxapp-gcc/lib/librte_eal.a(eal.o)
                                                  testpmd.o
rte_eal_intr_init                                 /home/vadim/projects/ipaugenblick/dpdk-1.6.0r2/x86_64-default-linuxapp-gcc/lib/librte_eal.a(eal_interrupts.o)
                                                  /home/vadim/projects/ipaugenblick/dpdk-1.6.0r2/x86_64-default-linuxapp-gcc/lib/librte_eal.a(eal.o)
rte_eal_lcore_role                                /home/vadim/projects/ipaugenblick/dpdk-1.6.0r2/x86_64-default-linuxapp-gcc/lib/librte_eal.a(eal.o)
rte_eal_log_early_init                            /home/vadim/projects/ipaugenblick/dpdk-1.6.0r2/x86_64-default-linuxapp-gcc/lib/librte_eal.a(eal_log.o)
                                                  /home/vadim/projects/ipaugenblick/dpdk-1.6.0r2/x86_64-default-linuxapp-gcc/lib/librte_eal.a(eal.o)
rte_eal_log_init                                  /home/vadim/projects/ipaugenblick/dpdk-1.6.0r2/x86_64-default-linuxapp-gcc/lib/librte_eal.a(eal_log.o)
                                                  /home/vadim/projects/ipaugenblick/dpdk-1.6.0r2/x86_64-default-linuxapp-gcc/lib/librte_eal.a(eal.o)
rte_eal_memory_init                               /home/vadim/projects/ipaugenblick/dpdk-1.6.0r2/x86_64-default-linuxapp-gcc/lib/librte_eal.a(eal_memory.o)
                                                  /home/vadim/projects/ipaugenblick/dpdk-1.6.0r2/x86_64-default-linuxapp-gcc/lib/librte_eal.a(eal.o)
rte_eal_memzone_init                              /home/vadim/projects/ipaugenblick/dpdk-1.6.0r2/x86_64-default-linuxapp-gcc/lib/librte_eal.a(eal_common_memzone.o)
                                                  /home/vadim/projects/ipaugenblick/dpdk-1.6.0r2/x86_64-default-linuxapp-gcc/lib/librte_eal.a(eal.o)
rte_eal_mp_remote_launch                          /home/vadim/projects/ipaugenblick/dpdk-1.6.0r2/x86_64-default-linuxapp-gcc/lib/librte_eal.a(eal_common_launch.o)
                                                  /home/vadim/projects/ipaugenblick/dpdk-1.6.0r2/x86_64-default-linuxapp-gcc/lib/librte_eal.a(eal.o)
rte_eal_mp_wait_lcore                             /home/vadim/projects/ipaugenblick/dpdk-1.6.0r2/x86_64-default-linuxapp-gcc/lib/librte_eal.a(eal_common_launch.o)
                                                  /home/vadim/projects/ipaugenblick/dpdk-1.6.0r2/x86_64-default-linuxapp-gcc/lib/librte_eal.a(eal.o)
                                                  testpmd.o
rte_eal_pci_dump                                  /home/vadim/projects/ipaugenblick/dpdk-1.6.0r2/x86_64-default-linuxapp-gcc/lib/librte_eal.a(eal_common_pci.o)
rte_eal_pci_init                                  /home/vadim/projects/ipaugenblick/dpdk-1.6.0r2/x86_64-default-linuxapp-gcc/lib/librte_eal.a(eal_pci.o)
                                                  /home/vadim/projects/ipaugenblick/dpdk-1.6.0r2/x86_64-default-linuxapp-gcc/lib/librte_eal.a(eal.o)
rte_eal_pci_probe                                 /home/vadim/projects/ipaugenblick/dpdk-1.6.0r2/x86_64-default-linuxapp-gcc/lib/librte_eal.a(eal_common_pci.o)
                                                  testpmd.o
rte_eal_pci_probe_one_driver                      /home/vadim/projects/ipaugenblick/dpdk-1.6.0r2/x86_64-default-linuxapp-gcc/lib/librte_eal.a(eal_pci.o)
                                                  /home/vadim/projects/ipaugenblick/dpdk-1.6.0r2/x86_64-default-linuxapp-gcc/lib/librte_eal.a(eal_common_pci.o)
rte_eal_pci_register                              /home/vadim/projects/ipaugenblick/dpdk-1.6.0r2/x86_64-default-linuxapp-gcc/lib/librte_eal.a(eal_common_pci.o)
                                                  /home/vadim/projects/ipaugenblick/dpdk-1.6.0r2/x86_64-default-linuxapp-gcc/lib/libethdev.a(rte_ethdev.o)
rte_eal_pci_unregister                            /home/vadim/projects/ipaugenblick/dpdk-1.6.0r2/x86_64-default-linuxapp-gcc/lib/librte_eal.a(eal_common_pci.o)
rte_eal_process_type                              /home/vadim/projects/ipaugenblick/dpdk-1.6.0r2/x86_64-default-linuxapp-gcc/lib/librte_eal.a(eal.o)
                                                  /home/vadim/projects/ipaugenblick/dpdk-1.6.0r2/x86_64-default-linuxapp-gcc/lib/librte_eal.a(eal_common_tailqs.o)
                                                  /home/vadim/projects/ipaugenblick/dpdk-1.6.0r2/x86_64-default-linuxapp-gcc/lib/librte_eal.a(eal_common_memzone.o)
                                                  /home/vadim/projects/ipaugenblick/dpdk-1.6.0r2/x86_64-default-linuxapp-gcc/lib/librte_eal.a(eal_pci.o)
                                                  /home/vadim/projects/ipaugenblick/dpdk-1.6.0r2/x86_64-default-linuxapp-gcc/lib/librte_eal.a(eal_memory.o)
                                                  /home/vadim/projects/ipaugenblick/dpdk-1.6.0r2/x86_64-default-linuxapp-gcc/lib/libethdev.a(rte_ethdev.o)
                                                  /home/vadim/projects/ipaugenblick/dpdk-1.6.0r2/x86_64-default-linuxapp-gcc/lib/librte_pmd_vmxnet3_uio.a(vmxnet3_ethdev.o)
                                                  /home/vadim/projects/ipaugenblick/dpdk-1.6.0r2/x86_64-default-linuxapp-gcc/lib/librte_pmd_virtio_uio.a(virtio_ethdev.o)
                                                  /home/vadim/projects/ipaugenblick/dpdk-1.6.0r2/x86_64-default-linuxapp-gcc/lib/librte_pmd_ixgbe.a(ixgbe_ethdev.o)
                                                  /home/vadim/projects/ipaugenblick/dpdk-1.6.0r2/x86_64-default-linuxapp-gcc/lib/librte_pmd_e1000.a(em_ethdev.o)
                                                  /home/vadim/projects/ipaugenblick/dpdk-1.6.0r2/x86_64-default-linuxapp-gcc/lib/librte_pmd_e1000.a(igb_ethdev.o)
rte_eal_remote_launch                             /home/vadim/projects/ipaugenblick/dpdk-1.6.0r2/x86_64-default-linuxapp-gcc/lib/librte_eal.a(eal_thread.o)
                                                  /home/vadim/projects/ipaugenblick/dpdk-1.6.0r2/x86_64-default-linuxapp-gcc/lib/librte_eal.a(eal_common_launch.o)
                                                  testpmd.o
rte_eal_tailq_lookup                              /home/vadim/projects/ipaugenblick/dpdk-1.6.0r2/x86_64-default-linuxapp-gcc/lib/librte_eal.a(eal_common_tailqs.o)
rte_eal_tailq_lookup_by_idx                       /home/vadim/projects/ipaugenblick/dpdk-1.6.0r2/x86_64-default-linuxapp-gcc/lib/librte_eal.a(eal_common_tailqs.o)
                                                  /home/vadim/projects/ipaugenblick/dpdk-1.6.0r2/x86_64-default-linuxapp-gcc/lib/librte_ring.a(rte_ring.o)
                                                  /home/vadim/projects/ipaugenblick/dpdk-1.6.0r2/x86_64-default-linuxapp-gcc/lib/librte_mempool.a(rte_mempool.o)
                                                  /home/vadim/projects/ipaugenblick/dpdk-1.6.0r2/x86_64-default-linuxapp-gcc/lib/librte_lpm.a(rte_lpm6.o)
                                                  /home/vadim/projects/ipaugenblick/dpdk-1.6.0r2/x86_64-default-linuxapp-gcc/lib/librte_lpm.a(rte_lpm.o)
                                                  /home/vadim/projects/ipaugenblick/dpdk-1.6.0r2/x86_64-default-linuxapp-gcc/lib/librte_hash.a(rte_fbk_hash.o)
                                                  /home/vadim/projects/ipaugenblick/dpdk-1.6.0r2/x86_64-default-linuxapp-gcc/lib/librte_hash.a(rte_hash.o)
rte_eal_tailq_reserve                             /home/vadim/projects/ipaugenblick/dpdk-1.6.0r2/x86_64-default-linuxapp-gcc/lib/librte_eal.a(eal_common_tailqs.o)
rte_eal_tailq_reserve_by_idx                      /home/vadim/projects/ipaugenblick/dpdk-1.6.0r2/x86_64-default-linuxapp-gcc/lib/librte_eal.a(eal_common_tailqs.o)
                                                  /home/vadim/projects/ipaugenblick/dpdk-1.6.0r2/x86_64-default-linuxapp-gcc/lib/librte_eal.a(eal_pci.o)
rte_eal_tailqs_init                               /home/vadim/projects/ipaugenblick/dpdk-1.6.0r2/x86_64-default-linuxapp-gcc/lib/librte_eal.a(eal_common_tailqs.o)
                                                  /home/vadim/projects/ipaugenblick/dpdk-1.6.0r2/x86_64-default-linuxapp-gcc/lib/librte_eal.a(eal.o)
rte_eal_timer_init                                /home/vadim/projects/ipaugenblick/dpdk-1.6.0r2/x86_64-default-linuxapp-gcc/lib/librte_eal.a(eal_timer.o)
                                                  /home/vadim/projects/ipaugenblick/dpdk-1.6.0r2/x86_64-default-linuxapp-gcc/lib/librte_eal.a(eal.o)
rte_eal_vdev_driver_register                      /home/vadim/projects/ipaugenblick/dpdk-1.6.0r2/x86_64-default-linuxapp-gcc/lib/librte_eal.a(eal_common_vdev.o)
                                                  /home/vadim/projects/ipaugenblick/dpdk-1.6.0r2/x86_64-default-linuxapp-gcc/lib/librte_pmd_ring.a(rte_eth_ring.o)
rte_eal_vdev_driver_unregister                    /home/vadim/projects/ipaugenblick/dpdk-1.6.0r2/x86_64-default-linuxapp-gcc/lib/librte_eal.a(eal_common_vdev.o)
rte_eal_vdev_init                                 /home/vadim/projects/ipaugenblick/dpdk-1.6.0r2/x86_64-default-linuxapp-gcc/lib/librte_eal.a(eal_common_vdev.o)
                                                  /home/vadim/projects/ipaugenblick/dpdk-1.6.0r2/x86_64-default-linuxapp-gcc/lib/librte_eal.a(eal.o)
rte_eal_wait_lcore                                /home/vadim/projects/ipaugenblick/dpdk-1.6.0r2/x86_64-default-linuxapp-gcc/lib/librte_eal.a(eal_common_launch.o)
rte_em_pmd_init                                   /home/vadim/projects/ipaugenblick/dpdk-1.6.0r2/x86_64-default-linuxapp-gcc/lib/librte_pmd_e1000.a(em_ethdev.o)
                                                  testpmd.o
rte_eth_allmulticast_disable                      /home/vadim/projects/ipaugenblick/dpdk-1.6.0r2/x86_64-default-linuxapp-gcc/lib/libethdev.a(rte_ethdev.o)
                                                  cmdline.o
rte_eth_allmulticast_enable                       /home/vadim/projects/ipaugenblick/dpdk-1.6.0r2/x86_64-default-linuxapp-gcc/lib/libethdev.a(rte_ethdev.o)
                                                  cmdline.o
rte_eth_allmulticast_get                          /home/vadim/projects/ipaugenblick/dpdk-1.6.0r2/x86_64-default-linuxapp-gcc/lib/libethdev.a(rte_ethdev.o)
                                                  config.o
rte_eth_dev_allocate                              /home/vadim/projects/ipaugenblick/dpdk-1.6.0r2/x86_64-default-linuxapp-gcc/lib/libethdev.a(rte_ethdev.o)
                                                  /home/vadim/projects/ipaugenblick/dpdk-1.6.0r2/x86_64-default-linuxapp-gcc/lib/librte_pmd_ring.a(rte_eth_ring.o)
rte_eth_dev_callback_register                     /home/vadim/projects/ipaugenblick/dpdk-1.6.0r2/x86_64-default-linuxapp-gcc/lib/libethdev.a(rte_ethdev.o)
rte_eth_dev_callback_unregister                   /home/vadim/projects/ipaugenblick/dpdk-1.6.0r2/x86_64-default-linuxapp-gcc/lib/libethdev.a(rte_ethdev.o)
rte_eth_dev_close                                 /home/vadim/projects/ipaugenblick/dpdk-1.6.0r2/x86_64-default-linuxapp-gcc/lib/libethdev.a(rte_ethdev.o)
                                                  testpmd.o
rte_eth_dev_configure                             /home/vadim/projects/ipaugenblick/dpdk-1.6.0r2/x86_64-default-linuxapp-gcc/lib/libethdev.a(rte_ethdev.o)
                                                  testpmd.o
rte_eth_dev_count                                 /home/vadim/projects/ipaugenblick/dpdk-1.6.0r2/x86_64-default-linuxapp-gcc/lib/libethdev.a(rte_ethdev.o)
                                                  testpmd.o
rte_eth_dev_fdir_add_perfect_filter               /home/vadim/projects/ipaugenblick/dpdk-1.6.0r2/x86_64-default-linuxapp-gcc/lib/libethdev.a(rte_ethdev.o)
                                                  config.o
rte_eth_dev_fdir_add_signature_filter             /home/vadim/projects/ipaugenblick/dpdk-1.6.0r2/x86_64-default-linuxapp-gcc/lib/libethdev.a(rte_ethdev.o)
                                                  config.o
rte_eth_dev_fdir_get_infos                        /home/vadim/projects/ipaugenblick/dpdk-1.6.0r2/x86_64-default-linuxapp-gcc/lib/libethdev.a(rte_ethdev.o)
                                                  config.o
rte_eth_dev_fdir_remove_perfect_filter            /home/vadim/projects/ipaugenblick/dpdk-1.6.0r2/x86_64-default-linuxapp-gcc/lib/libethdev.a(rte_ethdev.o)
                                                  config.o
rte_eth_dev_fdir_remove_signature_filter          /home/vadim/projects/ipaugenblick/dpdk-1.6.0r2/x86_64-default-linuxapp-gcc/lib/libethdev.a(rte_ethdev.o)
                                                  config.o
rte_eth_dev_fdir_set_masks                        /home/vadim/projects/ipaugenblick/dpdk-1.6.0r2/x86_64-default-linuxapp-gcc/lib/libethdev.a(rte_ethdev.o)
                                                  config.o
rte_eth_dev_fdir_update_perfect_filter            /home/vadim/projects/ipaugenblick/dpdk-1.6.0r2/x86_64-default-linuxapp-gcc/lib/libethdev.a(rte_ethdev.o)
                                                  config.o
rte_eth_dev_fdir_update_signature_filter          /home/vadim/projects/ipaugenblick/dpdk-1.6.0r2/x86_64-default-linuxapp-gcc/lib/libethdev.a(rte_ethdev.o)
                                                  config.o
rte_eth_dev_flow_ctrl_set                         /home/vadim/projects/ipaugenblick/dpdk-1.6.0r2/x86_64-default-linuxapp-gcc/lib/libethdev.a(rte_ethdev.o)
                                                  cmdline.o
rte_eth_dev_get_vlan_offload                      /home/vadim/projects/ipaugenblick/dpdk-1.6.0r2/x86_64-default-linuxapp-gcc/lib/libethdev.a(rte_ethdev.o)
                                                  config.o
rte_eth_dev_info_get                              /home/vadim/projects/ipaugenblick/dpdk-1.6.0r2/x86_64-default-linuxapp-gcc/lib/libethdev.a(rte_ethdev.o)
                                                  /home/vadim/projects/ipaugenblick/dpdk-1.6.0r2/x86_64-default-linuxapp-gcc/lib/librte_kni.a(rte_kni.o)
                                                  testpmd.o
rte_eth_dev_mac_addr_add                          /home/vadim/projects/ipaugenblick/dpdk-1.6.0r2/x86_64-default-linuxapp-gcc/lib/libethdev.a(rte_ethdev.o)
                                                  cmdline.o
rte_eth_dev_mac_addr_remove                       /home/vadim/projects/ipaugenblick/dpdk-1.6.0r2/x86_64-default-linuxapp-gcc/lib/libethdev.a(rte_ethdev.o)
                                                  cmdline.o
rte_eth_dev_priority_flow_ctrl_set                /home/vadim/projects/ipaugenblick/dpdk-1.6.0r2/x86_64-default-linuxapp-gcc/lib/libethdev.a(rte_ethdev.o)
                                                  cmdline.o
rte_eth_dev_rss_reta_query                        /home/vadim/projects/ipaugenblick/dpdk-1.6.0r2/x86_64-default-linuxapp-gcc/lib/libethdev.a(rte_ethdev.o)
                                                  config.o
rte_eth_dev_rss_reta_update                       /home/vadim/projects/ipaugenblick/dpdk-1.6.0r2/x86_64-default-linuxapp-gcc/lib/libethdev.a(rte_ethdev.o)
                                                  cmdline.o
rte_eth_dev_set_rx_queue_stats_mapping            /home/vadim/projects/ipaugenblick/dpdk-1.6.0r2/x86_64-default-linuxapp-gcc/lib/libethdev.a(rte_ethdev.o)
                                                  testpmd.o
rte_eth_dev_set_tx_queue_stats_mapping            /home/vadim/projects/ipaugenblick/dpdk-1.6.0r2/x86_64-default-linuxapp-gcc/lib/libethdev.a(rte_ethdev.o)
                                                  testpmd.o
rte_eth_dev_set_vf_rx                             /home/vadim/projects/ipaugenblick/dpdk-1.6.0r2/x86_64-default-linuxapp-gcc/lib/libethdev.a(rte_ethdev.o)
                                                  config.o
rte_eth_dev_set_vf_rxmode                         /home/vadim/projects/ipaugenblick/dpdk-1.6.0r2/x86_64-default-linuxapp-gcc/lib/libethdev.a(rte_ethdev.o)
                                                  cmdline.o
rte_eth_dev_set_vf_tx                             /home/vadim/projects/ipaugenblick/dpdk-1.6.0r2/x86_64-default-linuxapp-gcc/lib/libethdev.a(rte_ethdev.o)
                                                  config.o
rte_eth_dev_set_vf_vlan_filter                    /home/vadim/projects/ipaugenblick/dpdk-1.6.0r2/x86_64-default-linuxapp-gcc/lib/libethdev.a(rte_ethdev.o)
                                                  config.o
rte_eth_dev_set_vlan_ether_type                   /home/vadim/projects/ipaugenblick/dpdk-1.6.0r2/x86_64-default-linuxapp-gcc/lib/libethdev.a(rte_ethdev.o)
                                                  config.o
rte_eth_dev_set_vlan_offload                      /home/vadim/projects/ipaugenblick/dpdk-1.6.0r2/x86_64-default-linuxapp-gcc/lib/libethdev.a(rte_ethdev.o)
                                                  config.o
rte_eth_dev_set_vlan_strip_on_queue               /home/vadim/projects/ipaugenblick/dpdk-1.6.0r2/x86_64-default-linuxapp-gcc/lib/libethdev.a(rte_ethdev.o)
                                                  config.o
rte_eth_dev_socket_id                             /home/vadim/projects/ipaugenblick/dpdk-1.6.0r2/x86_64-default-linuxapp-gcc/lib/libethdev.a(rte_ethdev.o)
                                                  testpmd.o
rte_eth_dev_start                                 /home/vadim/projects/ipaugenblick/dpdk-1.6.0r2/x86_64-default-linuxapp-gcc/lib/libethdev.a(rte_ethdev.o)
                                                  testpmd.o
rte_eth_dev_stop                                  /home/vadim/projects/ipaugenblick/dpdk-1.6.0r2/x86_64-default-linuxapp-gcc/lib/libethdev.a(rte_ethdev.o)
                                                  testpmd.o
rte_eth_dev_uc_all_hash_table_set                 /home/vadim/projects/ipaugenblick/dpdk-1.6.0r2/x86_64-default-linuxapp-gcc/lib/libethdev.a(rte_ethdev.o)
                                                  cmdline.o
rte_eth_dev_uc_hash_table_set                     /home/vadim/projects/ipaugenblick/dpdk-1.6.0r2/x86_64-default-linuxapp-gcc/lib/libethdev.a(rte_ethdev.o)
                                                  cmdline.o
rte_eth_dev_vlan_filter                           /home/vadim/projects/ipaugenblick/dpdk-1.6.0r2/x86_64-default-linuxapp-gcc/lib/libethdev.a(rte_ethdev.o)
                                                  config.o
rte_eth_devices                                   /home/vadim/projects/ipaugenblick/dpdk-1.6.0r2/x86_64-default-linuxapp-gcc/lib/libethdev.a(rte_ethdev.o)
                                                  /home/vadim/projects/ipaugenblick/dpdk-1.6.0r2/x86_64-default-linuxapp-gcc/lib/librte_pmd_ixgbe.a(ixgbe_rxtx.o)
                                                  /home/vadim/projects/ipaugenblick/dpdk-1.6.0r2/x86_64-default-linuxapp-gcc/lib/librte_pmd_e1000.a(em_rxtx.o)
                                                  /home/vadim/projects/ipaugenblick/dpdk-1.6.0r2/x86_64-default-linuxapp-gcc/lib/librte_pmd_e1000.a(igb_rxtx.o)
                                                  csumonly.o
                                                  txonly.o
                                                  rxonly.o
                                                  macfwd-retry.o
                                                  macfwd.o
                                                  iofwd.o
                                                  testpmd.o
rte_eth_driver_register                           /home/vadim/projects/ipaugenblick/dpdk-1.6.0r2/x86_64-default-linuxapp-gcc/lib/libethdev.a(rte_ethdev.o)
                                                  /home/vadim/projects/ipaugenblick/dpdk-1.6.0r2/x86_64-default-linuxapp-gcc/lib/librte_pmd_vmxnet3_uio.a(vmxnet3_ethdev.o)
                                                  /home/vadim/projects/ipaugenblick/dpdk-1.6.0r2/x86_64-default-linuxapp-gcc/lib/librte_pmd_virtio_uio.a(virtio_ethdev.o)
                                                  /home/vadim/projects/ipaugenblick/dpdk-1.6.0r2/x86_64-default-linuxapp-gcc/lib/librte_pmd_ixgbe.a(ixgbe_ethdev.o)
                                                  /home/vadim/projects/ipaugenblick/dpdk-1.6.0r2/x86_64-default-linuxapp-gcc/lib/librte_pmd_e1000.a(em_ethdev.o)
                                                  /home/vadim/projects/ipaugenblick/dpdk-1.6.0r2/x86_64-default-linuxapp-gcc/lib/librte_pmd_e1000.a(igb_ethdev.o)
rte_eth_from_rings                                /home/vadim/projects/ipaugenblick/dpdk-1.6.0r2/x86_64-default-linuxapp-gcc/lib/librte_pmd_ring.a(rte_eth_ring.o)
rte_eth_led_off                                   /home/vadim/projects/ipaugenblick/dpdk-1.6.0r2/x86_64-default-linuxapp-gcc/lib/libethdev.a(rte_ethdev.o)
rte_eth_led_on                                    /home/vadim/projects/ipaugenblick/dpdk-1.6.0r2/x86_64-default-linuxapp-gcc/lib/libethdev.a(rte_ethdev.o)
rte_eth_link_get                                  /home/vadim/projects/ipaugenblick/dpdk-1.6.0r2/x86_64-default-linuxapp-gcc/lib/libethdev.a(rte_ethdev.o)
rte_eth_link_get_nowait                           /home/vadim/projects/ipaugenblick/dpdk-1.6.0r2/x86_64-default-linuxapp-gcc/lib/libethdev.a(rte_ethdev.o)
                                                  config.o
                                                  testpmd.o
rte_eth_macaddr_get                               /home/vadim/projects/ipaugenblick/dpdk-1.6.0r2/x86_64-default-linuxapp-gcc/lib/libethdev.a(rte_ethdev.o)
                                                  testpmd.o
rte_eth_mirror_rule_reset                         /home/vadim/projects/ipaugenblick/dpdk-1.6.0r2/x86_64-default-linuxapp-gcc/lib/libethdev.a(rte_ethdev.o)
                                                  cmdline.o
rte_eth_mirror_rule_set                           /home/vadim/projects/ipaugenblick/dpdk-1.6.0r2/x86_64-default-linuxapp-gcc/lib/libethdev.a(rte_ethdev.o)
                                                  cmdline.o
rte_eth_promiscuous_disable                       /home/vadim/projects/ipaugenblick/dpdk-1.6.0r2/x86_64-default-linuxapp-gcc/lib/libethdev.a(rte_ethdev.o)
                                                  cmdline.o
rte_eth_promiscuous_enable                        /home/vadim/projects/ipaugenblick/dpdk-1.6.0r2/x86_64-default-linuxapp-gcc/lib/libethdev.a(rte_ethdev.o)
                                                  cmdline.o
                                                  testpmd.o
rte_eth_promiscuous_get                           /home/vadim/projects/ipaugenblick/dpdk-1.6.0r2/x86_64-default-linuxapp-gcc/lib/libethdev.a(rte_ethdev.o)
                                                  config.o
rte_eth_ring_pair_attach                          /home/vadim/projects/ipaugenblick/dpdk-1.6.0r2/x86_64-default-linuxapp-gcc/lib/librte_pmd_ring.a(rte_eth_ring.o)
rte_eth_ring_pair_create                          /home/vadim/projects/ipaugenblick/dpdk-1.6.0r2/x86_64-default-linuxapp-gcc/lib/librte_pmd_ring.a(rte_eth_ring.o)
rte_eth_rx_queue_setup                            /home/vadim/projects/ipaugenblick/dpdk-1.6.0r2/x86_64-default-linuxapp-gcc/lib/libethdev.a(rte_ethdev.o)
                                                  testpmd.o
rte_eth_stats_get                                 /home/vadim/projects/ipaugenblick/dpdk-1.6.0r2/x86_64-default-linuxapp-gcc/lib/libethdev.a(rte_ethdev.o)
                                                  config.o
                                                  testpmd.o
rte_eth_stats_reset                               /home/vadim/projects/ipaugenblick/dpdk-1.6.0r2/x86_64-default-linuxapp-gcc/lib/libethdev.a(rte_ethdev.o)
                                                  config.o
rte_eth_tx_queue_setup                            /home/vadim/projects/ipaugenblick/dpdk-1.6.0r2/x86_64-default-linuxapp-gcc/lib/libethdev.a(rte_ethdev.o)
                                                  testpmd.o
rte_exit                                          /home/vadim/projects/ipaugenblick/dpdk-1.6.0r2/x86_64-default-linuxapp-gcc/lib/librte_eal.a(eal_debug.o)
                                                  /home/vadim/projects/ipaugenblick/dpdk-1.6.0r2/x86_64-default-linuxapp-gcc/lib/librte_eal.a(eal_common_pci.o)
                                                  /home/vadim/projects/ipaugenblick/dpdk-1.6.0r2/x86_64-default-linuxapp-gcc/lib/librte_eal.a(eal.o)
                                                  /home/vadim/projects/ipaugenblick/dpdk-1.6.0r2/x86_64-default-linuxapp-gcc/lib/librte_pmd_virtio_uio.a(virtio_rxtx.o)
                                                  parameters.o
                                                  testpmd.o
rte_fbk_hash_create                               /home/vadim/projects/ipaugenblick/dpdk-1.6.0r2/x86_64-default-linuxapp-gcc/lib/librte_hash.a(rte_fbk_hash.o)
rte_fbk_hash_find_existing                        /home/vadim/projects/ipaugenblick/dpdk-1.6.0r2/x86_64-default-linuxapp-gcc/lib/librte_hash.a(rte_fbk_hash.o)
rte_fbk_hash_free                                 /home/vadim/projects/ipaugenblick/dpdk-1.6.0r2/x86_64-default-linuxapp-gcc/lib/librte_hash.a(rte_fbk_hash.o)
rte_free                                          /home/vadim/projects/ipaugenblick/dpdk-1.6.0r2/x86_64-default-linuxapp-gcc/lib/librte_malloc.a(rte_malloc.o)
                                                  /home/vadim/projects/ipaugenblick/dpdk-1.6.0r2/x86_64-default-linuxapp-gcc/lib/librte_eal.a(eal_alarm.o)
                                                  /home/vadim/projects/ipaugenblick/dpdk-1.6.0r2/x86_64-default-linuxapp-gcc/lib/librte_eal.a(eal_interrupts.o)
                                                  /home/vadim/projects/ipaugenblick/dpdk-1.6.0r2/x86_64-default-linuxapp-gcc/lib/librte_pmd_ring.a(rte_eth_ring.o)
                                                  /home/vadim/projects/ipaugenblick/dpdk-1.6.0r2/x86_64-default-linuxapp-gcc/lib/libethdev.a(rte_ethdev.o)
                                                  /home/vadim/projects/ipaugenblick/dpdk-1.6.0r2/x86_64-default-linuxapp-gcc/lib/librte_lpm.a(rte_lpm6.o)
                                                  /home/vadim/projects/ipaugenblick/dpdk-1.6.0r2/x86_64-default-linuxapp-gcc/lib/librte_lpm.a(rte_lpm.o)
                                                  /home/vadim/projects/ipaugenblick/dpdk-1.6.0r2/x86_64-default-linuxapp-gcc/lib/librte_hash.a(rte_fbk_hash.o)
                                                  /home/vadim/projects/ipaugenblick/dpdk-1.6.0r2/x86_64-default-linuxapp-gcc/lib/librte_hash.a(rte_hash.o)
                                                  /home/vadim/projects/ipaugenblick/dpdk-1.6.0r2/x86_64-default-linuxapp-gcc/lib/librte_pmd_vmxnet3_uio.a(vmxnet3_rxtx.o)
                                                  /home/vadim/projects/ipaugenblick/dpdk-1.6.0r2/x86_64-default-linuxapp-gcc/lib/librte_pmd_virtio_uio.a(virtio_ethdev.o)
                                                  /home/vadim/projects/ipaugenblick/dpdk-1.6.0r2/x86_64-default-linuxapp-gcc/lib/librte_pmd_ixgbe.a(ixgbe_rxtx.o)
                                                  /home/vadim/projects/ipaugenblick/dpdk-1.6.0r2/x86_64-default-linuxapp-gcc/lib/librte_pmd_e1000.a(em_rxtx.o)
                                                  /home/vadim/projects/ipaugenblick/dpdk-1.6.0r2/x86_64-default-linuxapp-gcc/lib/librte_pmd_e1000.a(igb_rxtx.o)
                                                  /home/vadim/projects/ipaugenblick/dpdk-1.6.0r2/x86_64-default-linuxapp-gcc/lib/librte_pmd_e1000.a(igb_ethdev.o)
                                                  testpmd.o
rte_get_tsc_hz                                    /home/vadim/projects/ipaugenblick/dpdk-1.6.0r2/x86_64-default-linuxapp-gcc/lib/librte_eal.a(eal_timer.o)
                                                  /home/vadim/projects/ipaugenblick/dpdk-1.6.0r2/x86_64-default-linuxapp-gcc/lib/librte_sched.a(rte_sched.o)
                                                  /home/vadim/projects/ipaugenblick/dpdk-1.6.0r2/x86_64-default-linuxapp-gcc/lib/librte_meter.a(rte_meter.o)
rte_hash_add_key                                  /home/vadim/projects/ipaugenblick/dpdk-1.6.0r2/x86_64-default-linuxapp-gcc/lib/librte_hash.a(rte_hash.o)
rte_hash_add_key_with_hash                        /home/vadim/projects/ipaugenblick/dpdk-1.6.0r2/x86_64-default-linuxapp-gcc/lib/librte_hash.a(rte_hash.o)
rte_hash_create                                   /home/vadim/projects/ipaugenblick/dpdk-1.6.0r2/x86_64-default-linuxapp-gcc/lib/librte_hash.a(rte_hash.o)
rte_hash_del_key                                  /home/vadim/projects/ipaugenblick/dpdk-1.6.0r2/x86_64-default-linuxapp-gcc/lib/librte_hash.a(rte_hash.o)
rte_hash_del_key_with_hash                        /home/vadim/projects/ipaugenblick/dpdk-1.6.0r2/x86_64-default-linuxapp-gcc/lib/librte_hash.a(rte_hash.o)
rte_hash_find_existing                            /home/vadim/projects/ipaugenblick/dpdk-1.6.0r2/x86_64-default-linuxapp-gcc/lib/librte_hash.a(rte_hash.o)
rte_hash_free                                     /home/vadim/projects/ipaugenblick/dpdk-1.6.0r2/x86_64-default-linuxapp-gcc/lib/librte_hash.a(rte_hash.o)
rte_hash_lookup                                   /home/vadim/projects/ipaugenblick/dpdk-1.6.0r2/x86_64-default-linuxapp-gcc/lib/librte_hash.a(rte_hash.o)
rte_hash_lookup_bulk                              /home/vadim/projects/ipaugenblick/dpdk-1.6.0r2/x86_64-default-linuxapp-gcc/lib/librte_hash.a(rte_hash.o)
rte_hash_lookup_with_hash                         /home/vadim/projects/ipaugenblick/dpdk-1.6.0r2/x86_64-default-linuxapp-gcc/lib/librte_hash.a(rte_hash.o)
rte_hexdump                                       /home/vadim/projects/ipaugenblick/dpdk-1.6.0r2/x86_64-default-linuxapp-gcc/lib/librte_eal.a(eal_common_hexdump.o)
                                                  /home/vadim/projects/ipaugenblick/dpdk-1.6.0r2/x86_64-default-linuxapp-gcc/lib/librte_mbuf.a(rte_mbuf.o)
rte_igb_pmd_init                                  /home/vadim/projects/ipaugenblick/dpdk-1.6.0r2/x86_64-default-linuxapp-gcc/lib/librte_pmd_e1000.a(igb_ethdev.o)
                                                  testpmd.o
rte_igbvf_pmd_init                                /home/vadim/projects/ipaugenblick/dpdk-1.6.0r2/x86_64-default-linuxapp-gcc/lib/librte_pmd_e1000.a(igb_ethdev.o)
                                                  testpmd.o
rte_intr_callback_register                        /home/vadim/projects/ipaugenblick/dpdk-1.6.0r2/x86_64-default-linuxapp-gcc/lib/librte_eal.a(eal_interrupts.o)
                                                  /home/vadim/projects/ipaugenblick/dpdk-1.6.0r2/x86_64-default-linuxapp-gcc/lib/librte_eal.a(eal_alarm.o)
                                                  /home/vadim/projects/ipaugenblick/dpdk-1.6.0r2/x86_64-default-linuxapp-gcc/lib/librte_pmd_ixgbe.a(ixgbe_ethdev.o)
                                                  /home/vadim/projects/ipaugenblick/dpdk-1.6.0r2/x86_64-default-linuxapp-gcc/lib/librte_pmd_e1000.a(em_ethdev.o)
                                                  /home/vadim/projects/ipaugenblick/dpdk-1.6.0r2/x86_64-default-linuxapp-gcc/lib/librte_pmd_e1000.a(igb_ethdev.o)
rte_intr_callback_unregister                      /home/vadim/projects/ipaugenblick/dpdk-1.6.0r2/x86_64-default-linuxapp-gcc/lib/librte_eal.a(eal_interrupts.o)
rte_intr_disable                                  /home/vadim/projects/ipaugenblick/dpdk-1.6.0r2/x86_64-default-linuxapp-gcc/lib/librte_eal.a(eal_interrupts.o)
rte_intr_enable                                   /home/vadim/projects/ipaugenblick/dpdk-1.6.0r2/x86_64-default-linuxapp-gcc/lib/librte_eal.a(eal_interrupts.o)
                                                  /home/vadim/projects/ipaugenblick/dpdk-1.6.0r2/x86_64-default-linuxapp-gcc/lib/librte_pmd_ixgbe.a(ixgbe_ethdev.o)
                                                  /home/vadim/projects/ipaugenblick/dpdk-1.6.0r2/x86_64-default-linuxapp-gcc/lib/librte_pmd_e1000.a(em_ethdev.o)
                                                  /home/vadim/projects/ipaugenblick/dpdk-1.6.0r2/x86_64-default-linuxapp-gcc/lib/librte_pmd_e1000.a(igb_ethdev.o)
rte_ixgbe_pmd_init                                /home/vadim/projects/ipaugenblick/dpdk-1.6.0r2/x86_64-default-linuxapp-gcc/lib/librte_pmd_ixgbe.a(ixgbe_ethdev.o)
                                                  testpmd.o
rte_ixgbevf_pmd_init                              /home/vadim/projects/ipaugenblick/dpdk-1.6.0r2/x86_64-default-linuxapp-gcc/lib/librte_pmd_ixgbe.a(ixgbe_ethdev.o)
                                                  testpmd.o
rte_kni_alloc                                     /home/vadim/projects/ipaugenblick/dpdk-1.6.0r2/x86_64-default-linuxapp-gcc/lib/librte_kni.a(rte_kni.o)
rte_kni_close                                     /home/vadim/projects/ipaugenblick/dpdk-1.6.0r2/x86_64-default-linuxapp-gcc/lib/librte_kni.a(rte_kni.o)
rte_kni_create                                    /home/vadim/projects/ipaugenblick/dpdk-1.6.0r2/x86_64-default-linuxapp-gcc/lib/librte_kni.a(rte_kni.o)
rte_kni_get                                       /home/vadim/projects/ipaugenblick/dpdk-1.6.0r2/x86_64-default-linuxapp-gcc/lib/librte_kni.a(rte_kni.o)
rte_kni_get_port_id                               /home/vadim/projects/ipaugenblick/dpdk-1.6.0r2/x86_64-default-linuxapp-gcc/lib/librte_kni.a(rte_kni.o)
rte_kni_handle_request                            /home/vadim/projects/ipaugenblick/dpdk-1.6.0r2/x86_64-default-linuxapp-gcc/lib/librte_kni.a(rte_kni.o)
rte_kni_info_get                                  /home/vadim/projects/ipaugenblick/dpdk-1.6.0r2/x86_64-default-linuxapp-gcc/lib/librte_kni.a(rte_kni.o)
rte_kni_register_handlers                         /home/vadim/projects/ipaugenblick/dpdk-1.6.0r2/x86_64-default-linuxapp-gcc/lib/librte_kni.a(rte_kni.o)
rte_kni_release                                   /home/vadim/projects/ipaugenblick/dpdk-1.6.0r2/x86_64-default-linuxapp-gcc/lib/librte_kni.a(rte_kni.o)
rte_kni_rx_burst                                  /home/vadim/projects/ipaugenblick/dpdk-1.6.0r2/x86_64-default-linuxapp-gcc/lib/librte_kni.a(rte_kni.o)
rte_kni_tx_burst                                  /home/vadim/projects/ipaugenblick/dpdk-1.6.0r2/x86_64-default-linuxapp-gcc/lib/librte_kni.a(rte_kni.o)
rte_kni_unregister_handlers                       /home/vadim/projects/ipaugenblick/dpdk-1.6.0r2/x86_64-default-linuxapp-gcc/lib/librte_kni.a(rte_kni.o)
rte_kvargs_count                                  /home/vadim/projects/ipaugenblick/dpdk-1.6.0r2/x86_64-default-linuxapp-gcc/lib/librte_kvargs.a(rte_kvargs.o)
rte_kvargs_free                                   /home/vadim/projects/ipaugenblick/dpdk-1.6.0r2/x86_64-default-linuxapp-gcc/lib/librte_kvargs.a(rte_kvargs.o)
rte_kvargs_parse                                  /home/vadim/projects/ipaugenblick/dpdk-1.6.0r2/x86_64-default-linuxapp-gcc/lib/librte_kvargs.a(rte_kvargs.o)
rte_kvargs_process                                /home/vadim/projects/ipaugenblick/dpdk-1.6.0r2/x86_64-default-linuxapp-gcc/lib/librte_kvargs.a(rte_kvargs.o)
rte_log                                           /home/vadim/projects/ipaugenblick/dpdk-1.6.0r2/x86_64-default-linuxapp-gcc/lib/librte_eal.a(eal_common_log.o)
                                                  /home/vadim/projects/ipaugenblick/dpdk-1.6.0r2/x86_64-default-linuxapp-gcc/lib/librte_eal.a(eal_common_devargs.o)
                                                  /home/vadim/projects/ipaugenblick/dpdk-1.6.0r2/x86_64-default-linuxapp-gcc/lib/librte_eal.a(eal_common_tailqs.o)
                                                  /home/vadim/projects/ipaugenblick/dpdk-1.6.0r2/x86_64-default-linuxapp-gcc/lib/librte_eal.a(eal_common_memzone.o)
                                                  /home/vadim/projects/ipaugenblick/dpdk-1.6.0r2/x86_64-default-linuxapp-gcc/lib/librte_eal.a(eal_interrupts.o)
                                                  /home/vadim/projects/ipaugenblick/dpdk-1.6.0r2/x86_64-default-linuxapp-gcc/lib/librte_eal.a(eal_timer.o)
                                                  /home/vadim/projects/ipaugenblick/dpdk-1.6.0r2/x86_64-default-linuxapp-gcc/lib/librte_eal.a(eal_lcore.o)
                                                  /home/vadim/projects/ipaugenblick/dpdk-1.6.0r2/x86_64-default-linuxapp-gcc/lib/librte_eal.a(eal_debug.o)
                                                  /home/vadim/projects/ipaugenblick/dpdk-1.6.0r2/x86_64-default-linuxapp-gcc/lib/librte_eal.a(eal_pci.o)
                                                  /home/vadim/projects/ipaugenblick/dpdk-1.6.0r2/x86_64-default-linuxapp-gcc/lib/librte_eal.a(eal_thread.o)
                                                  /home/vadim/projects/ipaugenblick/dpdk-1.6.0r2/x86_64-default-linuxapp-gcc/lib/librte_eal.a(eal_memory.o)
                                                  /home/vadim/projects/ipaugenblick/dpdk-1.6.0r2/x86_64-default-linuxapp-gcc/lib/librte_eal.a(eal_hugepage_info.o)
                                                  /home/vadim/projects/ipaugenblick/dpdk-1.6.0r2/x86_64-default-linuxapp-gcc/lib/librte_eal.a(eal.o)
                                                  /home/vadim/projects/ipaugenblick/dpdk-1.6.0r2/x86_64-default-linuxapp-gcc/lib/librte_ring.a(rte_ring.o)
                                                  /home/vadim/projects/ipaugenblick/dpdk-1.6.0r2/x86_64-default-linuxapp-gcc/lib/librte_mempool.a(rte_mempool.o)
                                                  /home/vadim/projects/ipaugenblick/dpdk-1.6.0r2/x86_64-default-linuxapp-gcc/lib/librte_pmd_ring.a(rte_eth_ring.o)
                                                  /home/vadim/projects/ipaugenblick/dpdk-1.6.0r2/x86_64-default-linuxapp-gcc/lib/librte_kvargs.a(rte_kvargs.o)
                                                  /home/vadim/projects/ipaugenblick/dpdk-1.6.0r2/x86_64-default-linuxapp-gcc/lib/librte_sched.a(rte_sched.o)
                                                  /home/vadim/projects/ipaugenblick/dpdk-1.6.0r2/x86_64-default-linuxapp-gcc/lib/librte_meter.a(rte_meter.o)
                                                  /home/vadim/projects/ipaugenblick/dpdk-1.6.0r2/x86_64-default-linuxapp-gcc/lib/librte_power.a(rte_power.o)
                                                  /home/vadim/projects/ipaugenblick/dpdk-1.6.0r2/x86_64-default-linuxapp-gcc/lib/librte_lpm.a(rte_lpm6.o)
                                                  /home/vadim/projects/ipaugenblick/dpdk-1.6.0r2/x86_64-default-linuxapp-gcc/lib/librte_lpm.a(rte_lpm.o)
                                                  /home/vadim/projects/ipaugenblick/dpdk-1.6.0r2/x86_64-default-linuxapp-gcc/lib/librte_hash.a(rte_hash.o)
                                                  /home/vadim/projects/ipaugenblick/dpdk-1.6.0r2/x86_64-default-linuxapp-gcc/lib/librte_pmd_virtio_uio.a(virtio_rxtx.o)
                                                  /home/vadim/projects/ipaugenblick/dpdk-1.6.0r2/x86_64-default-linuxapp-gcc/lib/librte_pmd_ixgbe.a(ixgbe_pf.o)
                                                  /home/vadim/projects/ipaugenblick/dpdk-1.6.0r2/x86_64-default-linuxapp-gcc/lib/librte_pmd_ixgbe.a(ixgbe_ethdev.o)
                                                  /home/vadim/projects/ipaugenblick/dpdk-1.6.0r2/x86_64-default-linuxapp-gcc/lib/librte_pmd_ixgbe.a(ixgbe_rxtx.o)
                                                  /home/vadim/projects/ipaugenblick/dpdk-1.6.0r2/x86_64-default-linuxapp-gcc/lib/librte_pmd_e1000.a(em_rxtx.o)
                                                  /home/vadim/projects/ipaugenblick/dpdk-1.6.0r2/x86_64-default-linuxapp-gcc/lib/librte_pmd_e1000.a(igb_pf.o)
                                                  /home/vadim/projects/ipaugenblick/dpdk-1.6.0r2/x86_64-default-linuxapp-gcc/lib/librte_pmd_e1000.a(igb_rxtx.o)
                                                  /home/vadim/projects/ipaugenblick/dpdk-1.6.0r2/x86_64-default-linuxapp-gcc/lib/librte_kni.a(rte_kni.o)
                                                  mempool_anon.o
                                                  testpmd.o
rte_log_add_in_history                            /home/vadim/projects/ipaugenblick/dpdk-1.6.0r2/x86_64-default-linuxapp-gcc/lib/librte_eal.a(eal_common_log.o)
                                                  /home/vadim/projects/ipaugenblick/dpdk-1.6.0r2/x86_64-default-linuxapp-gcc/lib/librte_eal.a(eal_log.o)
rte_log_cur_msg_loglevel                          /home/vadim/projects/ipaugenblick/dpdk-1.6.0r2/x86_64-default-linuxapp-gcc/lib/librte_eal.a(eal_common_log.o)
                                                  /home/vadim/projects/ipaugenblick/dpdk-1.6.0r2/x86_64-default-linuxapp-gcc/lib/librte_eal.a(eal_log.o)
rte_log_cur_msg_logtype                           /home/vadim/projects/ipaugenblick/dpdk-1.6.0r2/x86_64-default-linuxapp-gcc/lib/librte_eal.a(eal_common_log.o)
rte_log_dump_history                              /home/vadim/projects/ipaugenblick/dpdk-1.6.0r2/x86_64-default-linuxapp-gcc/lib/librte_eal.a(eal_common_log.o)
                                                  cmdline.o
rte_log_set_history                               /home/vadim/projects/ipaugenblick/dpdk-1.6.0r2/x86_64-default-linuxapp-gcc/lib/librte_eal.a(eal_common_log.o)
                                                  /home/vadim/projects/ipaugenblick/dpdk-1.6.0r2/x86_64-default-linuxapp-gcc/lib/librte_eal.a(eal_debug.o)
rte_logs                                          /home/vadim/projects/ipaugenblick/dpdk-1.6.0r2/x86_64-default-linuxapp-gcc/lib/librte_eal.a(eal_common_log.o)
                                                  /home/vadim/projects/ipaugenblick/dpdk-1.6.0r2/x86_64-default-linuxapp-gcc/lib/librte_eal.a(eal_common_devargs.o)
                                                  /home/vadim/projects/ipaugenblick/dpdk-1.6.0r2/x86_64-default-linuxapp-gcc/lib/librte_eal.a(eal_common_tailqs.o)
                                                  /home/vadim/projects/ipaugenblick/dpdk-1.6.0r2/x86_64-default-linuxapp-gcc/lib/librte_eal.a(eal_common_memzone.o)
                                                  /home/vadim/projects/ipaugenblick/dpdk-1.6.0r2/x86_64-default-linuxapp-gcc/lib/librte_eal.a(eal_interrupts.o)
                                                  /home/vadim/projects/ipaugenblick/dpdk-1.6.0r2/x86_64-default-linuxapp-gcc/lib/librte_eal.a(eal_timer.o)
                                                  /home/vadim/projects/ipaugenblick/dpdk-1.6.0r2/x86_64-default-linuxapp-gcc/lib/librte_eal.a(eal_lcore.o)
                                                  /home/vadim/projects/ipaugenblick/dpdk-1.6.0r2/x86_64-default-linuxapp-gcc/lib/librte_eal.a(eal_debug.o)
                                                  /home/vadim/projects/ipaugenblick/dpdk-1.6.0r2/x86_64-default-linuxapp-gcc/lib/librte_eal.a(eal_pci.o)
                                                  /home/vadim/projects/ipaugenblick/dpdk-1.6.0r2/x86_64-default-linuxapp-gcc/lib/librte_eal.a(eal_thread.o)
                                                  /home/vadim/projects/ipaugenblick/dpdk-1.6.0r2/x86_64-default-linuxapp-gcc/lib/librte_eal.a(eal_memory.o)
                                                  /home/vadim/projects/ipaugenblick/dpdk-1.6.0r2/x86_64-default-linuxapp-gcc/lib/librte_eal.a(eal_hugepage_info.o)
                                                  /home/vadim/projects/ipaugenblick/dpdk-1.6.0r2/x86_64-default-linuxapp-gcc/lib/librte_eal.a(eal.o)
                                                  /home/vadim/projects/ipaugenblick/dpdk-1.6.0r2/x86_64-default-linuxapp-gcc/lib/librte_ring.a(rte_ring.o)
                                                  /home/vadim/projects/ipaugenblick/dpdk-1.6.0r2/x86_64-default-linuxapp-gcc/lib/librte_mempool.a(rte_mempool.o)
                                                  /home/vadim/projects/ipaugenblick/dpdk-1.6.0r2/x86_64-default-linuxapp-gcc/lib/librte_pmd_ring.a(rte_eth_ring.o)
                                                  /home/vadim/projects/ipaugenblick/dpdk-1.6.0r2/x86_64-default-linuxapp-gcc/lib/librte_kvargs.a(rte_kvargs.o)
                                                  /home/vadim/projects/ipaugenblick/dpdk-1.6.0r2/x86_64-default-linuxapp-gcc/lib/librte_sched.a(rte_sched.o)
                                                  /home/vadim/projects/ipaugenblick/dpdk-1.6.0r2/x86_64-default-linuxapp-gcc/lib/librte_meter.a(rte_meter.o)
                                                  /home/vadim/projects/ipaugenblick/dpdk-1.6.0r2/x86_64-default-linuxapp-gcc/lib/librte_power.a(rte_power.o)
                                                  /home/vadim/projects/ipaugenblick/dpdk-1.6.0r2/x86_64-default-linuxapp-gcc/lib/librte_lpm.a(rte_lpm6.o)
                                                  /home/vadim/projects/ipaugenblick/dpdk-1.6.0r2/x86_64-default-linuxapp-gcc/lib/librte_lpm.a(rte_lpm.o)
                                                  /home/vadim/projects/ipaugenblick/dpdk-1.6.0r2/x86_64-default-linuxapp-gcc/lib/librte_hash.a(rte_hash.o)
                                                  /home/vadim/projects/ipaugenblick/dpdk-1.6.0r2/x86_64-default-linuxapp-gcc/lib/librte_pmd_virtio_uio.a(virtio_rxtx.o)
                                                  /home/vadim/projects/ipaugenblick/dpdk-1.6.0r2/x86_64-default-linuxapp-gcc/lib/librte_pmd_ixgbe.a(ixgbe_pf.o)
                                                  /home/vadim/projects/ipaugenblick/dpdk-1.6.0r2/x86_64-default-linuxapp-gcc/lib/librte_pmd_ixgbe.a(ixgbe_ethdev.o)
                                                  /home/vadim/projects/ipaugenblick/dpdk-1.6.0r2/x86_64-default-linuxapp-gcc/lib/librte_pmd_ixgbe.a(ixgbe_rxtx.o)
                                                  /home/vadim/projects/ipaugenblick/dpdk-1.6.0r2/x86_64-default-linuxapp-gcc/lib/librte_pmd_e1000.a(em_rxtx.o)
                                                  /home/vadim/projects/ipaugenblick/dpdk-1.6.0r2/x86_64-default-linuxapp-gcc/lib/librte_pmd_e1000.a(igb_pf.o)
                                                  /home/vadim/projects/ipaugenblick/dpdk-1.6.0r2/x86_64-default-linuxapp-gcc/lib/librte_pmd_e1000.a(igb_rxtx.o)
                                                  /home/vadim/projects/ipaugenblick/dpdk-1.6.0r2/x86_64-default-linuxapp-gcc/lib/librte_kni.a(rte_kni.o)
                                                  mempool_anon.o
                                                  testpmd.o
rte_lpm6_add                                      /home/vadim/projects/ipaugenblick/dpdk-1.6.0r2/x86_64-default-linuxapp-gcc/lib/librte_lpm.a(rte_lpm6.o)
rte_lpm6_create                                   /home/vadim/projects/ipaugenblick/dpdk-1.6.0r2/x86_64-default-linuxapp-gcc/lib/librte_lpm.a(rte_lpm6.o)
rte_lpm6_delete                                   /home/vadim/projects/ipaugenblick/dpdk-1.6.0r2/x86_64-default-linuxapp-gcc/lib/librte_lpm.a(rte_lpm6.o)
rte_lpm6_delete_all                               /home/vadim/projects/ipaugenblick/dpdk-1.6.0r2/x86_64-default-linuxapp-gcc/lib/librte_lpm.a(rte_lpm6.o)
rte_lpm6_delete_bulk_func                         /home/vadim/projects/ipaugenblick/dpdk-1.6.0r2/x86_64-default-linuxapp-gcc/lib/librte_lpm.a(rte_lpm6.o)
rte_lpm6_find_existing                            /home/vadim/projects/ipaugenblick/dpdk-1.6.0r2/x86_64-default-linuxapp-gcc/lib/librte_lpm.a(rte_lpm6.o)
rte_lpm6_free                                     /home/vadim/projects/ipaugenblick/dpdk-1.6.0r2/x86_64-default-linuxapp-gcc/lib/librte_lpm.a(rte_lpm6.o)
rte_lpm6_lookup                                   /home/vadim/projects/ipaugenblick/dpdk-1.6.0r2/x86_64-default-linuxapp-gcc/lib/librte_lpm.a(rte_lpm6.o)
rte_lpm6_lookup_bulk_func                         /home/vadim/projects/ipaugenblick/dpdk-1.6.0r2/x86_64-default-linuxapp-gcc/lib/librte_lpm.a(rte_lpm6.o)
rte_lpm_add                                       /home/vadim/projects/ipaugenblick/dpdk-1.6.0r2/x86_64-default-linuxapp-gcc/lib/librte_lpm.a(rte_lpm.o)
rte_lpm_create                                    /home/vadim/projects/ipaugenblick/dpdk-1.6.0r2/x86_64-default-linuxapp-gcc/lib/librte_lpm.a(rte_lpm.o)
rte_lpm_delete                                    /home/vadim/projects/ipaugenblick/dpdk-1.6.0r2/x86_64-default-linuxapp-gcc/lib/librte_lpm.a(rte_lpm.o)
rte_lpm_delete_all                                /home/vadim/projects/ipaugenblick/dpdk-1.6.0r2/x86_64-default-linuxapp-gcc/lib/librte_lpm.a(rte_lpm.o)
rte_lpm_find_existing                             /home/vadim/projects/ipaugenblick/dpdk-1.6.0r2/x86_64-default-linuxapp-gcc/lib/librte_lpm.a(rte_lpm.o)
rte_lpm_free                                      /home/vadim/projects/ipaugenblick/dpdk-1.6.0r2/x86_64-default-linuxapp-gcc/lib/librte_lpm.a(rte_lpm.o)
rte_malloc                                        /home/vadim/projects/ipaugenblick/dpdk-1.6.0r2/x86_64-default-linuxapp-gcc/lib/librte_malloc.a(rte_malloc.o)
                                                  /home/vadim/projects/ipaugenblick/dpdk-1.6.0r2/x86_64-default-linuxapp-gcc/lib/librte_eal.a(eal_alarm.o)
rte_malloc_dump_stats                             /home/vadim/projects/ipaugenblick/dpdk-1.6.0r2/x86_64-default-linuxapp-gcc/lib/librte_malloc.a(rte_malloc.o)
rte_malloc_get_socket_stats                       /home/vadim/projects/ipaugenblick/dpdk-1.6.0r2/x86_64-default-linuxapp-gcc/lib/librte_malloc.a(rte_malloc.o)
rte_malloc_set_limit                              /home/vadim/projects/ipaugenblick/dpdk-1.6.0r2/x86_64-default-linuxapp-gcc/lib/librte_malloc.a(rte_malloc.o)
rte_malloc_socket                                 /home/vadim/projects/ipaugenblick/dpdk-1.6.0r2/x86_64-default-linuxapp-gcc/lib/librte_malloc.a(rte_malloc.o)
                                                  /home/vadim/projects/ipaugenblick/dpdk-1.6.0r2/x86_64-default-linuxapp-gcc/lib/librte_hash.a(rte_fbk_hash.o)
rte_malloc_validate                               /home/vadim/projects/ipaugenblick/dpdk-1.6.0r2/x86_64-default-linuxapp-gcc/lib/librte_malloc.a(rte_malloc.o)
rte_malloc_virt2phy                               /home/vadim/projects/ipaugenblick/dpdk-1.6.0r2/x86_64-default-linuxapp-gcc/lib/librte_malloc.a(rte_malloc.o)
rte_mbuf_sanity_check                             /home/vadim/projects/ipaugenblick/dpdk-1.6.0r2/x86_64-default-linuxapp-gcc/lib/librte_mbuf.a(rte_mbuf.o)
rte_mem_lock_page                                 /home/vadim/projects/ipaugenblick/dpdk-1.6.0r2/x86_64-default-linuxapp-gcc/lib/librte_eal.a(eal_memory.o)
rte_mem_virt2phy                                  /home/vadim/projects/ipaugenblick/dpdk-1.6.0r2/x86_64-default-linuxapp-gcc/lib/librte_eal.a(eal_memory.o)
                                                  /home/vadim/projects/ipaugenblick/dpdk-1.6.0r2/x86_64-default-linuxapp-gcc/lib/librte_mbuf.a(rte_mbuf.o)
                                                  /home/vadim/projects/ipaugenblick/dpdk-1.6.0r2/x86_64-default-linuxapp-gcc/lib/librte_sched.a(rte_sched.o)
                                                  /home/vadim/projects/ipaugenblick/dpdk-1.6.0r2/x86_64-default-linuxapp-gcc/lib/librte_pmd_vmxnet3_uio.a(vmxnet3_rxtx.o)
                                                  /home/vadim/projects/ipaugenblick/dpdk-1.6.0r2/x86_64-default-linuxapp-gcc/lib/librte_pmd_virtio_uio.a(virtio_ethdev.o)
                                                  /home/vadim/projects/ipaugenblick/dpdk-1.6.0r2/x86_64-default-linuxapp-gcc/lib/librte_pmd_virtio_uio.a(virtio_rxtx.o)
                                                  /home/vadim/projects/ipaugenblick/dpdk-1.6.0r2/x86_64-default-linuxapp-gcc/lib/librte_pmd_ixgbe.a(ixgbe_rxtx.o)
                                                  /home/vadim/projects/ipaugenblick/dpdk-1.6.0r2/x86_64-default-linuxapp-gcc/lib/librte_pmd_e1000.a(em_rxtx.o)
                                                  /home/vadim/projects/ipaugenblick/dpdk-1.6.0r2/x86_64-default-linuxapp-gcc/lib/librte_pmd_e1000.a(igb_rxtx.o)
                                                  /home/vadim/projects/ipaugenblick/dpdk-1.6.0r2/x86_64-default-linuxapp-gcc/lib/librte_kni.a(rte_kni.o)
                                                  csumonly.o
                                                  txonly.o
                                                  rxonly.o
                                                  macfwd-retry.o
                                                  macfwd.o
                                                  iofwd.o
                                                  testpmd.o
rte_memdump                                       /home/vadim/projects/ipaugenblick/dpdk-1.6.0r2/x86_64-default-linuxapp-gcc/lib/librte_eal.a(eal_common_hexdump.o)
rte_memory_get_nchannel                           /home/vadim/projects/ipaugenblick/dpdk-1.6.0r2/x86_64-default-linuxapp-gcc/lib/librte_eal.a(eal_common_memory.o)
                                                  /home/vadim/projects/ipaugenblick/dpdk-1.6.0r2/x86_64-default-linuxapp-gcc/lib/librte_mempool.a(rte_mempool.o)
rte_memory_get_nrank                              /home/vadim/projects/ipaugenblick/dpdk-1.6.0r2/x86_64-default-linuxapp-gcc/lib/librte_eal.a(eal_common_memory.o)
                                                  /home/vadim/projects/ipaugenblick/dpdk-1.6.0r2/x86_64-default-linuxapp-gcc/lib/librte_mempool.a(rte_mempool.o)
rte_mempool_audit                                 /home/vadim/projects/ipaugenblick/dpdk-1.6.0r2/x86_64-default-linuxapp-gcc/lib/librte_mempool.a(rte_mempool.o)
rte_mempool_calc_obj_size                         /home/vadim/projects/ipaugenblick/dpdk-1.6.0r2/x86_64-default-linuxapp-gcc/lib/librte_mempool.a(rte_mempool.o)
                                                  mempool_anon.o
rte_mempool_count                                 /home/vadim/projects/ipaugenblick/dpdk-1.6.0r2/x86_64-default-linuxapp-gcc/lib/librte_mempool.a(rte_mempool.o)
rte_mempool_create                                /home/vadim/projects/ipaugenblick/dpdk-1.6.0r2/x86_64-default-linuxapp-gcc/lib/librte_mempool.a(rte_mempool.o)
                                                  /home/vadim/projects/ipaugenblick/dpdk-1.6.0r2/x86_64-default-linuxapp-gcc/lib/librte_eal.a(eal_common_log.o)
                                                  testpmd.o
rte_mempool_dump                                  /home/vadim/projects/ipaugenblick/dpdk-1.6.0r2/x86_64-default-linuxapp-gcc/lib/librte_mempool.a(rte_mempool.o)
                                                  cmdline.o
                                                  testpmd.o
rte_mempool_list_dump                             /home/vadim/projects/ipaugenblick/dpdk-1.6.0r2/x86_64-default-linuxapp-gcc/lib/librte_mempool.a(rte_mempool.o)
                                                  cmdline.o
rte_mempool_lookup                                /home/vadim/projects/ipaugenblick/dpdk-1.6.0r2/x86_64-default-linuxapp-gcc/lib/librte_mempool.a(rte_mempool.o)
                                                  /home/vadim/projects/ipaugenblick/dpdk-1.6.0r2/x86_64-default-linuxapp-gcc/lib/librte_eal.a(eal_common_log.o)
                                                  config.o
                                                  cmdline.o
                                                  testpmd.o
rte_mempool_obj_iter                              /home/vadim/projects/ipaugenblick/dpdk-1.6.0r2/x86_64-default-linuxapp-gcc/lib/librte_mempool.a(rte_mempool.o)
rte_mempool_xmem_create                           /home/vadim/projects/ipaugenblick/dpdk-1.6.0r2/x86_64-default-linuxapp-gcc/lib/librte_mempool.a(rte_mempool.o)
                                                  mempool_anon.o
rte_mempool_xmem_size                             /home/vadim/projects/ipaugenblick/dpdk-1.6.0r2/x86_64-default-linuxapp-gcc/lib/librte_mempool.a(rte_mempool.o)
                                                  mempool_anon.o
rte_mempool_xmem_usage                            /home/vadim/projects/ipaugenblick/dpdk-1.6.0r2/x86_64-default-linuxapp-gcc/lib/librte_mempool.a(rte_mempool.o)
                                                  mempool_anon.o
rte_memzone_dump                                  /home/vadim/projects/ipaugenblick/dpdk-1.6.0r2/x86_64-default-linuxapp-gcc/lib/librte_eal.a(eal_common_memzone.o)
                                                  cmdline.o
rte_memzone_lookup                                /home/vadim/projects/ipaugenblick/dpdk-1.6.0r2/x86_64-default-linuxapp-gcc/lib/librte_eal.a(eal_common_memzone.o)
                                                  /home/vadim/projects/ipaugenblick/dpdk-1.6.0r2/x86_64-default-linuxapp-gcc/lib/libethdev.a(rte_ethdev.o)
                                                  /home/vadim/projects/ipaugenblick/dpdk-1.6.0r2/x86_64-default-linuxapp-gcc/lib/librte_sched.a(rte_sched.o)
                                                  /home/vadim/projects/ipaugenblick/dpdk-1.6.0r2/x86_64-default-linuxapp-gcc/lib/librte_pmd_vmxnet3_uio.a(vmxnet3_ethdev.o)
                                                  /home/vadim/projects/ipaugenblick/dpdk-1.6.0r2/x86_64-default-linuxapp-gcc/lib/librte_pmd_vmxnet3_uio.a(vmxnet3_rxtx.o)
                                                  /home/vadim/projects/ipaugenblick/dpdk-1.6.0r2/x86_64-default-linuxapp-gcc/lib/librte_pmd_ixgbe.a(ixgbe_rxtx.o)
                                                  /home/vadim/projects/ipaugenblick/dpdk-1.6.0r2/x86_64-default-linuxapp-gcc/lib/librte_pmd_e1000.a(em_rxtx.o)
                                                  /home/vadim/projects/ipaugenblick/dpdk-1.6.0r2/x86_64-default-linuxapp-gcc/lib/librte_pmd_e1000.a(igb_rxtx.o)
                                                  /home/vadim/projects/ipaugenblick/dpdk-1.6.0r2/x86_64-default-linuxapp-gcc/lib/librte_kni.a(rte_kni.o)
                                                  config.o
rte_memzone_reserve                               /home/vadim/projects/ipaugenblick/dpdk-1.6.0r2/x86_64-default-linuxapp-gcc/lib/librte_eal.a(eal_common_memzone.o)
                                                  /home/vadim/projects/ipaugenblick/dpdk-1.6.0r2/x86_64-default-linuxapp-gcc/lib/librte_ring.a(rte_ring.o)
                                                  /home/vadim/projects/ipaugenblick/dpdk-1.6.0r2/x86_64-default-linuxapp-gcc/lib/librte_mempool.a(rte_mempool.o)
                                                  /home/vadim/projects/ipaugenblick/dpdk-1.6.0r2/x86_64-default-linuxapp-gcc/lib/librte_malloc.a(malloc_heap.o)
                                                  /home/vadim/projects/ipaugenblick/dpdk-1.6.0r2/x86_64-default-linuxapp-gcc/lib/libethdev.a(rte_ethdev.o)
                                                  /home/vadim/projects/ipaugenblick/dpdk-1.6.0r2/x86_64-default-linuxapp-gcc/lib/librte_sched.a(rte_sched.o)
                                                  /home/vadim/projects/ipaugenblick/dpdk-1.6.0r2/x86_64-default-linuxapp-gcc/lib/librte_pmd_e1000.a(em_rxtx.o)
                                                  /home/vadim/projects/ipaugenblick/dpdk-1.6.0r2/x86_64-default-linuxapp-gcc/lib/librte_kni.a(rte_kni.o)
rte_memzone_reserve_aligned                       /home/vadim/projects/ipaugenblick/dpdk-1.6.0r2/x86_64-default-linuxapp-gcc/lib/librte_eal.a(eal_common_memzone.o)
                                                  /home/vadim/projects/ipaugenblick/dpdk-1.6.0r2/x86_64-default-linuxapp-gcc/lib/librte_pmd_vmxnet3_uio.a(vmxnet3_ethdev.o)
                                                  /home/vadim/projects/ipaugenblick/dpdk-1.6.0r2/x86_64-default-linuxapp-gcc/lib/librte_pmd_vmxnet3_uio.a(vmxnet3_rxtx.o)
                                                  /home/vadim/projects/ipaugenblick/dpdk-1.6.0r2/x86_64-default-linuxapp-gcc/lib/librte_pmd_virtio_uio.a(virtio_ethdev.o)
                                                  /home/vadim/projects/ipaugenblick/dpdk-1.6.0r2/x86_64-default-linuxapp-gcc/lib/librte_pmd_ixgbe.a(ixgbe_rxtx.o)
                                                  /home/vadim/projects/ipaugenblick/dpdk-1.6.0r2/x86_64-default-linuxapp-gcc/lib/librte_pmd_e1000.a(igb_rxtx.o)
rte_memzone_reserve_bounded                       /home/vadim/projects/ipaugenblick/dpdk-1.6.0r2/x86_64-default-linuxapp-gcc/lib/librte_eal.a(eal_common_memzone.o)
rte_meter_srtcm_config                            /home/vadim/projects/ipaugenblick/dpdk-1.6.0r2/x86_64-default-linuxapp-gcc/lib/librte_meter.a(rte_meter.o)
rte_meter_trtcm_config                            /home/vadim/projects/ipaugenblick/dpdk-1.6.0r2/x86_64-default-linuxapp-gcc/lib/librte_meter.a(rte_meter.o)
rte_openlog_stream                                /home/vadim/projects/ipaugenblick/dpdk-1.6.0r2/x86_64-default-linuxapp-gcc/lib/librte_eal.a(eal_common_log.o)
                                                  /home/vadim/projects/ipaugenblick/dpdk-1.6.0r2/x86_64-default-linuxapp-gcc/lib/librte_eal.a(eal_log.o)
rte_pktmbuf_dump                                  /home/vadim/projects/ipaugenblick/dpdk-1.6.0r2/x86_64-default-linuxapp-gcc/lib/librte_mbuf.a(rte_mbuf.o)
rte_pktmbuf_init                                  /home/vadim/projects/ipaugenblick/dpdk-1.6.0r2/x86_64-default-linuxapp-gcc/lib/librte_mbuf.a(rte_mbuf.o)
rte_pktmbuf_pool_init                             /home/vadim/projects/ipaugenblick/dpdk-1.6.0r2/x86_64-default-linuxapp-gcc/lib/librte_mbuf.a(rte_mbuf.o)
rte_pmd_ring_devinit                              /home/vadim/projects/ipaugenblick/dpdk-1.6.0r2/x86_64-default-linuxapp-gcc/lib/librte_pmd_ring.a(rte_eth_ring.o)
rte_power_exit                                    /home/vadim/projects/ipaugenblick/dpdk-1.6.0r2/x86_64-default-linuxapp-gcc/lib/librte_power.a(rte_power.o)
rte_power_freq_down                               /home/vadim/projects/ipaugenblick/dpdk-1.6.0r2/x86_64-default-linuxapp-gcc/lib/librte_power.a(rte_power.o)
rte_power_freq_max                                /home/vadim/projects/ipaugenblick/dpdk-1.6.0r2/x86_64-default-linuxapp-gcc/lib/librte_power.a(rte_power.o)
rte_power_freq_min                                /home/vadim/projects/ipaugenblick/dpdk-1.6.0r2/x86_64-default-linuxapp-gcc/lib/librte_power.a(rte_power.o)
rte_power_freq_up                                 /home/vadim/projects/ipaugenblick/dpdk-1.6.0r2/x86_64-default-linuxapp-gcc/lib/librte_power.a(rte_power.o)
rte_power_freqs                                   /home/vadim/projects/ipaugenblick/dpdk-1.6.0r2/x86_64-default-linuxapp-gcc/lib/librte_power.a(rte_power.o)
rte_power_get_freq                                /home/vadim/projects/ipaugenblick/dpdk-1.6.0r2/x86_64-default-linuxapp-gcc/lib/librte_power.a(rte_power.o)
rte_power_init                                    /home/vadim/projects/ipaugenblick/dpdk-1.6.0r2/x86_64-default-linuxapp-gcc/lib/librte_power.a(rte_power.o)
rte_power_set_freq                                /home/vadim/projects/ipaugenblick/dpdk-1.6.0r2/x86_64-default-linuxapp-gcc/lib/librte_power.a(rte_power.o)
rte_realloc                                       /home/vadim/projects/ipaugenblick/dpdk-1.6.0r2/x86_64-default-linuxapp-gcc/lib/librte_malloc.a(rte_malloc.o)
                                                  /home/vadim/projects/ipaugenblick/dpdk-1.6.0r2/x86_64-default-linuxapp-gcc/lib/libethdev.a(rte_ethdev.o)
rte_red_config_init                               /home/vadim/projects/ipaugenblick/dpdk-1.6.0r2/x86_64-default-linuxapp-gcc/lib/librte_sched.a(rte_red.o)
rte_red_log2_1_minus_Wq                           /home/vadim/projects/ipaugenblick/dpdk-1.6.0r2/x86_64-default-linuxapp-gcc/lib/librte_sched.a(rte_red.o)
rte_red_pow2_frac_inv                             /home/vadim/projects/ipaugenblick/dpdk-1.6.0r2/x86_64-default-linuxapp-gcc/lib/librte_sched.a(rte_red.o)
rte_red_rand_seed                                 /home/vadim/projects/ipaugenblick/dpdk-1.6.0r2/x86_64-default-linuxapp-gcc/lib/librte_sched.a(rte_red.o)
rte_red_rand_val                                  /home/vadim/projects/ipaugenblick/dpdk-1.6.0r2/x86_64-default-linuxapp-gcc/lib/librte_sched.a(rte_red.o)
rte_red_rt_data_init                              /home/vadim/projects/ipaugenblick/dpdk-1.6.0r2/x86_64-default-linuxapp-gcc/lib/librte_sched.a(rte_red.o)
rte_ring_create                                   /home/vadim/projects/ipaugenblick/dpdk-1.6.0r2/x86_64-default-linuxapp-gcc/lib/librte_ring.a(rte_ring.o)
                                                  /home/vadim/projects/ipaugenblick/dpdk-1.6.0r2/x86_64-default-linuxapp-gcc/lib/librte_mempool.a(rte_mempool.o)
                                                  /home/vadim/projects/ipaugenblick/dpdk-1.6.0r2/x86_64-default-linuxapp-gcc/lib/librte_pmd_ring.a(rte_eth_ring.o)
rte_ring_dump                                     /home/vadim/projects/ipaugenblick/dpdk-1.6.0r2/x86_64-default-linuxapp-gcc/lib/librte_ring.a(rte_ring.o)
                                                  cmdline.o
rte_ring_list_dump                                /home/vadim/projects/ipaugenblick/dpdk-1.6.0r2/x86_64-default-linuxapp-gcc/lib/librte_ring.a(rte_ring.o)
                                                  cmdline.o
rte_ring_lookup                                   /home/vadim/projects/ipaugenblick/dpdk-1.6.0r2/x86_64-default-linuxapp-gcc/lib/librte_ring.a(rte_ring.o)
                                                  /home/vadim/projects/ipaugenblick/dpdk-1.6.0r2/x86_64-default-linuxapp-gcc/lib/librte_pmd_ring.a(rte_eth_ring.o)
                                                  cmdline.o
rte_ring_set_water_mark                           /home/vadim/projects/ipaugenblick/dpdk-1.6.0r2/x86_64-default-linuxapp-gcc/lib/librte_ring.a(rte_ring.o)
rte_sched_pipe_config                             /home/vadim/projects/ipaugenblick/dpdk-1.6.0r2/x86_64-default-linuxapp-gcc/lib/librte_sched.a(rte_sched.o)
rte_sched_port_config                             /home/vadim/projects/ipaugenblick/dpdk-1.6.0r2/x86_64-default-linuxapp-gcc/lib/librte_sched.a(rte_sched.o)
rte_sched_port_dequeue                            /home/vadim/projects/ipaugenblick/dpdk-1.6.0r2/x86_64-default-linuxapp-gcc/lib/librte_sched.a(rte_sched.o)
rte_sched_port_enqueue                            /home/vadim/projects/ipaugenblick/dpdk-1.6.0r2/x86_64-default-linuxapp-gcc/lib/librte_sched.a(rte_sched.o)
rte_sched_port_free                               /home/vadim/projects/ipaugenblick/dpdk-1.6.0r2/x86_64-default-linuxapp-gcc/lib/librte_sched.a(rte_sched.o)
rte_sched_port_get_memory_footprint               /home/vadim/projects/ipaugenblick/dpdk-1.6.0r2/x86_64-default-linuxapp-gcc/lib/librte_sched.a(rte_sched.o)
rte_sched_queue_read_stats                        /home/vadim/projects/ipaugenblick/dpdk-1.6.0r2/x86_64-default-linuxapp-gcc/lib/librte_sched.a(rte_sched.o)
rte_sched_subport_config                          /home/vadim/projects/ipaugenblick/dpdk-1.6.0r2/x86_64-default-linuxapp-gcc/lib/librte_sched.a(rte_sched.o)
rte_sched_subport_read_stats                      /home/vadim/projects/ipaugenblick/dpdk-1.6.0r2/x86_64-default-linuxapp-gcc/lib/librte_sched.a(rte_sched.o)
rte_set_application_usage_hook                    /home/vadim/projects/ipaugenblick/dpdk-1.6.0r2/x86_64-default-linuxapp-gcc/lib/librte_eal.a(eal.o)
rte_set_log_level                                 /home/vadim/projects/ipaugenblick/dpdk-1.6.0r2/x86_64-default-linuxapp-gcc/lib/librte_eal.a(eal_common_log.o)
rte_set_log_type                                  /home/vadim/projects/ipaugenblick/dpdk-1.6.0r2/x86_64-default-linuxapp-gcc/lib/librte_eal.a(eal_common_log.o)
rte_strerror                                      /home/vadim/projects/ipaugenblick/dpdk-1.6.0r2/x86_64-default-linuxapp-gcc/lib/librte_eal.a(eal_common_errno.o)
rte_tailq_names                                   /home/vadim/projects/ipaugenblick/dpdk-1.6.0r2/x86_64-default-linuxapp-gcc/lib/librte_eal.a(eal_common_tailqs.o)
rte_timer_dump_stats                              /home/vadim/projects/ipaugenblick/dpdk-1.6.0r2/x86_64-default-linuxapp-gcc/lib/librte_timer.a(rte_timer.o)
rte_timer_init                                    /home/vadim/projects/ipaugenblick/dpdk-1.6.0r2/x86_64-default-linuxapp-gcc/lib/librte_timer.a(rte_timer.o)
rte_timer_manage                                  /home/vadim/projects/ipaugenblick/dpdk-1.6.0r2/x86_64-default-linuxapp-gcc/lib/librte_timer.a(rte_timer.o)
rte_timer_pending                                 /home/vadim/projects/ipaugenblick/dpdk-1.6.0r2/x86_64-default-linuxapp-gcc/lib/librte_timer.a(rte_timer.o)
rte_timer_reset                                   /home/vadim/projects/ipaugenblick/dpdk-1.6.0r2/x86_64-default-linuxapp-gcc/lib/librte_timer.a(rte_timer.o)
rte_timer_reset_sync                              /home/vadim/projects/ipaugenblick/dpdk-1.6.0r2/x86_64-default-linuxapp-gcc/lib/librte_timer.a(rte_timer.o)
rte_timer_stop                                    /home/vadim/projects/ipaugenblick/dpdk-1.6.0r2/x86_64-default-linuxapp-gcc/lib/librte_timer.a(rte_timer.o)
rte_timer_stop_sync                               /home/vadim/projects/ipaugenblick/dpdk-1.6.0r2/x86_64-default-linuxapp-gcc/lib/librte_timer.a(rte_timer.o)
rte_timer_subsystem_init                          /home/vadim/projects/ipaugenblick/dpdk-1.6.0r2/x86_64-default-linuxapp-gcc/lib/librte_timer.a(rte_timer.o)
rte_virtio_pmd_init                               /home/vadim/projects/ipaugenblick/dpdk-1.6.0r2/x86_64-default-linuxapp-gcc/lib/librte_pmd_virtio_uio.a(virtio_ethdev.o)
                                                  testpmd.o
rte_vlog                                          /home/vadim/projects/ipaugenblick/dpdk-1.6.0r2/x86_64-default-linuxapp-gcc/lib/librte_eal.a(eal_common_log.o)
                                                  /home/vadim/projects/ipaugenblick/dpdk-1.6.0r2/x86_64-default-linuxapp-gcc/lib/librte_eal.a(eal_debug.o)
rte_vmxnet3_pmd_init                              /home/vadim/projects/ipaugenblick/dpdk-1.6.0r2/x86_64-default-linuxapp-gcc/lib/librte_pmd_vmxnet3_uio.a(vmxnet3_ethdev.o)
                                                  testpmd.o
rte_zmalloc                                       /home/vadim/projects/ipaugenblick/dpdk-1.6.0r2/x86_64-default-linuxapp-gcc/lib/librte_malloc.a(rte_malloc.o)
                                                  /home/vadim/projects/ipaugenblick/dpdk-1.6.0r2/x86_64-default-linuxapp-gcc/lib/librte_eal.a(eal_interrupts.o)
                                                  /home/vadim/projects/ipaugenblick/dpdk-1.6.0r2/x86_64-default-linuxapp-gcc/lib/librte_eal.a(eal_pci.o)
                                                  /home/vadim/projects/ipaugenblick/dpdk-1.6.0r2/x86_64-default-linuxapp-gcc/lib/libethdev.a(rte_ethdev.o)
                                                  /home/vadim/projects/ipaugenblick/dpdk-1.6.0r2/x86_64-default-linuxapp-gcc/lib/librte_pmd_vmxnet3_uio.a(vmxnet3_ethdev.o)
                                                  /home/vadim/projects/ipaugenblick/dpdk-1.6.0r2/x86_64-default-linuxapp-gcc/lib/librte_pmd_vmxnet3_uio.a(vmxnet3_rxtx.o)
                                                  /home/vadim/projects/ipaugenblick/dpdk-1.6.0r2/x86_64-default-linuxapp-gcc/lib/librte_pmd_virtio_uio.a(virtio_ethdev.o)
                                                  /home/vadim/projects/ipaugenblick/dpdk-1.6.0r2/x86_64-default-linuxapp-gcc/lib/librte_pmd_ixgbe.a(ixgbe_pf.o)
                                                  /home/vadim/projects/ipaugenblick/dpdk-1.6.0r2/x86_64-default-linuxapp-gcc/lib/librte_pmd_ixgbe.a(ixgbe_ethdev.o)
                                                  /home/vadim/projects/ipaugenblick/dpdk-1.6.0r2/x86_64-default-linuxapp-gcc/lib/librte_pmd_e1000.a(em_rxtx.o)
                                                  /home/vadim/projects/ipaugenblick/dpdk-1.6.0r2/x86_64-default-linuxapp-gcc/lib/librte_pmd_e1000.a(em_ethdev.o)
                                                  /home/vadim/projects/ipaugenblick/dpdk-1.6.0r2/x86_64-default-linuxapp-gcc/lib/librte_pmd_e1000.a(igb_pf.o)
                                                  /home/vadim/projects/ipaugenblick/dpdk-1.6.0r2/x86_64-default-linuxapp-gcc/lib/librte_pmd_e1000.a(igb_rxtx.o)
                                                  /home/vadim/projects/ipaugenblick/dpdk-1.6.0r2/x86_64-default-linuxapp-gcc/lib/librte_pmd_e1000.a(igb_ethdev.o)
                                                  testpmd.o
rte_zmalloc_socket                                /home/vadim/projects/ipaugenblick/dpdk-1.6.0r2/x86_64-default-linuxapp-gcc/lib/librte_malloc.a(rte_malloc.o)
                                                  /home/vadim/projects/ipaugenblick/dpdk-1.6.0r2/x86_64-default-linuxapp-gcc/lib/librte_pmd_ring.a(rte_eth_ring.o)
                                                  /home/vadim/projects/ipaugenblick/dpdk-1.6.0r2/x86_64-default-linuxapp-gcc/lib/librte_lpm.a(rte_lpm6.o)
                                                  /home/vadim/projects/ipaugenblick/dpdk-1.6.0r2/x86_64-default-linuxapp-gcc/lib/librte_lpm.a(rte_lpm.o)
                                                  /home/vadim/projects/ipaugenblick/dpdk-1.6.0r2/x86_64-default-linuxapp-gcc/lib/librte_hash.a(rte_hash.o)
                                                  /home/vadim/projects/ipaugenblick/dpdk-1.6.0r2/x86_64-default-linuxapp-gcc/lib/librte_pmd_ixgbe.a(ixgbe_rxtx.o)
rx_drop_en                                        testpmd.o
                                                  cmdline.o
                                                  parameters.o
rx_free_thresh                                    testpmd.o
                                                  config.o
                                                  cmdline.o
                                                  parameters.o
rx_mode                                           testpmd.o
                                                  config.o
                                                  cmdline.o
                                                  parameters.o
rx_only_engine                                    rxonly.o
                                                  testpmd.o
rx_queue_stats_mappings                           testpmd.o
                                                  config.o
                                                  parameters.o
rx_queue_stats_mappings_array                     parameters.o
                                                  testpmd.o
rx_ring_desc_display                              config.o
                                                  cmdline.o
rx_thresh                                         testpmd.o
                                                  config.o
                                                  cmdline.o
                                                  parameters.o
rx_vft_set                                        config.o
                                                  cmdline.o
                                                  testpmd.o
rx_vlan_all_filter_set                            config.o
                                                  cmdline.o
rx_vlan_filter_set                                config.o
                                                  cmdline.o
rx_vlan_strip_set                                 config.o
                                                  cmdline.o
rx_vlan_strip_set_on_queue                        config.o
                                                  cmdline.o
rxring_numa                                       csumonly.o
                                                  txonly.o
                                                  rxonly.o
                                                  macfwd-retry.o
                                                  macfwd.o
                                                  iofwd.o
                                                  config.o
                                                  cmdline.o
                                                  parameters.o
                                                  testpmd.o
rxtx_config_display                               config.o
                                                  cmdline.o
                                                  testpmd.o
sbrk                                              /lib/x86_64-linux-gnu/libc.so.6
sbrk@@GLIBC_2.2.5                                 /lib/x86_64-linux-gnu/libc.so.6
sbrk@GLIBC_2.2.5                                  /lib/x86_64-linux-gnu/libc.so.6
scalbn                                            /lib/x86_64-linux-gnu/libc.so.6
scalbn@@GLIBC_2.2.5                               /lib/x86_64-linux-gnu/libc.so.6
scalbn@GLIBC_2.2.5                                /lib/x86_64-linux-gnu/libc.so.6
scalbnf                                           /lib/x86_64-linux-gnu/libc.so.6
scalbnf@@GLIBC_2.2.5                              /lib/x86_64-linux-gnu/libc.so.6
scalbnf@GLIBC_2.2.5                               /lib/x86_64-linux-gnu/libc.so.6
scalbnl                                           /lib/x86_64-linux-gnu/libc.so.6
scalbnl@@GLIBC_2.2.5                              /lib/x86_64-linux-gnu/libc.so.6
scalbnl@GLIBC_2.2.5                               /lib/x86_64-linux-gnu/libc.so.6
scandir64                                         /lib/x86_64-linux-gnu/libc.so.6
scandir64@@GLIBC_2.2.5                            /lib/x86_64-linux-gnu/libc.so.6
scandir64@GLIBC_2.2.5                             /lib/x86_64-linux-gnu/libc.so.6
scandirat64                                       /lib/x86_64-linux-gnu/libc.so.6
scandirat64@@GLIBC_2.15                           /lib/x86_64-linux-gnu/libc.so.6
scandirat64@GLIBC_2.15                            /lib/x86_64-linux-gnu/libc.so.6
sched_get_priority_max                            /lib/x86_64-linux-gnu/libc.so.6
sched_get_priority_max@@GLIBC_2.2.5               /lib/x86_64-linux-gnu/libc.so.6
sched_get_priority_max@GLIBC_2.2.5                /lib/x86_64-linux-gnu/libc.so.6
                                                  /lib/x86_64-linux-gnu/libpthread.so.0
sched_get_priority_min                            /lib/x86_64-linux-gnu/libc.so.6
sched_get_priority_min@@GLIBC_2.2.5               /lib/x86_64-linux-gnu/libc.so.6
sched_get_priority_min@GLIBC_2.2.5                /lib/x86_64-linux-gnu/libc.so.6
                                                  /lib/x86_64-linux-gnu/libpthread.so.0
sched_getparam                                    /lib/x86_64-linux-gnu/libc.so.6
sched_getparam@@GLIBC_2.2.5                       /lib/x86_64-linux-gnu/libc.so.6
sched_getparam@GLIBC_2.2.5                        /lib/x86_64-linux-gnu/libc.so.6
sched_getscheduler                                /lib/x86_64-linux-gnu/libc.so.6
sched_getscheduler@@GLIBC_2.2.5                   /lib/x86_64-linux-gnu/libc.so.6
sched_getscheduler@GLIBC_2.2.5                    /lib/x86_64-linux-gnu/libc.so.6
sched_rr_get_interval                             /lib/x86_64-linux-gnu/libc.so.6
sched_rr_get_interval@@GLIBC_2.2.5                /lib/x86_64-linux-gnu/libc.so.6
sched_rr_get_interval@GLIBC_2.2.5                 /lib/x86_64-linux-gnu/libc.so.6
sched_setparam                                    /lib/x86_64-linux-gnu/libc.so.6
sched_setparam@@GLIBC_2.2.5                       /lib/x86_64-linux-gnu/libc.so.6
sched_setparam@GLIBC_2.2.5                        /lib/x86_64-linux-gnu/libc.so.6
                                                  /lib/x86_64-linux-gnu/libpthread.so.0
sched_setscheduler                                /lib/x86_64-linux-gnu/libc.so.6
sched_setscheduler@@GLIBC_2.2.5                   /lib/x86_64-linux-gnu/libc.so.6
sched_setscheduler@GLIBC_2.2.5                    /lib/x86_64-linux-gnu/libc.so.6
sched_yield                                       /lib/x86_64-linux-gnu/libc.so.6
sched_yield@@GLIBC_2.2.5                          /lib/x86_64-linux-gnu/libc.so.6
sched_yield@GLIBC_2.2.5                           /lib/x86_64-linux-gnu/libc.so.6
                                                  /lib/x86_64-linux-gnu/libpthread.so.0
seed48_r                                          /lib/x86_64-linux-gnu/libc.so.6
seed48_r@@GLIBC_2.2.5                             /lib/x86_64-linux-gnu/libc.so.6
seed48_r@GLIBC_2.2.5                              /lib/x86_64-linux-gnu/libc.so.6
select                                            /lib/x86_64-linux-gnu/libc.so.6
select@@GLIBC_2.2.5                               /lib/x86_64-linux-gnu/libc.so.6
select@GLIBC_2.2.5                                /lib/x86_64-linux-gnu/libc.so.6
semctl                                            /lib/x86_64-linux-gnu/libc.so.6
semctl@@GLIBC_2.2.5                               /lib/x86_64-linux-gnu/libc.so.6
semctl@GLIBC_2.2.5                                /lib/x86_64-linux-gnu/libc.so.6
semget                                            /lib/x86_64-linux-gnu/libc.so.6
semget@@GLIBC_2.2.5                               /lib/x86_64-linux-gnu/libc.so.6
semget@GLIBC_2.2.5                                /lib/x86_64-linux-gnu/libc.so.6
semop                                             /lib/x86_64-linux-gnu/libc.so.6
semop@@GLIBC_2.2.5                                /lib/x86_64-linux-gnu/libc.so.6
semop@GLIBC_2.2.5                                 /lib/x86_64-linux-gnu/libc.so.6
send                                              /lib/x86_64-linux-gnu/libpthread.so.0
send@@GLIBC_2.2.5                                 /lib/x86_64-linux-gnu/libpthread.so.0
                                                  /lib/x86_64-linux-gnu/libc.so.6
send@GLIBC_2.2.5                                  /lib/x86_64-linux-gnu/libpthread.so.0
sendfile64                                        /lib/x86_64-linux-gnu/libc.so.6
sendfile64@@GLIBC_2.3                             /lib/x86_64-linux-gnu/libc.so.6
sendfile64@GLIBC_2.3                              /lib/x86_64-linux-gnu/libc.so.6
sendmsg                                           /lib/x86_64-linux-gnu/libpthread.so.0
sendmsg@@GLIBC_2.2.5                              /lib/x86_64-linux-gnu/libpthread.so.0
                                                  /lib/x86_64-linux-gnu/libc.so.6
sendmsg@GLIBC_2.2.5                               /lib/x86_64-linux-gnu/libpthread.so.0
sendto                                            /lib/x86_64-linux-gnu/libpthread.so.0
sendto@@GLIBC_2.2.5                               /lib/x86_64-linux-gnu/libpthread.so.0
                                                  /lib/x86_64-linux-gnu/libc.so.6
sendto@GLIBC_2.2.5                                /lib/x86_64-linux-gnu/libpthread.so.0
set_def_fwd_config                                testpmd.o
                                                  cmdline.o
set_fwd_lcores_list                               config.o
                                                  cmdline.o
set_fwd_lcores_mask                               config.o
                                                  cmdline.o
                                                  parameters.o
set_fwd_lcores_number                             config.o
                                                  cmdline.o
set_fwd_ports_list                                config.o
                                                  cmdline.o
set_fwd_ports_mask                                config.o
                                                  cmdline.o
                                                  parameters.o
set_fwd_ports_number                              config.o
                                                  cmdline.o
set_nb_pkt_per_burst                              config.o
                                                  cmdline.o
set_pkt_forwarding_mode                           config.o
                                                  cmdline.o
set_qmap                                          config.o
                                                  cmdline.o
set_tx_pkt_segments                               config.o
                                                  cmdline.o
set_verbose_level                                 config.o
                                                  cmdline.o
set_vf_rx_vlan                                    config.o
                                                  cmdline.o
set_vf_traffic                                    config.o
                                                  cmdline.o
setbuf                                            /lib/x86_64-linux-gnu/libc.so.6
                                                  /home/vadim/projects/ipaugenblick/dpdk-1.6.0r2/x86_64-default-linuxapp-gcc/lib/librte_cmdline.a(cmdline_socket.o)
setbuf@@GLIBC_2.2.5                               /lib/x86_64-linux-gnu/libc.so.6
setbuf@GLIBC_2.2.5                                /lib/x86_64-linux-gnu/libc.so.6
setbuffer                                         /lib/x86_64-linux-gnu/libc.so.6
setbuffer@@GLIBC_2.2.5                            /lib/x86_64-linux-gnu/libc.so.6
setbuffer@GLIBC_2.2.5                             /lib/x86_64-linux-gnu/libc.so.6
setcontext                                        /lib/x86_64-linux-gnu/libc.so.6
setcontext@@GLIBC_2.2.5                           /lib/x86_64-linux-gnu/libc.so.6
setcontext@GLIBC_2.2.5                            /lib/x86_64-linux-gnu/libc.so.6
setenv                                            /lib/x86_64-linux-gnu/libc.so.6
setenv@@GLIBC_2.2.5                               /lib/x86_64-linux-gnu/libc.so.6
setenv@GLIBC_2.2.5                                /lib/x86_64-linux-gnu/libc.so.6
setgid                                            /lib/x86_64-linux-gnu/libc.so.6
setgid@@GLIBC_2.2.5                               /lib/x86_64-linux-gnu/libc.so.6
setgid@GLIBC_2.2.5                                /lib/x86_64-linux-gnu/libc.so.6
setitimer                                         /lib/x86_64-linux-gnu/libc.so.6
setitimer@@GLIBC_2.2.5                            /lib/x86_64-linux-gnu/libc.so.6
setitimer@GLIBC_2.2.5                             /lib/x86_64-linux-gnu/libc.so.6
setmntent                                         /lib/x86_64-linux-gnu/libc.so.6
setmntent@@GLIBC_2.2.5                            /lib/x86_64-linux-gnu/libc.so.6
setmntent@GLIBC_2.2.5                             /lib/x86_64-linux-gnu/libc.so.6
setpgid                                           /lib/x86_64-linux-gnu/libc.so.6
setpgid@@GLIBC_2.2.5                              /lib/x86_64-linux-gnu/libc.so.6
setpgid@GLIBC_2.2.5                               /lib/x86_64-linux-gnu/libc.so.6
setregid                                          /lib/x86_64-linux-gnu/libc.so.6
setregid@@GLIBC_2.2.5                             /lib/x86_64-linux-gnu/libc.so.6
setregid@GLIBC_2.2.5                              /lib/x86_64-linux-gnu/libc.so.6
setresgid                                         /lib/x86_64-linux-gnu/libc.so.6
setresgid@@GLIBC_2.2.5                            /lib/x86_64-linux-gnu/libc.so.6
setresgid@GLIBC_2.2.5                             /lib/x86_64-linux-gnu/libc.so.6
setresuid                                         /lib/x86_64-linux-gnu/libc.so.6
setresuid@@GLIBC_2.2.5                            /lib/x86_64-linux-gnu/libc.so.6
setresuid@GLIBC_2.2.5                             /lib/x86_64-linux-gnu/libc.so.6
setreuid                                          /lib/x86_64-linux-gnu/libc.so.6
setreuid@@GLIBC_2.2.5                             /lib/x86_64-linux-gnu/libc.so.6
setreuid@GLIBC_2.2.5                              /lib/x86_64-linux-gnu/libc.so.6
setrlimit                                         /lib/x86_64-linux-gnu/libc.so.6
setrlimit64                                       /lib/x86_64-linux-gnu/libc.so.6
setrlimit64@@GLIBC_2.2.5                          /lib/x86_64-linux-gnu/libc.so.6
setrlimit64@GLIBC_2.2.5                           /lib/x86_64-linux-gnu/libc.so.6
setrlimit@@GLIBC_2.2.5                            /lib/x86_64-linux-gnu/libc.so.6
setrlimit@GLIBC_2.2.5                             /lib/x86_64-linux-gnu/libc.so.6
setsid                                            /lib/x86_64-linux-gnu/libc.so.6
setsid@@GLIBC_2.2.5                               /lib/x86_64-linux-gnu/libc.so.6
setsid@GLIBC_2.2.5                                /lib/x86_64-linux-gnu/libc.so.6
setsockopt                                        /lib/x86_64-linux-gnu/libc.so.6
setsockopt@@GLIBC_2.2.5                           /lib/x86_64-linux-gnu/libc.so.6
setsockopt@GLIBC_2.2.5                            /lib/x86_64-linux-gnu/libc.so.6
setstate                                          /lib/x86_64-linux-gnu/libc.so.6
setstate@@GLIBC_2.2.5                             /lib/x86_64-linux-gnu/libc.so.6
setstate@GLIBC_2.2.5                              /lib/x86_64-linux-gnu/libc.so.6
setstate_r                                        /lib/x86_64-linux-gnu/libc.so.6
setstate_r@@GLIBC_2.2.5                           /lib/x86_64-linux-gnu/libc.so.6
setstate_r@GLIBC_2.2.5                            /lib/x86_64-linux-gnu/libc.so.6
settimeofday                                      /lib/x86_64-linux-gnu/libc.so.6
settimeofday@@GLIBC_2.2.5                         /lib/x86_64-linux-gnu/libc.so.6
settimeofday@GLIBC_2.2.5                          /lib/x86_64-linux-gnu/libc.so.6
setuid                                            /lib/x86_64-linux-gnu/libc.so.6
setuid@@GLIBC_2.2.5                               /lib/x86_64-linux-gnu/libc.so.6
setuid@GLIBC_2.2.5                                /lib/x86_64-linux-gnu/libc.so.6
setutent                                          /lib/x86_64-linux-gnu/libc.so.6
setutent@@GLIBC_2.2.5                             /lib/x86_64-linux-gnu/libc.so.6
setutent@GLIBC_2.2.5                              /lib/x86_64-linux-gnu/libc.so.6
setvbuf                                           /lib/x86_64-linux-gnu/libc.so.6
setvbuf@@GLIBC_2.2.5                              /lib/x86_64-linux-gnu/libc.so.6
setvbuf@GLIBC_2.2.5                               /lib/x86_64-linux-gnu/libc.so.6
sgetsgent_r                                       /lib/x86_64-linux-gnu/libc.so.6
sgetsgent_r@@GLIBC_2.10                           /lib/x86_64-linux-gnu/libc.so.6
sgetsgent_r@GLIBC_2.10                            /lib/x86_64-linux-gnu/libc.so.6
sgetspent_r                                       /lib/x86_64-linux-gnu/libc.so.6
sgetspent_r@@GLIBC_2.2.5                          /lib/x86_64-linux-gnu/libc.so.6
sgetspent_r@GLIBC_2.2.5                           /lib/x86_64-linux-gnu/libc.so.6
shmat                                             /lib/x86_64-linux-gnu/libc.so.6
shmat@@GLIBC_2.2.5                                /lib/x86_64-linux-gnu/libc.so.6
shmat@GLIBC_2.2.5                                 /lib/x86_64-linux-gnu/libc.so.6
shmctl                                            /lib/x86_64-linux-gnu/libc.so.6
shmctl@@GLIBC_2.2.5                               /lib/x86_64-linux-gnu/libc.so.6
shmctl@GLIBC_2.2.5                                /lib/x86_64-linux-gnu/libc.so.6
shmdt                                             /lib/x86_64-linux-gnu/libc.so.6
shmdt@@GLIBC_2.2.5                                /lib/x86_64-linux-gnu/libc.so.6
shmdt@GLIBC_2.2.5                                 /lib/x86_64-linux-gnu/libc.so.6
shmget                                            /lib/x86_64-linux-gnu/libc.so.6
shmget@@GLIBC_2.2.5                               /lib/x86_64-linux-gnu/libc.so.6
shmget@GLIBC_2.2.5                                /lib/x86_64-linux-gnu/libc.so.6
shutdown                                          /lib/x86_64-linux-gnu/libc.so.6
shutdown@@GLIBC_2.2.5                             /lib/x86_64-linux-gnu/libc.so.6
shutdown@GLIBC_2.2.5                              /lib/x86_64-linux-gnu/libc.so.6
sigaction                                         /lib/x86_64-linux-gnu/libpthread.so.0
sigaction@@GLIBC_2.2.5                            /lib/x86_64-linux-gnu/libpthread.so.0
                                                  /lib/x86_64-linux-gnu/libc.so.6
sigaction@GLIBC_2.2.5                             /lib/x86_64-linux-gnu/libpthread.so.0
sigaltstack                                       /lib/x86_64-linux-gnu/libc.so.6
sigaltstack@@GLIBC_2.2.5                          /lib/x86_64-linux-gnu/libc.so.6
sigaltstack@GLIBC_2.2.5                           /lib/x86_64-linux-gnu/libc.so.6
sigblock                                          /lib/x86_64-linux-gnu/libc.so.6
sigblock@@GLIBC_2.2.5                             /lib/x86_64-linux-gnu/libc.so.6
sigblock@GLIBC_2.2.5                              /lib/x86_64-linux-gnu/libc.so.6
siglongjmp                                        /lib/x86_64-linux-gnu/libpthread.so.0
siglongjmp@@GLIBC_2.2.5                           /lib/x86_64-linux-gnu/libpthread.so.0
                                                  /lib/x86_64-linux-gnu/libc.so.6
siglongjmp@GLIBC_2.2.5                            /lib/x86_64-linux-gnu/libpthread.so.0
signal                                            /lib/x86_64-linux-gnu/libc.so.6
signal@@GLIBC_2.2.5                               /lib/x86_64-linux-gnu/libc.so.6
signal@GLIBC_2.2.5                                /lib/x86_64-linux-gnu/libc.so.6
sigpause                                          /lib/x86_64-linux-gnu/libc.so.6
sigpause@@GLIBC_2.2.5                             /lib/x86_64-linux-gnu/libc.so.6
sigpause@GLIBC_2.2.5                              /lib/x86_64-linux-gnu/libc.so.6
sigprocmask                                       /lib/x86_64-linux-gnu/libc.so.6
sigprocmask@@GLIBC_2.2.5                          /lib/x86_64-linux-gnu/libc.so.6
sigprocmask@GLIBC_2.2.5                           /lib/x86_64-linux-gnu/libc.so.6
sigqueue                                          /lib/x86_64-linux-gnu/libc.so.6
sigqueue@@GLIBC_2.2.5                             /lib/x86_64-linux-gnu/libc.so.6
sigqueue@GLIBC_2.2.5                              /lib/x86_64-linux-gnu/libc.so.6
sigreturn                                         /lib/x86_64-linux-gnu/libc.so.6
sigreturn@@GLIBC_2.2.5                            /lib/x86_64-linux-gnu/libc.so.6
sigreturn@GLIBC_2.2.5                             /lib/x86_64-linux-gnu/libc.so.6
sigsetmask                                        /lib/x86_64-linux-gnu/libc.so.6
sigsetmask@@GLIBC_2.2.5                           /lib/x86_64-linux-gnu/libc.so.6
sigsetmask@GLIBC_2.2.5                            /lib/x86_64-linux-gnu/libc.so.6
sigsuspend                                        /lib/x86_64-linux-gnu/libc.so.6
sigsuspend@@GLIBC_2.2.5                           /lib/x86_64-linux-gnu/libc.so.6
sigsuspend@GLIBC_2.2.5                            /lib/x86_64-linux-gnu/libc.so.6
sigtimedwait                                      /lib/x86_64-linux-gnu/libc.so.6
sigtimedwait@@GLIBC_2.2.5                         /lib/x86_64-linux-gnu/libc.so.6
sigtimedwait@GLIBC_2.2.5                          /lib/x86_64-linux-gnu/libc.so.6
sigvec                                            /lib/x86_64-linux-gnu/libc.so.6
sigvec@@GLIBC_2.2.5                               /lib/x86_64-linux-gnu/libc.so.6
sigvec@GLIBC_2.2.5                                /lib/x86_64-linux-gnu/libc.so.6
sigwait                                           /lib/x86_64-linux-gnu/libpthread.so.0
sigwait@@GLIBC_2.2.5                              /lib/x86_64-linux-gnu/libpthread.so.0
                                                  /lib/x86_64-linux-gnu/libc.so.6
sigwait@GLIBC_2.2.5                               /lib/x86_64-linux-gnu/libpthread.so.0
sigwaitinfo                                       /lib/x86_64-linux-gnu/libc.so.6
sigwaitinfo@@GLIBC_2.2.5                          /lib/x86_64-linux-gnu/libc.so.6
sigwaitinfo@GLIBC_2.2.5                           /lib/x86_64-linux-gnu/libc.so.6
sleep                                             /lib/x86_64-linux-gnu/libc.so.6
                                                  /home/vadim/projects/ipaugenblick/dpdk-1.6.0r2/x86_64-default-linuxapp-gcc/lib/librte_eal.a(eal_timer.o)
sleep@@GLIBC_2.2.5                                /lib/x86_64-linux-gnu/libc.so.6
sleep@GLIBC_2.2.5                                 /lib/x86_64-linux-gnu/libc.so.6
snprintf                                          /lib/x86_64-linux-gnu/libc.so.6
                                                  /home/vadim/projects/ipaugenblick/dpdk-1.6.0r2/x86_64-default-linuxapp-gcc/lib/librte_eal.a(eal_common_devargs.o)
snprintf@@GLIBC_2.2.5                             /lib/x86_64-linux-gnu/libc.so.6
snprintf@GLIBC_2.2.5                              /lib/x86_64-linux-gnu/libc.so.6
socket                                            /lib/x86_64-linux-gnu/libc.so.6
socket@@GLIBC_2.2.5                               /lib/x86_64-linux-gnu/libc.so.6
socket@GLIBC_2.2.5                                /lib/x86_64-linux-gnu/libc.so.6
                                                  /usr/lib/gcc/x86_64-linux-gnu/4.6/../../../x86_64-linux-gnu/librt.so
socket_num                                        testpmd.o
                                                  parameters.o
socketpair                                        /lib/x86_64-linux-gnu/libc.so.6
socketpair@@GLIBC_2.2.5                           /lib/x86_64-linux-gnu/libc.so.6
socketpair@GLIBC_2.2.5                            /lib/x86_64-linux-gnu/libc.so.6
sprofil                                           /lib/x86_64-linux-gnu/libc.so.6
sprofil@@GLIBC_2.2.5                              /lib/x86_64-linux-gnu/libc.so.6
sprofil@GLIBC_2.2.5                               /lib/x86_64-linux-gnu/libc.so.6
srand                                             /lib/x86_64-linux-gnu/libc.so.6
srand48                                           /lib/x86_64-linux-gnu/libc.so.6
                                                  /home/vadim/projects/ipaugenblick/dpdk-1.6.0r2/x86_64-default-linuxapp-gcc/lib/librte_eal.a(eal.o)
srand48@@GLIBC_2.2.5                              /lib/x86_64-linux-gnu/libc.so.6
srand48@GLIBC_2.2.5                               /lib/x86_64-linux-gnu/libc.so.6
srand48_r                                         /lib/x86_64-linux-gnu/libc.so.6
srand48_r@@GLIBC_2.2.5                            /lib/x86_64-linux-gnu/libc.so.6
srand48_r@GLIBC_2.2.5                             /lib/x86_64-linux-gnu/libc.so.6
srand@@GLIBC_2.2.5                                /lib/x86_64-linux-gnu/libc.so.6
srand@GLIBC_2.2.5                                 /lib/x86_64-linux-gnu/libc.so.6
srandom                                           /lib/x86_64-linux-gnu/libc.so.6
srandom@@GLIBC_2.2.5                              /lib/x86_64-linux-gnu/libc.so.6
srandom@GLIBC_2.2.5                               /lib/x86_64-linux-gnu/libc.so.6
srandom_r                                         /lib/x86_64-linux-gnu/libc.so.6
srandom_r@@GLIBC_2.2.5                            /lib/x86_64-linux-gnu/libc.so.6
srandom_r@GLIBC_2.2.5                             /lib/x86_64-linux-gnu/libc.so.6
ssignal                                           /lib/x86_64-linux-gnu/libc.so.6
ssignal@@GLIBC_2.2.5                              /lib/x86_64-linux-gnu/libc.so.6
ssignal@GLIBC_2.2.5                               /lib/x86_64-linux-gnu/libc.so.6
start_packet_forwarding                           testpmd.o
                                                  cmdline.o
start_port                                        testpmd.o
                                                  cmdline.o
statfs                                            /lib/x86_64-linux-gnu/libc.so.6
statfs64                                          /lib/x86_64-linux-gnu/libc.so.6
statfs64@@GLIBC_2.2.5                             /lib/x86_64-linux-gnu/libc.so.6
statfs64@GLIBC_2.2.5                              /lib/x86_64-linux-gnu/libc.so.6
statfs@@GLIBC_2.2.5                               /lib/x86_64-linux-gnu/libc.so.6
statfs@GLIBC_2.2.5                                /lib/x86_64-linux-gnu/libc.so.6
statvfs64                                         /lib/x86_64-linux-gnu/libc.so.6
statvfs64@@GLIBC_2.2.5                            /lib/x86_64-linux-gnu/libc.so.6
statvfs64@GLIBC_2.2.5                             /lib/x86_64-linux-gnu/libc.so.6
stderr                                            /lib/x86_64-linux-gnu/libc.so.6
                                                  /home/vadim/projects/ipaugenblick/dpdk-1.6.0r2/x86_64-default-linuxapp-gcc/lib/librte_eal.a(eal_common_cpuflags.o)
stderr@@GLIBC_2.2.5                               /lib/x86_64-linux-gnu/libc.so.6
stderr@GLIBC_2.2.5                                /lib/x86_64-linux-gnu/libc.so.6
stdin                                             /lib/x86_64-linux-gnu/libc.so.6
                                                  /home/vadim/projects/ipaugenblick/dpdk-1.6.0r2/x86_64-default-linuxapp-gcc/lib/librte_cmdline.a(cmdline_socket.o)
stdin@@GLIBC_2.2.5                                /lib/x86_64-linux-gnu/libc.so.6
stdin@GLIBC_2.2.5                                 /lib/x86_64-linux-gnu/libc.so.6
stdout                                            /lib/x86_64-linux-gnu/libc.so.6
                                                  /home/vadim/projects/ipaugenblick/dpdk-1.6.0r2/x86_64-default-linuxapp-gcc/lib/librte_eal.a(eal_common_hexdump.o)
                                                  /home/vadim/projects/ipaugenblick/dpdk-1.6.0r2/x86_64-default-linuxapp-gcc/lib/librte_eal.a(eal_common_log.o)
                                                  /home/vadim/projects/ipaugenblick/dpdk-1.6.0r2/x86_64-default-linuxapp-gcc/lib/librte_eal.a(eal_log.o)
                                                  testpmd.o
stdout@@GLIBC_2.2.5                               /lib/x86_64-linux-gnu/libc.so.6
stdout@GLIBC_2.2.5                                /lib/x86_64-linux-gnu/libc.so.6
step                                              /lib/x86_64-linux-gnu/libc.so.6
step@@GLIBC_2.2.5                                 /lib/x86_64-linux-gnu/libc.so.6
step@GLIBC_2.2.5                                  /lib/x86_64-linux-gnu/libc.so.6
stop_packet_forwarding                            testpmd.o
                                                  cmdline.o
stop_port                                         testpmd.o
                                                  cmdline.o
stpcpy                                            /lib/x86_64-linux-gnu/libc.so.6
stpcpy@@GLIBC_2.2.5                               /lib/x86_64-linux-gnu/libc.so.6
stpcpy@GLIBC_2.2.5                                /lib/x86_64-linux-gnu/libc.so.6
stpncpy                                           /lib/x86_64-linux-gnu/libc.so.6
stpncpy@@GLIBC_2.2.5                              /lib/x86_64-linux-gnu/libc.so.6
stpncpy@GLIBC_2.2.5                               /lib/x86_64-linux-gnu/libc.so.6
strcasecmp                                        /lib/x86_64-linux-gnu/libc.so.6
strcasecmp@@GLIBC_2.2.5                           /lib/x86_64-linux-gnu/libc.so.6
strcasecmp@GLIBC_2.2.5                            /lib/x86_64-linux-gnu/libc.so.6
strcasecmp_l                                      /lib/x86_64-linux-gnu/libc.so.6
strcasecmp_l@@GLIBC_2.3                           /lib/x86_64-linux-gnu/libc.so.6
strcasecmp_l@GLIBC_2.3                            /lib/x86_64-linux-gnu/libc.so.6
strcasestr                                        /lib/x86_64-linux-gnu/libc.so.6
strcasestr@@GLIBC_2.2.5                           /lib/x86_64-linux-gnu/libc.so.6
strcasestr@GLIBC_2.2.5                            /lib/x86_64-linux-gnu/libc.so.6
strchr                                            /lib/x86_64-linux-gnu/libc.so.6
                                                  /home/vadim/projects/ipaugenblick/dpdk-1.6.0r2/x86_64-default-linuxapp-gcc/lib/librte_cmdline.a(cmdline_parse_portlist.o)
                                                  /home/vadim/projects/ipaugenblick/dpdk-1.6.0r2/x86_64-default-linuxapp-gcc/lib/librte_cmdline.a(cmdline_parse_ipaddr.o)
                                                  /home/vadim/projects/ipaugenblick/dpdk-1.6.0r2/x86_64-default-linuxapp-gcc/lib/librte_eal.a(eal_common_devargs.o)
                                                  /home/vadim/projects/ipaugenblick/dpdk-1.6.0r2/x86_64-default-linuxapp-gcc/lib/librte_eal.a(eal_pci.o)
                                                  /home/vadim/projects/ipaugenblick/dpdk-1.6.0r2/x86_64-default-linuxapp-gcc/lib/librte_eal.a(eal_memory.o)
                                                  /home/vadim/projects/ipaugenblick/dpdk-1.6.0r2/x86_64-default-linuxapp-gcc/lib/librte_power.a(rte_power.o)
                                                  cmdline.o
                                                  parameters.o
strchr@@GLIBC_2.2.5                               /lib/x86_64-linux-gnu/libc.so.6
strchr@GLIBC_2.2.5                                /lib/x86_64-linux-gnu/libc.so.6
strchrnul                                         /lib/x86_64-linux-gnu/libc.so.6
strchrnul@@GLIBC_2.2.5                            /lib/x86_64-linux-gnu/libc.so.6
strchrnul@GLIBC_2.2.5                             /lib/x86_64-linux-gnu/libc.so.6
strcmp                                            /lib/x86_64-linux-gnu/libc.so.6
                                                  /home/vadim/projects/ipaugenblick/dpdk-1.6.0r2/x86_64-default-linuxapp-gcc/lib/librte_eal.a(eal_hugepage_info.o)
                                                  /home/vadim/projects/ipaugenblick/dpdk-1.6.0r2/x86_64-default-linuxapp-gcc/lib/librte_eal.a(eal.o)
                                                  /home/vadim/projects/ipaugenblick/dpdk-1.6.0r2/x86_64-default-linuxapp-gcc/lib/librte_kvargs.a(rte_kvargs.o)
                                                  config.o
strcmp@@GLIBC_2.2.5                               /lib/x86_64-linux-gnu/libc.so.6
strcmp@GLIBC_2.2.5                                /lib/x86_64-linux-gnu/libc.so.6
                                                  /lib/x86_64-linux-gnu/libpthread.so.0
strcoll_l                                         /lib/x86_64-linux-gnu/libc.so.6
strcoll_l@@GLIBC_2.3                              /lib/x86_64-linux-gnu/libc.so.6
strcoll_l@GLIBC_2.3                               /lib/x86_64-linux-gnu/libc.so.6
strdup                                            /lib/x86_64-linux-gnu/libc.so.6
strdup@@GLIBC_2.2.5                               /lib/x86_64-linux-gnu/libc.so.6
strdup@GLIBC_2.2.5                                /lib/x86_64-linux-gnu/libc.so.6
strerror                                          /lib/x86_64-linux-gnu/libc.so.6
                                                  /home/vadim/projects/ipaugenblick/dpdk-1.6.0r2/x86_64-default-linuxapp-gcc/lib/librte_eal.a(eal_interrupts.o)
                                                  /home/vadim/projects/ipaugenblick/dpdk-1.6.0r2/x86_64-default-linuxapp-gcc/lib/librte_eal.a(eal_pci.o)
                                                  /home/vadim/projects/ipaugenblick/dpdk-1.6.0r2/x86_64-default-linuxapp-gcc/lib/librte_eal.a(eal_memory.o)
                                                  /home/vadim/projects/ipaugenblick/dpdk-1.6.0r2/x86_64-default-linuxapp-gcc/lib/librte_eal.a(eal_hugepage_info.o)
                                                  cmdline.o
strerror@@GLIBC_2.2.5                             /lib/x86_64-linux-gnu/libc.so.6
strerror@GLIBC_2.2.5                              /lib/x86_64-linux-gnu/libc.so.6
                                                  /usr/lib/gcc/x86_64-linux-gnu/4.6/../../../x86_64-linux-gnu/libdl.so
strerror_r                                        /lib/x86_64-linux-gnu/libc.so.6
strerror_r@@GLIBC_2.2.5                           /lib/x86_64-linux-gnu/libc.so.6
strerror_r@GLIBC_2.2.5                            /lib/x86_64-linux-gnu/libc.so.6
strfmon_l                                         /lib/x86_64-linux-gnu/libc.so.6
strfmon_l@@GLIBC_2.3                              /lib/x86_64-linux-gnu/libc.so.6
strfmon_l@GLIBC_2.3                               /lib/x86_64-linux-gnu/libc.so.6
strftime_l                                        /lib/x86_64-linux-gnu/libc.so.6
strftime_l@@GLIBC_2.3                             /lib/x86_64-linux-gnu/libc.so.6
strftime_l@GLIBC_2.3                              /lib/x86_64-linux-gnu/libc.so.6
strlen                                            /lib/x86_64-linux-gnu/libc.so.6
                                                  /home/vadim/projects/ipaugenblick/dpdk-1.6.0r2/x86_64-default-linuxapp-gcc/lib/librte_eal.a(eal_common_vdev.o)
strlen@@GLIBC_2.2.5                               /lib/x86_64-linux-gnu/libc.so.6
strlen@GLIBC_2.2.5                                /lib/x86_64-linux-gnu/libc.so.6
                                                  /lib/x86_64-linux-gnu/libpthread.so.0
                                                  /usr/lib/gcc/x86_64-linux-gnu/4.6/../../../x86_64-linux-gnu/librt.so
strncasecmp                                       /lib/x86_64-linux-gnu/libc.so.6
                                                  /home/vadim/projects/ipaugenblick/dpdk-1.6.0r2/x86_64-default-linuxapp-gcc/lib/librte_eal.a(eal.o)
strncasecmp@@GLIBC_2.2.5                          /lib/x86_64-linux-gnu/libc.so.6
strncasecmp@GLIBC_2.2.5                           /lib/x86_64-linux-gnu/libc.so.6
strncasecmp_l                                     /lib/x86_64-linux-gnu/libc.so.6
strncasecmp_l@@GLIBC_2.3                          /lib/x86_64-linux-gnu/libc.so.6
strncasecmp_l@GLIBC_2.3                           /lib/x86_64-linux-gnu/libc.so.6
strncmp                                           /lib/x86_64-linux-gnu/libc.so.6
                                                  /home/vadim/projects/ipaugenblick/dpdk-1.6.0r2/x86_64-default-linuxapp-gcc/lib/librte_cmdline.a(cmdline_vt100.o)
                                                  /home/vadim/projects/ipaugenblick/dpdk-1.6.0r2/x86_64-default-linuxapp-gcc/lib/librte_cmdline.a(cmdline_parse_string.o)
                                                  /home/vadim/projects/ipaugenblick/dpdk-1.6.0r2/x86_64-default-linuxapp-gcc/lib/librte_cmdline.a(cmdline_parse.o)
                                                  /home/vadim/projects/ipaugenblick/dpdk-1.6.0r2/x86_64-default-linuxapp-gcc/lib/librte_eal.a(eal_common_vdev.o)
                                                  /home/vadim/projects/ipaugenblick/dpdk-1.6.0r2/x86_64-default-linuxapp-gcc/lib/librte_eal.a(eal_common_tailqs.o)
                                                  /home/vadim/projects/ipaugenblick/dpdk-1.6.0r2/x86_64-default-linuxapp-gcc/lib/librte_eal.a(eal_common_memzone.o)
                                                  /home/vadim/projects/ipaugenblick/dpdk-1.6.0r2/x86_64-default-linuxapp-gcc/lib/librte_eal.a(eal_lcore.o)
                                                  /home/vadim/projects/ipaugenblick/dpdk-1.6.0r2/x86_64-default-linuxapp-gcc/lib/librte_eal.a(eal_hugepage_info.o)
                                                  /home/vadim/projects/ipaugenblick/dpdk-1.6.0r2/x86_64-default-linuxapp-gcc/lib/librte_ring.a(rte_ring.o)
                                                  /home/vadim/projects/ipaugenblick/dpdk-1.6.0r2/x86_64-default-linuxapp-gcc/lib/librte_mempool.a(rte_mempool.o)
                                                  /home/vadim/projects/ipaugenblick/dpdk-1.6.0r2/x86_64-default-linuxapp-gcc/lib/librte_power.a(rte_power.o)
                                                  /home/vadim/projects/ipaugenblick/dpdk-1.6.0r2/x86_64-default-linuxapp-gcc/lib/librte_lpm.a(rte_lpm6.o)
                                                  /home/vadim/projects/ipaugenblick/dpdk-1.6.0r2/x86_64-default-linuxapp-gcc/lib/librte_lpm.a(rte_lpm.o)
                                                  /home/vadim/projects/ipaugenblick/dpdk-1.6.0r2/x86_64-default-linuxapp-gcc/lib/librte_hash.a(rte_fbk_hash.o)
                                                  /home/vadim/projects/ipaugenblick/dpdk-1.6.0r2/x86_64-default-linuxapp-gcc/lib/librte_hash.a(rte_hash.o)
strncmp@@GLIBC_2.2.5                              /lib/x86_64-linux-gnu/libc.so.6
strncmp@GLIBC_2.2.5                               /lib/x86_64-linux-gnu/libc.so.6
strncpy                                           /lib/x86_64-linux-gnu/libc.so.6
                                                  /home/vadim/projects/ipaugenblick/dpdk-1.6.0r2/x86_64-default-linuxapp-gcc/lib/librte_eal.a(eal.o)
strncpy@@GLIBC_2.2.5                              /lib/x86_64-linux-gnu/libc.so.6
strncpy@GLIBC_2.2.5                               /lib/x86_64-linux-gnu/libc.so.6
strndup                                           /lib/x86_64-linux-gnu/libc.so.6
strndup@@GLIBC_2.2.5                              /lib/x86_64-linux-gnu/libc.so.6
strndup@GLIBC_2.2.5                               /lib/x86_64-linux-gnu/libc.so.6
strnlen                                           /lib/x86_64-linux-gnu/libc.so.6
                                                  /home/vadim/projects/ipaugenblick/dpdk-1.6.0r2/x86_64-default-linuxapp-gcc/lib/librte_cmdline.a(cmdline_vt100.o)
                                                  /home/vadim/projects/ipaugenblick/dpdk-1.6.0r2/x86_64-default-linuxapp-gcc/lib/librte_cmdline.a(cmdline_rdline.o)
                                                  /home/vadim/projects/ipaugenblick/dpdk-1.6.0r2/x86_64-default-linuxapp-gcc/lib/librte_cmdline.a(cmdline_parse.o)
                                                  /home/vadim/projects/ipaugenblick/dpdk-1.6.0r2/x86_64-default-linuxapp-gcc/lib/librte_cmdline.a(cmdline.o)
                                                  /home/vadim/projects/ipaugenblick/dpdk-1.6.0r2/x86_64-default-linuxapp-gcc/lib/librte_eal.a(eal.o)
                                                  cmdline.o
strnlen@@GLIBC_2.2.5                              /lib/x86_64-linux-gnu/libc.so.6
strnlen@GLIBC_2.2.5                               /lib/x86_64-linux-gnu/libc.so.6
strptime_l                                        /lib/x86_64-linux-gnu/libc.so.6
strptime_l@@GLIBC_2.3.2                           /lib/x86_64-linux-gnu/libc.so.6
strptime_l@GLIBC_2.3.2                            /lib/x86_64-linux-gnu/libc.so.6
strrchr                                           /lib/x86_64-linux-gnu/libc.so.6
                                                  /home/vadim/projects/ipaugenblick/dpdk-1.6.0r2/x86_64-default-linuxapp-gcc/lib/librte_cmdline.a(cmdline_parse_ipaddr.o)
                                                  /home/vadim/projects/ipaugenblick/dpdk-1.6.0r2/x86_64-default-linuxapp-gcc/lib/librte_eal.a(eal.o)
strrchr@@GLIBC_2.2.5                              /lib/x86_64-linux-gnu/libc.so.6
strrchr@GLIBC_2.2.5                               /lib/x86_64-linux-gnu/libc.so.6
strsep                                            /lib/x86_64-linux-gnu/libc.so.6
strsep@@GLIBC_2.2.5                               /lib/x86_64-linux-gnu/libc.so.6
strsep@GLIBC_2.2.5                                /lib/x86_64-linux-gnu/libc.so.6
strstr                                            /lib/x86_64-linux-gnu/libc.so.6
                                                  /home/vadim/projects/ipaugenblick/dpdk-1.6.0r2/x86_64-default-linuxapp-gcc/lib/librte_eal.a(eal_timer.o)
                                                  /home/vadim/projects/ipaugenblick/dpdk-1.6.0r2/x86_64-default-linuxapp-gcc/lib/librte_eal.a(eal_memory.o)
                                                  /home/vadim/projects/ipaugenblick/dpdk-1.6.0r2/x86_64-default-linuxapp-gcc/lib/librte_eal.a(eal_hugepage_info.o)
strstr@@GLIBC_2.2.5                               /lib/x86_64-linux-gnu/libc.so.6
strstr@GLIBC_2.2.5                                /lib/x86_64-linux-gnu/libc.so.6
strtod_l                                          /lib/x86_64-linux-gnu/libc.so.6
strtod_l@@GLIBC_2.3                               /lib/x86_64-linux-gnu/libc.so.6
strtod_l@GLIBC_2.3                                /lib/x86_64-linux-gnu/libc.so.6
strtof_l                                          /lib/x86_64-linux-gnu/libc.so.6
strtof_l@@GLIBC_2.3                               /lib/x86_64-linux-gnu/libc.so.6
strtof_l@GLIBC_2.3                                /lib/x86_64-linux-gnu/libc.so.6
strtok_r                                          /lib/x86_64-linux-gnu/libc.so.6
strtok_r@@GLIBC_2.2.5                             /lib/x86_64-linux-gnu/libc.so.6
strtok_r@GLIBC_2.2.5                              /lib/x86_64-linux-gnu/libc.so.6
strtol                                            /lib/x86_64-linux-gnu/libc.so.6
                                                  /home/vadim/projects/ipaugenblick/dpdk-1.6.0r2/x86_64-default-linuxapp-gcc/lib/librte_cmdline.a(cmdline_parse_ipaddr.o)
                                                  /home/vadim/projects/ipaugenblick/dpdk-1.6.0r2/x86_64-default-linuxapp-gcc/lib/librte_eal.a(eal.o)
                                                  parameters.o
strtol@@GLIBC_2.2.5                               /lib/x86_64-linux-gnu/libc.so.6
strtol@GLIBC_2.2.5                                /lib/x86_64-linux-gnu/libc.so.6
strtol_l                                          /lib/x86_64-linux-gnu/libc.so.6
strtol_l@@GLIBC_2.3                               /lib/x86_64-linux-gnu/libc.so.6
strtol_l@GLIBC_2.3                                /lib/x86_64-linux-gnu/libc.so.6
strtold_l                                         /lib/x86_64-linux-gnu/libc.so.6
strtold_l@@GLIBC_2.3                              /lib/x86_64-linux-gnu/libc.so.6
strtold_l@GLIBC_2.3                               /lib/x86_64-linux-gnu/libc.so.6
strtoll                                           /lib/x86_64-linux-gnu/libc.so.6
strtoll@@GLIBC_2.2.5                              /lib/x86_64-linux-gnu/libc.so.6
strtoll@GLIBC_2.2.5                               /lib/x86_64-linux-gnu/libc.so.6
strtoll_l                                         /lib/x86_64-linux-gnu/libc.so.6
strtoll_l@@GLIBC_2.3.3                            /lib/x86_64-linux-gnu/libc.so.6
strtoll_l@GLIBC_2.3.3                             /lib/x86_64-linux-gnu/libc.so.6
strtoq                                            /lib/x86_64-linux-gnu/libc.so.6
strtoq@@GLIBC_2.2.5                               /lib/x86_64-linux-gnu/libc.so.6
strtoq@GLIBC_2.2.5                                /lib/x86_64-linux-gnu/libc.so.6
strtoul                                           /lib/x86_64-linux-gnu/libc.so.6
                                                  /home/vadim/projects/ipaugenblick/dpdk-1.6.0r2/x86_64-default-linuxapp-gcc/lib/librte_cmdline.a(cmdline_parse_portlist.o)
                                                  /home/vadim/projects/ipaugenblick/dpdk-1.6.0r2/x86_64-default-linuxapp-gcc/lib/librte_cmdline.a(cmdline_parse_etheraddr.o)
                                                  /home/vadim/projects/ipaugenblick/dpdk-1.6.0r2/x86_64-default-linuxapp-gcc/lib/librte_eal.a(eal_common_devargs.o)
                                                  /home/vadim/projects/ipaugenblick/dpdk-1.6.0r2/x86_64-default-linuxapp-gcc/lib/librte_eal.a(eal_lcore.o)
                                                  /home/vadim/projects/ipaugenblick/dpdk-1.6.0r2/x86_64-default-linuxapp-gcc/lib/librte_eal.a(eal_pci.o)
                                                  /home/vadim/projects/ipaugenblick/dpdk-1.6.0r2/x86_64-default-linuxapp-gcc/lib/librte_eal.a(eal_memory.o)
                                                  /home/vadim/projects/ipaugenblick/dpdk-1.6.0r2/x86_64-default-linuxapp-gcc/lib/librte_eal.a(eal.o)
                                                  /home/vadim/projects/ipaugenblick/dpdk-1.6.0r2/x86_64-default-linuxapp-gcc/lib/librte_power.a(rte_power.o)
                                                  cmdline.o
                                                  parameters.o
strtoul@@GLIBC_2.2.5                              /lib/x86_64-linux-gnu/libc.so.6
strtoul@GLIBC_2.2.5                               /lib/x86_64-linux-gnu/libc.so.6
strtoul_l                                         /lib/x86_64-linux-gnu/libc.so.6
strtoul_l@@GLIBC_2.3                              /lib/x86_64-linux-gnu/libc.so.6
strtoul_l@GLIBC_2.3                               /lib/x86_64-linux-gnu/libc.so.6
strtoull                                          /lib/x86_64-linux-gnu/libc.so.6
                                                  /home/vadim/projects/ipaugenblick/dpdk-1.6.0r2/x86_64-default-linuxapp-gcc/lib/librte_eal.a(eal_pci.o)
                                                  /home/vadim/projects/ipaugenblick/dpdk-1.6.0r2/x86_64-default-linuxapp-gcc/lib/librte_eal.a(eal_memory.o)
                                                  /home/vadim/projects/ipaugenblick/dpdk-1.6.0r2/x86_64-default-linuxapp-gcc/lib/librte_eal.a(eal_hugepage_info.o)
                                                  /home/vadim/projects/ipaugenblick/dpdk-1.6.0r2/x86_64-default-linuxapp-gcc/lib/librte_eal.a(eal.o)
                                                  /home/vadim/projects/ipaugenblick/dpdk-1.6.0r2/x86_64-default-linuxapp-gcc/lib/librte_malloc.a(malloc_heap.o)
                                                  cmdline.o
                                                  parameters.o
strtoull@@GLIBC_2.2.5                             /lib/x86_64-linux-gnu/libc.so.6
strtoull@GLIBC_2.2.5                              /lib/x86_64-linux-gnu/libc.so.6
strtoull_l                                        /lib/x86_64-linux-gnu/libc.so.6
strtoull_l@@GLIBC_2.3.3                           /lib/x86_64-linux-gnu/libc.so.6
strtoull_l@GLIBC_2.3.3                            /lib/x86_64-linux-gnu/libc.so.6
strtouq                                           /lib/x86_64-linux-gnu/libc.so.6
strtouq@@GLIBC_2.2.5                              /lib/x86_64-linux-gnu/libc.so.6
strtouq@GLIBC_2.2.5                               /lib/x86_64-linux-gnu/libc.so.6
strverscmp                                        /lib/x86_64-linux-gnu/libc.so.6
strverscmp@@GLIBC_2.2.5                           /lib/x86_64-linux-gnu/libc.so.6
strverscmp@GLIBC_2.2.5                            /lib/x86_64-linux-gnu/libc.so.6
strxfrm_l                                         /lib/x86_64-linux-gnu/libc.so.6
strxfrm_l@@GLIBC_2.3                              /lib/x86_64-linux-gnu/libc.so.6
strxfrm_l@GLIBC_2.3                               /lib/x86_64-linux-gnu/libc.so.6
swapcontext                                       /lib/x86_64-linux-gnu/libc.so.6
swapcontext@@GLIBC_2.2.5                          /lib/x86_64-linux-gnu/libc.so.6
swapcontext@GLIBC_2.2.5                           /lib/x86_64-linux-gnu/libc.so.6
swapoff                                           /lib/x86_64-linux-gnu/libc.so.6
swapoff@@GLIBC_2.2.5                              /lib/x86_64-linux-gnu/libc.so.6
swapoff@GLIBC_2.2.5                               /lib/x86_64-linux-gnu/libc.so.6
swapon                                            /lib/x86_64-linux-gnu/libc.so.6
swapon@@GLIBC_2.2.5                               /lib/x86_64-linux-gnu/libc.so.6
swapon@GLIBC_2.2.5                                /lib/x86_64-linux-gnu/libc.so.6
symlink                                           /lib/x86_64-linux-gnu/libc.so.6
symlink@@GLIBC_2.2.5                              /lib/x86_64-linux-gnu/libc.so.6
symlink@GLIBC_2.2.5                               /lib/x86_64-linux-gnu/libc.so.6
sysconf                                           /lib/x86_64-linux-gnu/libc.so.6
                                                  /home/vadim/projects/ipaugenblick/dpdk-1.6.0r2/x86_64-default-linuxapp-gcc/lib/librte_eal.a(eal_pci.o)
sysconf@@GLIBC_2.2.5                              /lib/x86_64-linux-gnu/libc.so.6
sysconf@GLIBC_2.2.5                               /lib/x86_64-linux-gnu/libc.so.6
sysctl                                            /lib/x86_64-linux-gnu/libc.so.6
sysctl@@GLIBC_2.2.5                               /lib/x86_64-linux-gnu/libc.so.6
sysctl@GLIBC_2.2.5                                /lib/x86_64-linux-gnu/libc.so.6
sysv_signal                                       /lib/x86_64-linux-gnu/libc.so.6
sysv_signal@@GLIBC_2.2.5                          /lib/x86_64-linux-gnu/libc.so.6
sysv_signal@GLIBC_2.2.5                           /lib/x86_64-linux-gnu/libc.so.6
tcdrain                                           /lib/x86_64-linux-gnu/libpthread.so.0
tcdrain@@GLIBC_2.2.5                              /lib/x86_64-linux-gnu/libpthread.so.0
                                                  /lib/x86_64-linux-gnu/libc.so.6
tcdrain@GLIBC_2.2.5                               /lib/x86_64-linux-gnu/libpthread.so.0
tcgetattr                                         /lib/x86_64-linux-gnu/libc.so.6
                                                  /home/vadim/projects/ipaugenblick/dpdk-1.6.0r2/x86_64-default-linuxapp-gcc/lib/librte_cmdline.a(cmdline_socket.o)
tcgetattr@@GLIBC_2.2.5                            /lib/x86_64-linux-gnu/libc.so.6
tcgetattr@GLIBC_2.2.5                             /lib/x86_64-linux-gnu/libc.so.6
tcsetattr                                         /lib/x86_64-linux-gnu/libc.so.6
                                                  /home/vadim/projects/ipaugenblick/dpdk-1.6.0r2/x86_64-default-linuxapp-gcc/lib/librte_cmdline.a(cmdline_socket.o)
tcsetattr@@GLIBC_2.2.5                            /lib/x86_64-linux-gnu/libc.so.6
tcsetattr@GLIBC_2.2.5                             /lib/x86_64-linux-gnu/libc.so.6
tdelete                                           /lib/x86_64-linux-gnu/libc.so.6
tdelete@@GLIBC_2.2.5                              /lib/x86_64-linux-gnu/libc.so.6
tdelete@GLIBC_2.2.5                               /lib/x86_64-linux-gnu/libc.so.6
                                                  /lib/x86_64-linux-gnu/libpthread.so.0
tdestroy                                          /lib/x86_64-linux-gnu/libc.so.6
tdestroy@@GLIBC_2.2.5                             /lib/x86_64-linux-gnu/libc.so.6
tdestroy@GLIBC_2.2.5                              /lib/x86_64-linux-gnu/libc.so.6
textdomain                                        /lib/x86_64-linux-gnu/libc.so.6
textdomain@@GLIBC_2.2.5                           /lib/x86_64-linux-gnu/libc.so.6
textdomain@GLIBC_2.2.5                            /lib/x86_64-linux-gnu/libc.so.6
tfind                                             /lib/x86_64-linux-gnu/libc.so.6
tfind@@GLIBC_2.2.5                                /lib/x86_64-linux-gnu/libc.so.6
tfind@GLIBC_2.2.5                                 /lib/x86_64-linux-gnu/libc.so.6
                                                  /lib/x86_64-linux-gnu/libpthread.so.0
timelocal                                         /lib/x86_64-linux-gnu/libc.so.6
timelocal@@GLIBC_2.2.5                            /lib/x86_64-linux-gnu/libc.so.6
timelocal@GLIBC_2.2.5                             /lib/x86_64-linux-gnu/libc.so.6
timerfd_create                                    /lib/x86_64-linux-gnu/libc.so.6
                                                  /home/vadim/projects/ipaugenblick/dpdk-1.6.0r2/x86_64-default-linuxapp-gcc/lib/librte_eal.a(eal_alarm.o)
timerfd_create@@GLIBC_2.8                         /lib/x86_64-linux-gnu/libc.so.6
timerfd_create@GLIBC_2.8                          /lib/x86_64-linux-gnu/libc.so.6
timerfd_settime                                   /lib/x86_64-linux-gnu/libc.so.6
                                                  /home/vadim/projects/ipaugenblick/dpdk-1.6.0r2/x86_64-default-linuxapp-gcc/lib/librte_eal.a(eal_alarm.o)
timerfd_settime@@GLIBC_2.8                        /lib/x86_64-linux-gnu/libc.so.6
timerfd_settime@GLIBC_2.8                         /lib/x86_64-linux-gnu/libc.so.6
times                                             /lib/x86_64-linux-gnu/libc.so.6
times@@GLIBC_2.2.5                                /lib/x86_64-linux-gnu/libc.so.6
times@GLIBC_2.2.5                                 /lib/x86_64-linux-gnu/libc.so.6
timezone                                          /lib/x86_64-linux-gnu/libc.so.6
timezone@@GLIBC_2.2.5                             /lib/x86_64-linux-gnu/libc.so.6
timezone@GLIBC_2.2.5                              /lib/x86_64-linux-gnu/libc.so.6
tmpfile64                                         /lib/x86_64-linux-gnu/libc.so.6
tmpfile64@@GLIBC_2.2.5                            /lib/x86_64-linux-gnu/libc.so.6
tmpfile64@GLIBC_2.2.5                             /lib/x86_64-linux-gnu/libc.so.6
tolower_l                                         /lib/x86_64-linux-gnu/libc.so.6
tolower_l@@GLIBC_2.3                              /lib/x86_64-linux-gnu/libc.so.6
tolower_l@GLIBC_2.3                               /lib/x86_64-linux-gnu/libc.so.6
toupper_l                                         /lib/x86_64-linux-gnu/libc.so.6
toupper_l@@GLIBC_2.3                              /lib/x86_64-linux-gnu/libc.so.6
toupper_l@GLIBC_2.3                               /lib/x86_64-linux-gnu/libc.so.6
towctrans                                         /lib/x86_64-linux-gnu/libc.so.6
towctrans@@GLIBC_2.2.5                            /lib/x86_64-linux-gnu/libc.so.6
towctrans@GLIBC_2.2.5                             /lib/x86_64-linux-gnu/libc.so.6
towctrans_l                                       /lib/x86_64-linux-gnu/libc.so.6
towctrans_l@@GLIBC_2.3                            /lib/x86_64-linux-gnu/libc.so.6
towctrans_l@GLIBC_2.3                             /lib/x86_64-linux-gnu/libc.so.6
towlower_l                                        /lib/x86_64-linux-gnu/libc.so.6
towlower_l@@GLIBC_2.3                             /lib/x86_64-linux-gnu/libc.so.6
towlower_l@GLIBC_2.3                              /lib/x86_64-linux-gnu/libc.so.6
towupper_l                                        /lib/x86_64-linux-gnu/libc.so.6
towupper_l@@GLIBC_2.3                             /lib/x86_64-linux-gnu/libc.so.6
towupper_l@GLIBC_2.3                              /lib/x86_64-linux-gnu/libc.so.6
truncate64                                        /lib/x86_64-linux-gnu/libc.so.6
truncate64@@GLIBC_2.2.5                           /lib/x86_64-linux-gnu/libc.so.6
truncate64@GLIBC_2.2.5                            /lib/x86_64-linux-gnu/libc.so.6
tsearch                                           /lib/x86_64-linux-gnu/libc.so.6
tsearch@@GLIBC_2.2.5                              /lib/x86_64-linux-gnu/libc.so.6
tsearch@GLIBC_2.2.5                               /lib/x86_64-linux-gnu/libc.so.6
                                                  /lib/x86_64-linux-gnu/libpthread.so.0
ttyname_r                                         /lib/x86_64-linux-gnu/libc.so.6
ttyname_r@@GLIBC_2.2.5                            /lib/x86_64-linux-gnu/libc.so.6
ttyname_r@GLIBC_2.2.5                             /lib/x86_64-linux-gnu/libc.so.6
twalk                                             /lib/x86_64-linux-gnu/libc.so.6
twalk@@GLIBC_2.2.5                                /lib/x86_64-linux-gnu/libc.so.6
twalk@GLIBC_2.2.5                                 /lib/x86_64-linux-gnu/libc.so.6
                                                  /lib/x86_64-linux-gnu/libpthread.so.0
tx_cksum_set                                      config.o
                                                  cmdline.o
tx_free_thresh                                    testpmd.o
                                                  config.o
                                                  cmdline.o
                                                  parameters.o
tx_only_engine                                    txonly.o
                                                  config.o
                                                  testpmd.o
tx_pkt_length                                     testpmd.o
                                                  txonly.o
                                                  config.o
tx_pkt_nb_segs                                    testpmd.o
                                                  txonly.o
                                                  config.o
tx_pkt_seg_lengths                                testpmd.o
                                                  txonly.o
                                                  config.o
tx_queue_stats_mappings                           testpmd.o
                                                  config.o
                                                  parameters.o
tx_queue_stats_mappings_array                     parameters.o
                                                  testpmd.o
tx_ring_desc_display                              config.o
                                                  cmdline.o
tx_rs_thresh                                      testpmd.o
                                                  config.o
                                                  cmdline.o
                                                  parameters.o
tx_thresh                                         testpmd.o
                                                  config.o
                                                  cmdline.o
                                                  parameters.o
tx_vlan_reset                                     config.o
                                                  cmdline.o
tx_vlan_set                                       config.o
                                                  cmdline.o
txq_flags                                         testpmd.o
                                                  config.o
                                                  parameters.o
txring_numa                                       csumonly.o
                                                  txonly.o
                                                  rxonly.o
                                                  macfwd-retry.o
                                                  macfwd.o
                                                  iofwd.o
                                                  config.o
                                                  cmdline.o
                                                  parameters.o
                                                  testpmd.o
tzname                                            /lib/x86_64-linux-gnu/libc.so.6
tzname@@GLIBC_2.2.5                               /lib/x86_64-linux-gnu/libc.so.6
tzname@GLIBC_2.2.5                                /lib/x86_64-linux-gnu/libc.so.6
tzset                                             /lib/x86_64-linux-gnu/libc.so.6
tzset@@GLIBC_2.2.5                                /lib/x86_64-linux-gnu/libc.so.6
tzset@GLIBC_2.2.5                                 /lib/x86_64-linux-gnu/libc.so.6
ulckpwdf                                          /lib/x86_64-linux-gnu/libc.so.6
ulckpwdf@@GLIBC_2.2.5                             /lib/x86_64-linux-gnu/libc.so.6
ulckpwdf@GLIBC_2.2.5                              /lib/x86_64-linux-gnu/libc.so.6
ulimit                                            /lib/x86_64-linux-gnu/libc.so.6
ulimit@@GLIBC_2.2.5                               /lib/x86_64-linux-gnu/libc.so.6
ulimit@GLIBC_2.2.5                                /lib/x86_64-linux-gnu/libc.so.6
umask                                             /lib/x86_64-linux-gnu/libc.so.6
umask@@GLIBC_2.2.5                                /lib/x86_64-linux-gnu/libc.so.6
umask@GLIBC_2.2.5                                 /lib/x86_64-linux-gnu/libc.so.6
umount                                            /lib/x86_64-linux-gnu/libc.so.6
umount2                                           /lib/x86_64-linux-gnu/libc.so.6
umount2@@GLIBC_2.2.5                              /lib/x86_64-linux-gnu/libc.so.6
umount2@GLIBC_2.2.5                               /lib/x86_64-linux-gnu/libc.so.6
umount@@GLIBC_2.2.5                               /lib/x86_64-linux-gnu/libc.so.6
umount@GLIBC_2.2.5                                /lib/x86_64-linux-gnu/libc.so.6
uname                                             /lib/x86_64-linux-gnu/libc.so.6
uname@@GLIBC_2.2.5                                /lib/x86_64-linux-gnu/libc.so.6
uname@GLIBC_2.2.5                                 /lib/x86_64-linux-gnu/libc.so.6
ungetc                                            /lib/x86_64-linux-gnu/libc.so.6
ungetc@@GLIBC_2.2.5                               /lib/x86_64-linux-gnu/libc.so.6
ungetc@GLIBC_2.2.5                                /lib/x86_64-linux-gnu/libc.so.6
unlink                                            /lib/x86_64-linux-gnu/libc.so.6
                                                  /home/vadim/projects/ipaugenblick/dpdk-1.6.0r2/x86_64-default-linuxapp-gcc/lib/librte_eal.a(eal_memory.o)
unlink@@GLIBC_2.2.5                               /lib/x86_64-linux-gnu/libc.so.6
unlink@GLIBC_2.2.5                                /lib/x86_64-linux-gnu/libc.so.6
                                                  /lib/x86_64-linux-gnu/libpthread.so.0
                                                  /usr/lib/gcc/x86_64-linux-gnu/4.6/../../../x86_64-linux-gnu/librt.so
unlinkat                                          /lib/x86_64-linux-gnu/libc.so.6
                                                  /home/vadim/projects/ipaugenblick/dpdk-1.6.0r2/x86_64-default-linuxapp-gcc/lib/librte_eal.a(eal_hugepage_info.o)
unlinkat@@GLIBC_2.4                               /lib/x86_64-linux-gnu/libc.so.6
unlinkat@GLIBC_2.4                                /lib/x86_64-linux-gnu/libc.so.6
unsetenv                                          /lib/x86_64-linux-gnu/libc.so.6
unsetenv@@GLIBC_2.2.5                             /lib/x86_64-linux-gnu/libc.so.6
unsetenv@GLIBC_2.2.5                              /lib/x86_64-linux-gnu/libc.so.6
updwtmp                                           /lib/x86_64-linux-gnu/libc.so.6
updwtmp@@GLIBC_2.2.5                              /lib/x86_64-linux-gnu/libc.so.6
updwtmp@GLIBC_2.2.5                               /lib/x86_64-linux-gnu/libc.so.6
uselocale                                         /lib/x86_64-linux-gnu/libc.so.6
uselocale@@GLIBC_2.3                              /lib/x86_64-linux-gnu/libc.so.6
uselocale@GLIBC_2.3                               /lib/x86_64-linux-gnu/libc.so.6
utimes                                            /lib/x86_64-linux-gnu/libc.so.6
utimes@@GLIBC_2.2.5                               /lib/x86_64-linux-gnu/libc.so.6
utimes@GLIBC_2.2.5                                /lib/x86_64-linux-gnu/libc.so.6
utmpname                                          /lib/x86_64-linux-gnu/libc.so.6
utmpname@@GLIBC_2.2.5                             /lib/x86_64-linux-gnu/libc.so.6
utmpname@GLIBC_2.2.5                              /lib/x86_64-linux-gnu/libc.so.6
valloc                                            /lib/x86_64-linux-gnu/libc.so.6
valloc@@GLIBC_2.2.5                               /lib/x86_64-linux-gnu/libc.so.6
valloc@GLIBC_2.2.5                                /lib/x86_64-linux-gnu/libc.so.6
vasprintf                                         /lib/x86_64-linux-gnu/libc.so.6
vasprintf@@GLIBC_2.2.5                            /lib/x86_64-linux-gnu/libc.so.6
vasprintf@GLIBC_2.2.5                             /lib/x86_64-linux-gnu/libc.so.6
vdprintf                                          /lib/x86_64-linux-gnu/libc.so.6
vdprintf@@GLIBC_2.2.5                             /lib/x86_64-linux-gnu/libc.so.6
vdprintf@GLIBC_2.2.5                              /lib/x86_64-linux-gnu/libc.so.6
verbose_level                                     testpmd.o
                                                  txonly.o
                                                  rxonly.o
                                                  config.o
versionsort64                                     /lib/x86_64-linux-gnu/libc.so.6
versionsort64@@GLIBC_2.2.5                        /lib/x86_64-linux-gnu/libc.so.6
versionsort64@GLIBC_2.2.5                         /lib/x86_64-linux-gnu/libc.so.6
vfork                                             /lib/x86_64-linux-gnu/libpthread.so.0
vfork@@GLIBC_2.2.5                                /lib/x86_64-linux-gnu/libpthread.so.0
                                                  /lib/x86_64-linux-gnu/libc.so.6
vfork@GLIBC_2.2.5                                 /lib/x86_64-linux-gnu/libpthread.so.0
vfscanf                                           /lib/x86_64-linux-gnu/libc.so.6
vfscanf@@GLIBC_2.2.5                              /lib/x86_64-linux-gnu/libc.so.6
vfscanf@GLIBC_2.2.5                               /lib/x86_64-linux-gnu/libc.so.6
vfwprintf                                         /lib/x86_64-linux-gnu/libc.so.6
vfwprintf@@GLIBC_2.2.5                            /lib/x86_64-linux-gnu/libc.so.6
vfwprintf@GLIBC_2.2.5                             /lib/x86_64-linux-gnu/libc.so.6
vfwscanf                                          /lib/x86_64-linux-gnu/libc.so.6
vfwscanf@@GLIBC_2.2.5                             /lib/x86_64-linux-gnu/libc.so.6
vfwscanf@GLIBC_2.2.5                              /lib/x86_64-linux-gnu/libc.so.6
virtio_dev_queue_setup                            /home/vadim/projects/ipaugenblick/dpdk-1.6.0r2/x86_64-default-linuxapp-gcc/lib/librte_pmd_virtio_uio.a(virtio_ethdev.o)
                                                  /home/vadim/projects/ipaugenblick/dpdk-1.6.0r2/x86_64-default-linuxapp-gcc/lib/librte_pmd_virtio_uio.a(virtio_rxtx.o)
virtio_dev_rx_queue_setup                         /home/vadim/projects/ipaugenblick/dpdk-1.6.0r2/x86_64-default-linuxapp-gcc/lib/librte_pmd_virtio_uio.a(virtio_rxtx.o)
                                                  /home/vadim/projects/ipaugenblick/dpdk-1.6.0r2/x86_64-default-linuxapp-gcc/lib/librte_pmd_virtio_uio.a(virtio_ethdev.o)
virtio_dev_rxtx_start                             /home/vadim/projects/ipaugenblick/dpdk-1.6.0r2/x86_64-default-linuxapp-gcc/lib/librte_pmd_virtio_uio.a(virtio_rxtx.o)
                                                  /home/vadim/projects/ipaugenblick/dpdk-1.6.0r2/x86_64-default-linuxapp-gcc/lib/librte_pmd_virtio_uio.a(virtio_ethdev.o)
virtio_dev_tx_queue_setup                         /home/vadim/projects/ipaugenblick/dpdk-1.6.0r2/x86_64-default-linuxapp-gcc/lib/librte_pmd_virtio_uio.a(virtio_rxtx.o)
                                                  /home/vadim/projects/ipaugenblick/dpdk-1.6.0r2/x86_64-default-linuxapp-gcc/lib/librte_pmd_virtio_uio.a(virtio_ethdev.o)
virtio_recv_pkts                                  /home/vadim/projects/ipaugenblick/dpdk-1.6.0r2/x86_64-default-linuxapp-gcc/lib/librte_pmd_virtio_uio.a(virtio_rxtx.o)
                                                  /home/vadim/projects/ipaugenblick/dpdk-1.6.0r2/x86_64-default-linuxapp-gcc/lib/librte_pmd_virtio_uio.a(virtio_ethdev.o)
virtio_xmit_pkts                                  /home/vadim/projects/ipaugenblick/dpdk-1.6.0r2/x86_64-default-linuxapp-gcc/lib/librte_pmd_virtio_uio.a(virtio_rxtx.o)
                                                  /home/vadim/projects/ipaugenblick/dpdk-1.6.0r2/x86_64-default-linuxapp-gcc/lib/librte_pmd_virtio_uio.a(virtio_ethdev.o)
virtqueue_detatch_unused                          /home/vadim/projects/ipaugenblick/dpdk-1.6.0r2/x86_64-default-linuxapp-gcc/lib/librte_pmd_virtio_uio.a(virtqueue.o)
                                                  /home/vadim/projects/ipaugenblick/dpdk-1.6.0r2/x86_64-default-linuxapp-gcc/lib/librte_pmd_virtio_uio.a(virtio_ethdev.o)
virtqueue_disable_intr                            /home/vadim/projects/ipaugenblick/dpdk-1.6.0r2/x86_64-default-linuxapp-gcc/lib/librte_pmd_virtio_uio.a(virtqueue.o)
                                                  /home/vadim/projects/ipaugenblick/dpdk-1.6.0r2/x86_64-default-linuxapp-gcc/lib/librte_pmd_virtio_uio.a(virtio_rxtx.o)
vlan_extend_set                                   config.o
                                                  cmdline.o
vlan_tags                                         testpmd.o
vlan_tpid_set                                     config.o
                                                  cmdline.o
vmxnet3_dev_clear_queues                          /home/vadim/projects/ipaugenblick/dpdk-1.6.0r2/x86_64-default-linuxapp-gcc/lib/librte_pmd_vmxnet3_uio.a(vmxnet3_rxtx.o)
                                                  /home/vadim/projects/ipaugenblick/dpdk-1.6.0r2/x86_64-default-linuxapp-gcc/lib/librte_pmd_vmxnet3_uio.a(vmxnet3_ethdev.o)
vmxnet3_dev_rx_queue_release                      /home/vadim/projects/ipaugenblick/dpdk-1.6.0r2/x86_64-default-linuxapp-gcc/lib/librte_pmd_vmxnet3_uio.a(vmxnet3_rxtx.o)
                                                  /home/vadim/projects/ipaugenblick/dpdk-1.6.0r2/x86_64-default-linuxapp-gcc/lib/librte_pmd_vmxnet3_uio.a(vmxnet3_ethdev.o)
vmxnet3_dev_rx_queue_setup                        /home/vadim/projects/ipaugenblick/dpdk-1.6.0r2/x86_64-default-linuxapp-gcc/lib/librte_pmd_vmxnet3_uio.a(vmxnet3_rxtx.o)
                                                  /home/vadim/projects/ipaugenblick/dpdk-1.6.0r2/x86_64-default-linuxapp-gcc/lib/librte_pmd_vmxnet3_uio.a(vmxnet3_ethdev.o)
vmxnet3_dev_rxtx_init                             /home/vadim/projects/ipaugenblick/dpdk-1.6.0r2/x86_64-default-linuxapp-gcc/lib/librte_pmd_vmxnet3_uio.a(vmxnet3_rxtx.o)
                                                  /home/vadim/projects/ipaugenblick/dpdk-1.6.0r2/x86_64-default-linuxapp-gcc/lib/librte_pmd_vmxnet3_uio.a(vmxnet3_ethdev.o)
vmxnet3_dev_tx_queue_release                      /home/vadim/projects/ipaugenblick/dpdk-1.6.0r2/x86_64-default-linuxapp-gcc/lib/librte_pmd_vmxnet3_uio.a(vmxnet3_rxtx.o)
                                                  /home/vadim/projects/ipaugenblick/dpdk-1.6.0r2/x86_64-default-linuxapp-gcc/lib/librte_pmd_vmxnet3_uio.a(vmxnet3_ethdev.o)
vmxnet3_dev_tx_queue_setup                        /home/vadim/projects/ipaugenblick/dpdk-1.6.0r2/x86_64-default-linuxapp-gcc/lib/librte_pmd_vmxnet3_uio.a(vmxnet3_rxtx.o)
                                                  /home/vadim/projects/ipaugenblick/dpdk-1.6.0r2/x86_64-default-linuxapp-gcc/lib/librte_pmd_vmxnet3_uio.a(vmxnet3_ethdev.o)
vmxnet3_recv_pkts                                 /home/vadim/projects/ipaugenblick/dpdk-1.6.0r2/x86_64-default-linuxapp-gcc/lib/librte_pmd_vmxnet3_uio.a(vmxnet3_rxtx.o)
                                                  /home/vadim/projects/ipaugenblick/dpdk-1.6.0r2/x86_64-default-linuxapp-gcc/lib/librte_pmd_vmxnet3_uio.a(vmxnet3_ethdev.o)
vmxnet3_rss_configure                             /home/vadim/projects/ipaugenblick/dpdk-1.6.0r2/x86_64-default-linuxapp-gcc/lib/librte_pmd_vmxnet3_uio.a(vmxnet3_rxtx.o)
                                                  /home/vadim/projects/ipaugenblick/dpdk-1.6.0r2/x86_64-default-linuxapp-gcc/lib/librte_pmd_vmxnet3_uio.a(vmxnet3_ethdev.o)
vmxnet3_vlan_configure                            /home/vadim/projects/ipaugenblick/dpdk-1.6.0r2/x86_64-default-linuxapp-gcc/lib/librte_pmd_vmxnet3_uio.a(vmxnet3_rxtx.o)
                                                  /home/vadim/projects/ipaugenblick/dpdk-1.6.0r2/x86_64-default-linuxapp-gcc/lib/librte_pmd_vmxnet3_uio.a(vmxnet3_ethdev.o)
vmxnet3_xmit_pkts                                 /home/vadim/projects/ipaugenblick/dpdk-1.6.0r2/x86_64-default-linuxapp-gcc/lib/librte_pmd_vmxnet3_uio.a(vmxnet3_rxtx.o)
                                                  /home/vadim/projects/ipaugenblick/dpdk-1.6.0r2/x86_64-default-linuxapp-gcc/lib/librte_pmd_vmxnet3_uio.a(vmxnet3_ethdev.o)
vscanf                                            /lib/x86_64-linux-gnu/libc.so.6
vscanf@@GLIBC_2.2.5                               /lib/x86_64-linux-gnu/libc.so.6
vscanf@GLIBC_2.2.5                                /lib/x86_64-linux-gnu/libc.so.6
vsnprintf                                         /lib/x86_64-linux-gnu/libc.so.6
vsnprintf@@GLIBC_2.2.5                            /lib/x86_64-linux-gnu/libc.so.6
vsnprintf@GLIBC_2.2.5                             /lib/x86_64-linux-gnu/libc.so.6
vsprintf                                          /lib/x86_64-linux-gnu/libc.so.6
vsprintf@@GLIBC_2.2.5                             /lib/x86_64-linux-gnu/libc.so.6
vsprintf@GLIBC_2.2.5                              /lib/x86_64-linux-gnu/libc.so.6
vsscanf                                           /lib/x86_64-linux-gnu/libc.so.6
vsscanf@@GLIBC_2.2.5                              /lib/x86_64-linux-gnu/libc.so.6
vsscanf@GLIBC_2.2.5                               /lib/x86_64-linux-gnu/libc.so.6
vswprintf                                         /lib/x86_64-linux-gnu/libc.so.6
vswprintf@@GLIBC_2.2.5                            /lib/x86_64-linux-gnu/libc.so.6
vswprintf@GLIBC_2.2.5                             /lib/x86_64-linux-gnu/libc.so.6
vt100_init                                        /home/vadim/projects/ipaugenblick/dpdk-1.6.0r2/x86_64-default-linuxapp-gcc/lib/librte_cmdline.a(cmdline_vt100.o)
                                                  /home/vadim/projects/ipaugenblick/dpdk-1.6.0r2/x86_64-default-linuxapp-gcc/lib/librte_cmdline.a(cmdline_rdline.o)
vt100_parser                                      /home/vadim/projects/ipaugenblick/dpdk-1.6.0r2/x86_64-default-linuxapp-gcc/lib/librte_cmdline.a(cmdline_vt100.o)
                                                  /home/vadim/projects/ipaugenblick/dpdk-1.6.0r2/x86_64-default-linuxapp-gcc/lib/librte_cmdline.a(cmdline_rdline.o)
vtpci_get_status                                  /home/vadim/projects/ipaugenblick/dpdk-1.6.0r2/x86_64-default-linuxapp-gcc/lib/librte_pmd_virtio_uio.a(virtio_pci.o)
vtpci_negotiate_features                          /home/vadim/projects/ipaugenblick/dpdk-1.6.0r2/x86_64-default-linuxapp-gcc/lib/librte_pmd_virtio_uio.a(virtio_pci.o)
                                                  /home/vadim/projects/ipaugenblick/dpdk-1.6.0r2/x86_64-default-linuxapp-gcc/lib/librte_pmd_virtio_uio.a(virtio_ethdev.o)
vtpci_read_dev_config                             /home/vadim/projects/ipaugenblick/dpdk-1.6.0r2/x86_64-default-linuxapp-gcc/lib/librte_pmd_virtio_uio.a(virtio_pci.o)
                                                  /home/vadim/projects/ipaugenblick/dpdk-1.6.0r2/x86_64-default-linuxapp-gcc/lib/librte_pmd_virtio_uio.a(virtio_ethdev.o)
vtpci_reinit_complete                             /home/vadim/projects/ipaugenblick/dpdk-1.6.0r2/x86_64-default-linuxapp-gcc/lib/librte_pmd_virtio_uio.a(virtio_pci.o)
                                                  /home/vadim/projects/ipaugenblick/dpdk-1.6.0r2/x86_64-default-linuxapp-gcc/lib/librte_pmd_virtio_uio.a(virtio_ethdev.o)
vtpci_reset                                       /home/vadim/projects/ipaugenblick/dpdk-1.6.0r2/x86_64-default-linuxapp-gcc/lib/librte_pmd_virtio_uio.a(virtio_pci.o)
                                                  /home/vadim/projects/ipaugenblick/dpdk-1.6.0r2/x86_64-default-linuxapp-gcc/lib/librte_pmd_virtio_uio.a(virtio_ethdev.o)
vtpci_set_status                                  /home/vadim/projects/ipaugenblick/dpdk-1.6.0r2/x86_64-default-linuxapp-gcc/lib/librte_pmd_virtio_uio.a(virtio_pci.o)
                                                  /home/vadim/projects/ipaugenblick/dpdk-1.6.0r2/x86_64-default-linuxapp-gcc/lib/librte_pmd_virtio_uio.a(virtio_ethdev.o)
vtpci_write_dev_config                            /home/vadim/projects/ipaugenblick/dpdk-1.6.0r2/x86_64-default-linuxapp-gcc/lib/librte_pmd_virtio_uio.a(virtio_pci.o)
                                                  /home/vadim/projects/ipaugenblick/dpdk-1.6.0r2/x86_64-default-linuxapp-gcc/lib/librte_pmd_virtio_uio.a(virtio_ethdev.o)
wait                                              /lib/x86_64-linux-gnu/libpthread.so.0
wait3                                             /lib/x86_64-linux-gnu/libc.so.6
wait3@@GLIBC_2.2.5                                /lib/x86_64-linux-gnu/libc.so.6
wait3@GLIBC_2.2.5                                 /lib/x86_64-linux-gnu/libc.so.6
wait4                                             /lib/x86_64-linux-gnu/libc.so.6
wait4@@GLIBC_2.2.5                                /lib/x86_64-linux-gnu/libc.so.6
wait4@GLIBC_2.2.5                                 /lib/x86_64-linux-gnu/libc.so.6
wait@@GLIBC_2.2.5                                 /lib/x86_64-linux-gnu/libpthread.so.0
                                                  /lib/x86_64-linux-gnu/libc.so.6
wait@GLIBC_2.2.5                                  /lib/x86_64-linux-gnu/libpthread.so.0
waitid                                            /lib/x86_64-linux-gnu/libc.so.6
waitid@@GLIBC_2.2.5                               /lib/x86_64-linux-gnu/libc.so.6
waitid@GLIBC_2.2.5                                /lib/x86_64-linux-gnu/libc.so.6
waitpid                                           /lib/x86_64-linux-gnu/libpthread.so.0
waitpid@@GLIBC_2.2.5                              /lib/x86_64-linux-gnu/libpthread.so.0
                                                  /lib/x86_64-linux-gnu/libc.so.6
waitpid@GLIBC_2.2.5                               /lib/x86_64-linux-gnu/libpthread.so.0
wcpcpy                                            /lib/x86_64-linux-gnu/libc.so.6
wcpcpy@@GLIBC_2.2.5                               /lib/x86_64-linux-gnu/libc.so.6
wcpcpy@GLIBC_2.2.5                                /lib/x86_64-linux-gnu/libc.so.6
wcpncpy                                           /lib/x86_64-linux-gnu/libc.so.6
wcpncpy@@GLIBC_2.2.5                              /lib/x86_64-linux-gnu/libc.so.6
wcpncpy@GLIBC_2.2.5                               /lib/x86_64-linux-gnu/libc.so.6
wcrtomb                                           /lib/x86_64-linux-gnu/libc.so.6
wcrtomb@@GLIBC_2.2.5                              /lib/x86_64-linux-gnu/libc.so.6
wcrtomb@GLIBC_2.2.5                               /lib/x86_64-linux-gnu/libc.so.6
wcscasecmp                                        /lib/x86_64-linux-gnu/libc.so.6
wcscasecmp@@GLIBC_2.2.5                           /lib/x86_64-linux-gnu/libc.so.6
wcscasecmp@GLIBC_2.2.5                            /lib/x86_64-linux-gnu/libc.so.6
wcscasecmp_l                                      /lib/x86_64-linux-gnu/libc.so.6
wcscasecmp_l@@GLIBC_2.3                           /lib/x86_64-linux-gnu/libc.so.6
wcscasecmp_l@GLIBC_2.3                            /lib/x86_64-linux-gnu/libc.so.6
wcscat                                            /lib/x86_64-linux-gnu/libc.so.6
wcscat@@GLIBC_2.2.5                               /lib/x86_64-linux-gnu/libc.so.6
wcscat@GLIBC_2.2.5                                /lib/x86_64-linux-gnu/libc.so.6
wcschrnul                                         /lib/x86_64-linux-gnu/libc.so.6
wcschrnul@@GLIBC_2.2.5                            /lib/x86_64-linux-gnu/libc.so.6
wcschrnul@GLIBC_2.2.5                             /lib/x86_64-linux-gnu/libc.so.6
wcscoll                                           /lib/x86_64-linux-gnu/libc.so.6
wcscoll@@GLIBC_2.2.5                              /lib/x86_64-linux-gnu/libc.so.6
wcscoll@GLIBC_2.2.5                               /lib/x86_64-linux-gnu/libc.so.6
wcscoll_l                                         /lib/x86_64-linux-gnu/libc.so.6
wcscoll_l@@GLIBC_2.3                              /lib/x86_64-linux-gnu/libc.so.6
wcscoll_l@GLIBC_2.3                               /lib/x86_64-linux-gnu/libc.so.6
wcsftime_l                                        /lib/x86_64-linux-gnu/libc.so.6
wcsftime_l@@GLIBC_2.3                             /lib/x86_64-linux-gnu/libc.so.6
wcsftime_l@GLIBC_2.3                              /lib/x86_64-linux-gnu/libc.so.6
wcslen                                            /lib/x86_64-linux-gnu/libc.so.6
wcslen@@GLIBC_2.2.5                               /lib/x86_64-linux-gnu/libc.so.6
wcslen@GLIBC_2.2.5                                /lib/x86_64-linux-gnu/libc.so.6
wcsncasecmp                                       /lib/x86_64-linux-gnu/libc.so.6
wcsncasecmp@@GLIBC_2.2.5                          /lib/x86_64-linux-gnu/libc.so.6
wcsncasecmp@GLIBC_2.2.5                           /lib/x86_64-linux-gnu/libc.so.6
wcsncasecmp_l                                     /lib/x86_64-linux-gnu/libc.so.6
wcsncasecmp_l@@GLIBC_2.3                          /lib/x86_64-linux-gnu/libc.so.6
wcsncasecmp_l@GLIBC_2.3                           /lib/x86_64-linux-gnu/libc.so.6
wcsncpy                                           /lib/x86_64-linux-gnu/libc.so.6
wcsncpy@@GLIBC_2.2.5                              /lib/x86_64-linux-gnu/libc.so.6
wcsncpy@GLIBC_2.2.5                               /lib/x86_64-linux-gnu/libc.so.6
wcsnlen                                           /lib/x86_64-linux-gnu/libc.so.6
wcsnlen@@GLIBC_2.2.5                              /lib/x86_64-linux-gnu/libc.so.6
wcsnlen@GLIBC_2.2.5                               /lib/x86_64-linux-gnu/libc.so.6
wcsnrtombs                                        /lib/x86_64-linux-gnu/libc.so.6
wcsnrtombs@@GLIBC_2.2.5                           /lib/x86_64-linux-gnu/libc.so.6
wcsnrtombs@GLIBC_2.2.5                            /lib/x86_64-linux-gnu/libc.so.6
wcsrtombs                                         /lib/x86_64-linux-gnu/libc.so.6
wcsrtombs@@GLIBC_2.2.5                            /lib/x86_64-linux-gnu/libc.so.6
wcsrtombs@GLIBC_2.2.5                             /lib/x86_64-linux-gnu/libc.so.6
wcstod_l                                          /lib/x86_64-linux-gnu/libc.so.6
wcstod_l@@GLIBC_2.3                               /lib/x86_64-linux-gnu/libc.so.6
wcstod_l@GLIBC_2.3                                /lib/x86_64-linux-gnu/libc.so.6
wcstof_l                                          /lib/x86_64-linux-gnu/libc.so.6
wcstof_l@@GLIBC_2.3                               /lib/x86_64-linux-gnu/libc.so.6
wcstof_l@GLIBC_2.3                                /lib/x86_64-linux-gnu/libc.so.6
wcstol_l                                          /lib/x86_64-linux-gnu/libc.so.6
wcstol_l@@GLIBC_2.3                               /lib/x86_64-linux-gnu/libc.so.6
wcstol_l@GLIBC_2.3                                /lib/x86_64-linux-gnu/libc.so.6
wcstold_l                                         /lib/x86_64-linux-gnu/libc.so.6
wcstold_l@@GLIBC_2.3                              /lib/x86_64-linux-gnu/libc.so.6
wcstold_l@GLIBC_2.3                               /lib/x86_64-linux-gnu/libc.so.6
wcstoll                                           /lib/x86_64-linux-gnu/libc.so.6
wcstoll@@GLIBC_2.2.5                              /lib/x86_64-linux-gnu/libc.so.6
wcstoll@GLIBC_2.2.5                               /lib/x86_64-linux-gnu/libc.so.6
wcstoll_l                                         /lib/x86_64-linux-gnu/libc.so.6
wcstoll_l@@GLIBC_2.3                              /lib/x86_64-linux-gnu/libc.so.6
wcstoll_l@GLIBC_2.3                               /lib/x86_64-linux-gnu/libc.so.6
wcstoq                                            /lib/x86_64-linux-gnu/libc.so.6
wcstoq@@GLIBC_2.2.5                               /lib/x86_64-linux-gnu/libc.so.6
wcstoq@GLIBC_2.2.5                                /lib/x86_64-linux-gnu/libc.so.6
wcstoul_l                                         /lib/x86_64-linux-gnu/libc.so.6
wcstoul_l@@GLIBC_2.3                              /lib/x86_64-linux-gnu/libc.so.6
wcstoul_l@GLIBC_2.3                               /lib/x86_64-linux-gnu/libc.so.6
wcstoull                                          /lib/x86_64-linux-gnu/libc.so.6
wcstoull@@GLIBC_2.2.5                             /lib/x86_64-linux-gnu/libc.so.6
wcstoull@GLIBC_2.2.5                              /lib/x86_64-linux-gnu/libc.so.6
wcstoull_l                                        /lib/x86_64-linux-gnu/libc.so.6
wcstoull_l@@GLIBC_2.3                             /lib/x86_64-linux-gnu/libc.so.6
wcstoull_l@GLIBC_2.3                              /lib/x86_64-linux-gnu/libc.so.6
wcstouq                                           /lib/x86_64-linux-gnu/libc.so.6
wcstouq@@GLIBC_2.2.5                              /lib/x86_64-linux-gnu/libc.so.6
wcstouq@GLIBC_2.2.5                               /lib/x86_64-linux-gnu/libc.so.6
wcswcs                                            /lib/x86_64-linux-gnu/libc.so.6
wcswcs@@GLIBC_2.2.5                               /lib/x86_64-linux-gnu/libc.so.6
wcswcs@GLIBC_2.2.5                                /lib/x86_64-linux-gnu/libc.so.6
wcsxfrm_l                                         /lib/x86_64-linux-gnu/libc.so.6
wcsxfrm_l@@GLIBC_2.3                              /lib/x86_64-linux-gnu/libc.so.6
wcsxfrm_l@GLIBC_2.3                               /lib/x86_64-linux-gnu/libc.so.6
wctrans                                           /lib/x86_64-linux-gnu/libc.so.6
wctrans@@GLIBC_2.2.5                              /lib/x86_64-linux-gnu/libc.so.6
wctrans@GLIBC_2.2.5                               /lib/x86_64-linux-gnu/libc.so.6
wctrans_l                                         /lib/x86_64-linux-gnu/libc.so.6
wctrans_l@@GLIBC_2.3                              /lib/x86_64-linux-gnu/libc.so.6
wctrans_l@GLIBC_2.3                               /lib/x86_64-linux-gnu/libc.so.6
wctype                                            /lib/x86_64-linux-gnu/libc.so.6
wctype@@GLIBC_2.2.5                               /lib/x86_64-linux-gnu/libc.so.6
wctype@GLIBC_2.2.5                                /lib/x86_64-linux-gnu/libc.so.6
wctype_l                                          /lib/x86_64-linux-gnu/libc.so.6
wctype_l@@GLIBC_2.3                               /lib/x86_64-linux-gnu/libc.so.6
wctype_l@GLIBC_2.3                                /lib/x86_64-linux-gnu/libc.so.6
wmemcpy                                           /lib/x86_64-linux-gnu/libc.so.6
wmemcpy@@GLIBC_2.2.5                              /lib/x86_64-linux-gnu/libc.so.6
wmemcpy@GLIBC_2.2.5                               /lib/x86_64-linux-gnu/libc.so.6
wmemmove                                          /lib/x86_64-linux-gnu/libc.so.6
wmemmove@@GLIBC_2.2.5                             /lib/x86_64-linux-gnu/libc.so.6
wmemmove@GLIBC_2.2.5                              /lib/x86_64-linux-gnu/libc.so.6
wmempcpy                                          /lib/x86_64-linux-gnu/libc.so.6
wmempcpy@@GLIBC_2.2.5                             /lib/x86_64-linux-gnu/libc.so.6
wmempcpy@GLIBC_2.2.5                              /lib/x86_64-linux-gnu/libc.so.6
write                                             /lib/x86_64-linux-gnu/libpthread.so.0
                                                  /home/vadim/projects/ipaugenblick/dpdk-1.6.0r2/x86_64-default-linuxapp-gcc/lib/librte_cmdline.a(cmdline.o)
                                                  /home/vadim/projects/ipaugenblick/dpdk-1.6.0r2/x86_64-default-linuxapp-gcc/lib/librte_eal.a(eal_interrupts.o)
                                                  /home/vadim/projects/ipaugenblick/dpdk-1.6.0r2/x86_64-default-linuxapp-gcc/lib/librte_eal.a(eal_thread.o)
write@@GLIBC_2.2.5                                /lib/x86_64-linux-gnu/libpthread.so.0
                                                  /lib/x86_64-linux-gnu/libc.so.6
write@GLIBC_2.2.5                                 /lib/x86_64-linux-gnu/libpthread.so.0
                                                  /usr/lib/gcc/x86_64-linux-gnu/4.6/../../../x86_64-linux-gnu/librt.so
writev                                            /lib/x86_64-linux-gnu/libc.so.6
writev@@GLIBC_2.2.5                               /lib/x86_64-linux-gnu/libc.so.6
writev@GLIBC_2.2.5                                /lib/x86_64-linux-gnu/libc.so.6
